ARM GAS  C:\Users\VICTOR~1\AppData\Local\Temp\ccGQlpHd.s 			page 1


   1              		.syntax unified
   2              		.cpu cortex-m3
   3              		.fpu softvfp
   4              		.eabi_attribute 20, 1
   5              		.eabi_attribute 21, 1
   6              		.eabi_attribute 23, 3
   7              		.eabi_attribute 24, 1
   8              		.eabi_attribute 25, 1
   9              		.eabi_attribute 26, 1
  10              		.eabi_attribute 30, 6
  11              		.eabi_attribute 34, 1
  12              		.eabi_attribute 18, 4
  13              		.thumb
  14              		.file	"DieTemp.c"
  15              		.text
  16              	.Ltext0:
  17              		.cfi_sections	.debug_frame
  18              		.section	.text.DieTemp_Start,"ax",%progbits
  19              		.align	2
  20              		.global	DieTemp_Start
  21              		.thumb
  22              		.thumb_func
  23              		.type	DieTemp_Start, %function
  24              	DieTemp_Start:
  25              	.LFB0:
  26              		.file 1 ".\\Generated_Source\\PSoC5\\DieTemp.c"
   1:.\Generated_Source\PSoC5/DieTemp.c **** /*******************************************************************************
   2:.\Generated_Source\PSoC5/DieTemp.c **** * File Name: DieTemp_DieTemp.c
   3:.\Generated_Source\PSoC5/DieTemp.c **** * Version 2.0
   4:.\Generated_Source\PSoC5/DieTemp.c **** *
   5:.\Generated_Source\PSoC5/DieTemp.c **** * Description:
   6:.\Generated_Source\PSoC5/DieTemp.c **** *  Provides the API to acquire the die temperature.
   7:.\Generated_Source\PSoC5/DieTemp.c **** *
   8:.\Generated_Source\PSoC5/DieTemp.c **** ********************************************************************************
   9:.\Generated_Source\PSoC5/DieTemp.c **** * Copyright 2008-2012, Cypress Semiconductor Corporation.  All rights reserved.
  10:.\Generated_Source\PSoC5/DieTemp.c **** * You may use this file only in accordance with the license, terms, conditions,
  11:.\Generated_Source\PSoC5/DieTemp.c **** * disclaimers, and limitations in the end user license agreement accompanying
  12:.\Generated_Source\PSoC5/DieTemp.c **** * the software package with which this file was provided.
  13:.\Generated_Source\PSoC5/DieTemp.c **** *******************************************************************************/
  14:.\Generated_Source\PSoC5/DieTemp.c **** 
  15:.\Generated_Source\PSoC5/DieTemp.c **** 
  16:.\Generated_Source\PSoC5/DieTemp.c **** #include <cydevice_trm.H>
  17:.\Generated_Source\PSoC5/DieTemp.c **** #include <DieTemp.h>
  18:.\Generated_Source\PSoC5/DieTemp.c **** 
  19:.\Generated_Source\PSoC5/DieTemp.c **** 
  20:.\Generated_Source\PSoC5/DieTemp.c **** #define DieTemp_NUMBER_OF_SAMPLES      (0x1u)
  21:.\Generated_Source\PSoC5/DieTemp.c **** #define DieTemp_TIMER_PERIOD           (0xFFFu)
  22:.\Generated_Source\PSoC5/DieTemp.c **** #define DieTemp_CLK_DIV_SELECT         (0x4u)
  23:.\Generated_Source\PSoC5/DieTemp.c **** #define DieTemp_SPC_CLK_PERIOD         (120u) /* In nano seconds. */
  24:.\Generated_Source\PSoC5/DieTemp.c **** #define DieTemp_NANO_TO_MILLI_FACTOR   (1000000u)
  25:.\Generated_Source\PSoC5/DieTemp.c **** #define DieTemp_FRM_EXEC_TIME          (1000u) /* In nano seconds. */
  26:.\Generated_Source\PSoC5/DieTemp.c **** 
  27:.\Generated_Source\PSoC5/DieTemp.c **** #define DieTemp_GET_TEMPR_TIME     (uint32)(((((uint32)1u << (DieTemp_NUMBER_OF_SAMPLES + 1u))) * \
  28:.\Generated_Source\PSoC5/DieTemp.c ****                                                 ((uint32)(DieTemp_SPC_CLK_PERIOD * \
  29:.\Generated_Source\PSoC5/DieTemp.c ****                                                 DieTemp_CLK_DIV_SELECT)) * \
  30:.\Generated_Source\PSoC5/DieTemp.c ****                                                 ((uint32)DieTemp_TIMER_PERIOD)) + \
  31:.\Generated_Source\PSoC5/DieTemp.c ****                                                 (uint32)DieTemp_FRM_EXEC_TIME)
ARM GAS  C:\Users\VICTOR~1\AppData\Local\Temp\ccGQlpHd.s 			page 2


  32:.\Generated_Source\PSoC5/DieTemp.c **** 
  33:.\Generated_Source\PSoC5/DieTemp.c **** #define DieTemp_MAX_WAIT           (uint16)(((DieTemp_GET_TEMPR_TIME + \
  34:.\Generated_Source\PSoC5/DieTemp.c ****                                                 DieTemp_NANO_TO_MILLI_FACTOR) - 1u) / \
  35:.\Generated_Source\PSoC5/DieTemp.c ****                                                 DieTemp_NANO_TO_MILLI_FACTOR)  /* In milli seconds.
  36:.\Generated_Source\PSoC5/DieTemp.c **** 
  37:.\Generated_Source\PSoC5/DieTemp.c **** static cystatus DieTemp_GetTempT(int16 * temperature);
  38:.\Generated_Source\PSoC5/DieTemp.c **** 
  39:.\Generated_Source\PSoC5/DieTemp.c **** 
  40:.\Generated_Source\PSoC5/DieTemp.c **** /*******************************************************************************
  41:.\Generated_Source\PSoC5/DieTemp.c **** * Function Name: DieTemp_Start
  42:.\Generated_Source\PSoC5/DieTemp.c **** ********************************************************************************
  43:.\Generated_Source\PSoC5/DieTemp.c **** *
  44:.\Generated_Source\PSoC5/DieTemp.c **** * Summary:
  45:.\Generated_Source\PSoC5/DieTemp.c **** *  Starts the SPC command to get the die temperature. If this function is
  46:.\Generated_Source\PSoC5/DieTemp.c **** *  called successfuly. The SPC will be locked and DieTemp_QueryDieTemp
  47:.\Generated_Source\PSoC5/DieTemp.c **** *  will have to be successfuly called to unlock it. CySpcUnlock() can also
  48:.\Generated_Source\PSoC5/DieTemp.c **** *  be called if the caller decides not to finish the temperature reading.
  49:.\Generated_Source\PSoC5/DieTemp.c **** *
  50:.\Generated_Source\PSoC5/DieTemp.c **** * Parameters:
  51:.\Generated_Source\PSoC5/DieTemp.c **** *  void.
  52:.\Generated_Source\PSoC5/DieTemp.c **** *
  53:.\Generated_Source\PSoC5/DieTemp.c **** * Return:
  54:.\Generated_Source\PSoC5/DieTemp.c **** *  CYRET_STARTED if the spc command was started sucessfuly.
  55:.\Generated_Source\PSoC5/DieTemp.c **** *  CYRET_UNKNOWN if the spc command failed.
  56:.\Generated_Source\PSoC5/DieTemp.c **** *  CYRET_LOCKED if the spc was busy.
  57:.\Generated_Source\PSoC5/DieTemp.c **** *
  58:.\Generated_Source\PSoC5/DieTemp.c **** *******************************************************************************/
  59:.\Generated_Source\PSoC5/DieTemp.c **** cystatus DieTemp_Start(void) 
  60:.\Generated_Source\PSoC5/DieTemp.c **** {
  27              		.loc 1 60 0
  28              		.cfi_startproc
  29              		@ args = 0, pretend = 0, frame = 8
  30              		@ frame_needed = 1, uses_anonymous_args = 0
  31 0000 80B5     		push	{r7, lr}
  32              	.LCFI0:
  33              		.cfi_def_cfa_offset 8
  34              		.cfi_offset 7, -8
  35              		.cfi_offset 14, -4
  36 0002 82B0     		sub	sp, sp, #8
  37              	.LCFI1:
  38              		.cfi_def_cfa_offset 16
  39 0004 00AF     		add	r7, sp, #0
  40              	.LCFI2:
  41              		.cfi_def_cfa_register 7
  61:.\Generated_Source\PSoC5/DieTemp.c ****     cystatus status;
  62:.\Generated_Source\PSoC5/DieTemp.c **** 
  63:.\Generated_Source\PSoC5/DieTemp.c ****     /* Plan for failure. */
  64:.\Generated_Source\PSoC5/DieTemp.c ****     status = CYRET_UNKNOWN;
  42              		.loc 1 64 0
  43 0006 4FF0FF33 		mov	r3, #-1
  44 000a 7B60     		str	r3, [r7, #4]
  65:.\Generated_Source\PSoC5/DieTemp.c **** 
  66:.\Generated_Source\PSoC5/DieTemp.c ****     /* Power up the SPC. */
  67:.\Generated_Source\PSoC5/DieTemp.c ****     CySpcStart();
  45              		.loc 1 67 0
  46 000c FFF7FEFF 		bl	CySpcStart
  68:.\Generated_Source\PSoC5/DieTemp.c **** 
ARM GAS  C:\Users\VICTOR~1\AppData\Local\Temp\ccGQlpHd.s 			page 3


  69:.\Generated_Source\PSoC5/DieTemp.c ****     if(CySpcLock() == CYRET_SUCCESS)
  47              		.loc 1 69 0
  48 0010 FFF7FEFF 		bl	CySpcLock
  49 0014 0346     		mov	r3, r0
  50 0016 002B     		cmp	r3, #0
  51 0018 0CD1     		bne	.L2
  70:.\Generated_Source\PSoC5/DieTemp.c ****     {
  71:.\Generated_Source\PSoC5/DieTemp.c ****         #if(CY_PSOC5A)
  72:.\Generated_Source\PSoC5/DieTemp.c ****             if(CYRET_STARTED == CySpcGetTemp(DieTemp_NUMBER_OF_SAMPLES,
  73:.\Generated_Source\PSoC5/DieTemp.c ****                                              DieTemp_TIMER_PERIOD,
  74:.\Generated_Source\PSoC5/DieTemp.c ****                                              DieTemp_CLK_DIV_SELECT))
  75:.\Generated_Source\PSoC5/DieTemp.c ****             {
  76:.\Generated_Source\PSoC5/DieTemp.c ****                 status = CYRET_STARTED;
  77:.\Generated_Source\PSoC5/DieTemp.c ****             }
  78:.\Generated_Source\PSoC5/DieTemp.c ****         #else
  79:.\Generated_Source\PSoC5/DieTemp.c ****             if(CYRET_STARTED == CySpcGetTemp(DieTemp_NUMBER_OF_SAMPLES))
  52              		.loc 1 79 0
  53 001a 4FF00100 		mov	r0, #1
  54 001e FFF7FEFF 		bl	CySpcGetTemp
  55 0022 0346     		mov	r3, r0
  56 0024 072B     		cmp	r3, #7
  57 0026 02D1     		bne	.L3
  80:.\Generated_Source\PSoC5/DieTemp.c ****             {
  81:.\Generated_Source\PSoC5/DieTemp.c ****                 status = CYRET_STARTED;
  58              		.loc 1 81 0
  59 0028 4FF00703 		mov	r3, #7
  60 002c 7B60     		str	r3, [r7, #4]
  61              	.L3:
  82:.\Generated_Source\PSoC5/DieTemp.c ****             }
  83:.\Generated_Source\PSoC5/DieTemp.c ****         #endif  /* (CY_PSOC5A) */
  84:.\Generated_Source\PSoC5/DieTemp.c ****         CySpcUnlock();
  62              		.loc 1 84 0
  63 002e FFF7FEFF 		bl	CySpcUnlock
  64 0032 02E0     		b	.L4
  65              	.L2:
  85:.\Generated_Source\PSoC5/DieTemp.c ****     }
  86:.\Generated_Source\PSoC5/DieTemp.c ****     else
  87:.\Generated_Source\PSoC5/DieTemp.c ****     {
  88:.\Generated_Source\PSoC5/DieTemp.c ****         status = CYRET_LOCKED;
  66              		.loc 1 88 0
  67 0034 4FF00403 		mov	r3, #4
  68 0038 7B60     		str	r3, [r7, #4]
  69              	.L4:
  89:.\Generated_Source\PSoC5/DieTemp.c ****     }
  90:.\Generated_Source\PSoC5/DieTemp.c ****     return (status);
  70              		.loc 1 90 0
  71 003a 7B68     		ldr	r3, [r7, #4]
  91:.\Generated_Source\PSoC5/DieTemp.c **** }
  72              		.loc 1 91 0
  73 003c 1846     		mov	r0, r3
  74 003e 07F10807 		add	r7, r7, #8
  75 0042 BD46     		mov	sp, r7
  76 0044 80BD     		pop	{r7, pc}
  77              		.cfi_endproc
  78              	.LFE0:
  79              		.size	DieTemp_Start, .-DieTemp_Start
  80 0046 00BF     		.section	.text.DieTemp_Stop,"ax",%progbits
ARM GAS  C:\Users\VICTOR~1\AppData\Local\Temp\ccGQlpHd.s 			page 4


  81              		.align	2
  82              		.global	DieTemp_Stop
  83              		.thumb
  84              		.thumb_func
  85              		.type	DieTemp_Stop, %function
  86              	DieTemp_Stop:
  87              	.LFB1:
  92:.\Generated_Source\PSoC5/DieTemp.c **** 
  93:.\Generated_Source\PSoC5/DieTemp.c **** 
  94:.\Generated_Source\PSoC5/DieTemp.c **** /*******************************************************************************
  95:.\Generated_Source\PSoC5/DieTemp.c **** * FUNCTION NAME:   DieTemp_Stop
  96:.\Generated_Source\PSoC5/DieTemp.c **** ********************************************************************************
  97:.\Generated_Source\PSoC5/DieTemp.c **** *
  98:.\Generated_Source\PSoC5/DieTemp.c **** * Summary:
  99:.\Generated_Source\PSoC5/DieTemp.c **** *  There is no need to stop or disable this component. This component is
 100:.\Generated_Source\PSoC5/DieTemp.c **** *  naturally a slave that sends request to SPC through SPC API of cy_boot
 101:.\Generated_Source\PSoC5/DieTemp.c **** *  and waits for data to be ready or in case of non-blocking operation it
 102:.\Generated_Source\PSoC5/DieTemp.c **** *  sends request to SPC and user can manually poll the result.
 103:.\Generated_Source\PSoC5/DieTemp.c **** *
 104:.\Generated_Source\PSoC5/DieTemp.c **** * Parameters:
 105:.\Generated_Source\PSoC5/DieTemp.c **** *  void
 106:.\Generated_Source\PSoC5/DieTemp.c **** *
 107:.\Generated_Source\PSoC5/DieTemp.c **** * Return:
 108:.\Generated_Source\PSoC5/DieTemp.c **** *  void
 109:.\Generated_Source\PSoC5/DieTemp.c **** *
 110:.\Generated_Source\PSoC5/DieTemp.c **** *******************************************************************************/
 111:.\Generated_Source\PSoC5/DieTemp.c **** void DieTemp_Stop(void) 
 112:.\Generated_Source\PSoC5/DieTemp.c **** {
  88              		.loc 1 112 0
  89              		.cfi_startproc
  90              		@ args = 0, pretend = 0, frame = 0
  91              		@ frame_needed = 1, uses_anonymous_args = 0
  92              		@ link register save eliminated.
  93 0000 80B4     		push	{r7}
  94              	.LCFI3:
  95              		.cfi_def_cfa_offset 4
  96              		.cfi_offset 7, -4
  97 0002 00AF     		add	r7, sp, #0
  98              	.LCFI4:
  99              		.cfi_def_cfa_register 7
 113:.\Generated_Source\PSoC5/DieTemp.c ****     /* There aren't anything to stop */
 114:.\Generated_Source\PSoC5/DieTemp.c **** }
 100              		.loc 1 114 0
 101 0004 BD46     		mov	sp, r7
 102 0006 80BC     		pop	{r7}
 103 0008 7047     		bx	lr
 104              		.cfi_endproc
 105              	.LFE1:
 106              		.size	DieTemp_Stop, .-DieTemp_Stop
 107 000a 00BF     		.section	.text.DieTemp_Query,"ax",%progbits
 108              		.align	2
 109              		.global	DieTemp_Query
 110              		.thumb
 111              		.thumb_func
 112              		.type	DieTemp_Query, %function
 113              	DieTemp_Query:
 114              	.LFB2:
ARM GAS  C:\Users\VICTOR~1\AppData\Local\Temp\ccGQlpHd.s 			page 5


 115:.\Generated_Source\PSoC5/DieTemp.c **** 
 116:.\Generated_Source\PSoC5/DieTemp.c **** 
 117:.\Generated_Source\PSoC5/DieTemp.c **** /*******************************************************************************
 118:.\Generated_Source\PSoC5/DieTemp.c **** * Function Name: DieTemp_Query
 119:.\Generated_Source\PSoC5/DieTemp.c **** ********************************************************************************
 120:.\Generated_Source\PSoC5/DieTemp.c **** *
 121:.\Generated_Source\PSoC5/DieTemp.c **** * Summary:
 122:.\Generated_Source\PSoC5/DieTemp.c **** *  Querys the SPC to see if the termperature command is finished.
 123:.\Generated_Source\PSoC5/DieTemp.c **** *
 124:.\Generated_Source\PSoC5/DieTemp.c **** * Parameters:
 125:.\Generated_Source\PSoC5/DieTemp.c **** *  temperature: Address to store the two byte temperature value.
 126:.\Generated_Source\PSoC5/DieTemp.c **** *
 127:.\Generated_Source\PSoC5/DieTemp.c **** * Return:
 128:.\Generated_Source\PSoC5/DieTemp.c **** *  CYRET_SUCCESS if the temperature command completed sucessfully.
 129:.\Generated_Source\PSoC5/DieTemp.c **** *  CYRET_UNKNOWN if the there was an spc failure.
 130:.\Generated_Source\PSoC5/DieTemp.c **** *  CYRET_STARTED if the temperature command has not completed.
 131:.\Generated_Source\PSoC5/DieTemp.c **** *  CYRET_TIMEOUT if waited to long before reading data.
 132:.\Generated_Source\PSoC5/DieTemp.c **** *
 133:.\Generated_Source\PSoC5/DieTemp.c **** *******************************************************************************/
 134:.\Generated_Source\PSoC5/DieTemp.c **** cystatus DieTemp_Query(int16 * temperature) 
 135:.\Generated_Source\PSoC5/DieTemp.c **** {
 115              		.loc 1 135 0
 116              		.cfi_startproc
 117              		@ args = 0, pretend = 0, frame = 16
 118              		@ frame_needed = 1, uses_anonymous_args = 0
 119 0000 80B5     		push	{r7, lr}
 120              	.LCFI5:
 121              		.cfi_def_cfa_offset 8
 122              		.cfi_offset 7, -8
 123              		.cfi_offset 14, -4
 124 0002 84B0     		sub	sp, sp, #16
 125              	.LCFI6:
 126              		.cfi_def_cfa_offset 24
 127 0004 00AF     		add	r7, sp, #0
 128              	.LCFI7:
 129              		.cfi_def_cfa_register 7
 130 0006 7860     		str	r0, [r7, #4]
 136:.\Generated_Source\PSoC5/DieTemp.c ****     uint8 temp[2u];
 137:.\Generated_Source\PSoC5/DieTemp.c ****     cystatus status;
 138:.\Generated_Source\PSoC5/DieTemp.c **** 
 139:.\Generated_Source\PSoC5/DieTemp.c **** 
 140:.\Generated_Source\PSoC5/DieTemp.c ****     if(CY_SPC_BUSY)
 131              		.loc 1 140 0
 132 0008 44F22273 		movw	r3, #18210
 133 000c C4F20003 		movt	r3, 16384
 134 0010 1B78     		ldrb	r3, [r3, #0]
 135 0012 DBB2     		uxtb	r3, r3
 136 0014 03F00203 		and	r3, r3, #2
 137 0018 002B     		cmp	r3, #0
 138 001a 2FD1     		bne	.L8
 141:.\Generated_Source\PSoC5/DieTemp.c ****     {
 142:.\Generated_Source\PSoC5/DieTemp.c ****         if((CY_SPC_STATUS_REG>>2u) == CYRET_SUCCESS)
 139              		.loc 1 142 0
 140 001c 44F22273 		movw	r3, #18210
 141 0020 C4F20003 		movt	r3, 16384
 142 0024 1B78     		ldrb	r3, [r3, #0]
 143 0026 DBB2     		uxtb	r3, r3
ARM GAS  C:\Users\VICTOR~1\AppData\Local\Temp\ccGQlpHd.s 			page 6


 144 0028 4FEA9303 		lsr	r3, r3, #2
 145 002c DBB2     		uxtb	r3, r3
 146 002e 002B     		cmp	r3, #0
 147 0030 20D1     		bne	.L9
 143:.\Generated_Source\PSoC5/DieTemp.c ****         {
 144:.\Generated_Source\PSoC5/DieTemp.c ****             /* See if any data is ready. */
 145:.\Generated_Source\PSoC5/DieTemp.c ****             if(CySpcReadData(temp, 2u) == 2u)
 148              		.loc 1 145 0
 149 0032 07F10803 		add	r3, r7, #8
 150 0036 1846     		mov	r0, r3
 151 0038 4FF00201 		mov	r1, #2
 152 003c FFF7FEFF 		bl	CySpcReadData
 153 0040 0346     		mov	r3, r0
 154 0042 022B     		cmp	r3, #2
 155 0044 12D1     		bne	.L10
 146:.\Generated_Source\PSoC5/DieTemp.c ****             {
 147:.\Generated_Source\PSoC5/DieTemp.c ****                 if(temp[0u] == 1u)
 156              		.loc 1 147 0
 157 0046 3B7A     		ldrb	r3, [r7, #8]	@ zero_extendqisi2
 158 0048 012B     		cmp	r3, #1
 159 004a 04D1     		bne	.L11
 148:.\Generated_Source\PSoC5/DieTemp.c ****                 {
 149:.\Generated_Source\PSoC5/DieTemp.c ****                     *temperature = (int16) ((uint16) temp[1]);
 160              		.loc 1 149 0
 161 004c 7B7A     		ldrb	r3, [r7, #9]	@ zero_extendqisi2
 162 004e 1A46     		mov	r2, r3
 163 0050 7B68     		ldr	r3, [r7, #4]
 164 0052 1A80     		strh	r2, [r3, #0]	@ movhi
 165 0054 06E0     		b	.L12
 166              	.L11:
 150:.\Generated_Source\PSoC5/DieTemp.c ****                 }
 151:.\Generated_Source\PSoC5/DieTemp.c ****                 else
 152:.\Generated_Source\PSoC5/DieTemp.c ****                 {
 153:.\Generated_Source\PSoC5/DieTemp.c ****                     *temperature = (int16) - ((int16) temp[1]);
 167              		.loc 1 153 0
 168 0056 7B7A     		ldrb	r3, [r7, #9]	@ zero_extendqisi2
 169 0058 C3F10003 		rsb	r3, r3, #0
 170 005c 9BB2     		uxth	r3, r3
 171 005e 9AB2     		uxth	r2, r3
 172 0060 7B68     		ldr	r3, [r7, #4]
 173 0062 1A80     		strh	r2, [r3, #0]	@ movhi
 174              	.L12:
 154:.\Generated_Source\PSoC5/DieTemp.c ****                 }
 155:.\Generated_Source\PSoC5/DieTemp.c ****                 status = CYRET_SUCCESS;
 175              		.loc 1 155 0
 176 0064 4FF00003 		mov	r3, #0
 177 0068 FB60     		str	r3, [r7, #12]
 178 006a 0AE0     		b	.L13
 179              	.L10:
 156:.\Generated_Source\PSoC5/DieTemp.c ****             }
 157:.\Generated_Source\PSoC5/DieTemp.c ****             else
 158:.\Generated_Source\PSoC5/DieTemp.c ****             {
 159:.\Generated_Source\PSoC5/DieTemp.c ****                 status = CYRET_UNKNOWN;
 180              		.loc 1 159 0
 181 006c 4FF0FF33 		mov	r3, #-1
 182 0070 FB60     		str	r3, [r7, #12]
 183 0072 06E0     		b	.L13
ARM GAS  C:\Users\VICTOR~1\AppData\Local\Temp\ccGQlpHd.s 			page 7


 184              	.L9:
 160:.\Generated_Source\PSoC5/DieTemp.c ****             }
 161:.\Generated_Source\PSoC5/DieTemp.c ****         }
 162:.\Generated_Source\PSoC5/DieTemp.c ****         else
 163:.\Generated_Source\PSoC5/DieTemp.c ****         {
 164:.\Generated_Source\PSoC5/DieTemp.c ****             status = CYRET_STARTED;
 185              		.loc 1 164 0
 186 0074 4FF00703 		mov	r3, #7
 187 0078 FB60     		str	r3, [r7, #12]
 188 007a 02E0     		b	.L13
 189              	.L8:
 165:.\Generated_Source\PSoC5/DieTemp.c ****         }
 166:.\Generated_Source\PSoC5/DieTemp.c ****     }
 167:.\Generated_Source\PSoC5/DieTemp.c ****     else
 168:.\Generated_Source\PSoC5/DieTemp.c ****     {
 169:.\Generated_Source\PSoC5/DieTemp.c ****         status = CYRET_TIMEOUT;
 190              		.loc 1 169 0
 191 007c 4FF01003 		mov	r3, #16
 192 0080 FB60     		str	r3, [r7, #12]
 193              	.L13:
 170:.\Generated_Source\PSoC5/DieTemp.c ****     }
 171:.\Generated_Source\PSoC5/DieTemp.c **** 
 172:.\Generated_Source\PSoC5/DieTemp.c ****     if(status != CYRET_STARTED)
 194              		.loc 1 172 0
 195 0082 FB68     		ldr	r3, [r7, #12]
 196 0084 072B     		cmp	r3, #7
 197 0086 01D0     		beq	.L14
 173:.\Generated_Source\PSoC5/DieTemp.c ****     {
 174:.\Generated_Source\PSoC5/DieTemp.c ****         /* Unlock the SPC so someone else can use it. */
 175:.\Generated_Source\PSoC5/DieTemp.c ****         CySpcUnlock();
 198              		.loc 1 175 0
 199 0088 FFF7FEFF 		bl	CySpcUnlock
 200              	.L14:
 176:.\Generated_Source\PSoC5/DieTemp.c ****     }
 177:.\Generated_Source\PSoC5/DieTemp.c ****     return (status);
 201              		.loc 1 177 0
 202 008c FB68     		ldr	r3, [r7, #12]
 178:.\Generated_Source\PSoC5/DieTemp.c **** }
 203              		.loc 1 178 0
 204 008e 1846     		mov	r0, r3
 205 0090 07F11007 		add	r7, r7, #16
 206 0094 BD46     		mov	sp, r7
 207 0096 80BD     		pop	{r7, pc}
 208              		.cfi_endproc
 209              	.LFE2:
 210              		.size	DieTemp_Query, .-DieTemp_Query
 211              		.section	.text.DieTemp_GetTempT,"ax",%progbits
 212              		.align	2
 213              		.thumb
 214              		.thumb_func
 215              		.type	DieTemp_GetTempT, %function
 216              	DieTemp_GetTempT:
 217              	.LFB3:
 179:.\Generated_Source\PSoC5/DieTemp.c **** 
 180:.\Generated_Source\PSoC5/DieTemp.c **** 
 181:.\Generated_Source\PSoC5/DieTemp.c **** /*******************************************************************************
 182:.\Generated_Source\PSoC5/DieTemp.c **** * Function Name: DieTemp_GetTemp
ARM GAS  C:\Users\VICTOR~1\AppData\Local\Temp\ccGQlpHd.s 			page 8


 183:.\Generated_Source\PSoC5/DieTemp.c **** ********************************************************************************
 184:.\Generated_Source\PSoC5/DieTemp.c **** *
 185:.\Generated_Source\PSoC5/DieTemp.c **** * Summary:
 186:.\Generated_Source\PSoC5/DieTemp.c **** *  Sets up the command to get the temperature and blocks until finished. After
 187:.\Generated_Source\PSoC5/DieTemp.c **** *  DieTemp_MAX_WAIT ticks the function will return even if the
 188:.\Generated_Source\PSoC5/DieTemp.c **** *  SPC has not finished.
 189:.\Generated_Source\PSoC5/DieTemp.c **** *
 190:.\Generated_Source\PSoC5/DieTemp.c **** * Parameters:
 191:.\Generated_Source\PSoC5/DieTemp.c **** *  temperature: Address to store the two byte temperature value.
 192:.\Generated_Source\PSoC5/DieTemp.c **** *
 193:.\Generated_Source\PSoC5/DieTemp.c **** * Return:
 194:.\Generated_Source\PSoC5/DieTemp.c **** *  CYRET_SUCCESS if the command was completed sucessfuly.
 195:.\Generated_Source\PSoC5/DieTemp.c **** *  Status code from DieTemp_Start or DieTemp_Query
 196:.\Generated_Source\PSoC5/DieTemp.c **** *
 197:.\Generated_Source\PSoC5/DieTemp.c **** *******************************************************************************/
 198:.\Generated_Source\PSoC5/DieTemp.c **** static cystatus DieTemp_GetTempT(int16 * temperature) 
 199:.\Generated_Source\PSoC5/DieTemp.c **** {
 218              		.loc 1 199 0
 219              		.cfi_startproc
 220              		@ args = 0, pretend = 0, frame = 16
 221              		@ frame_needed = 1, uses_anonymous_args = 0
 222 0000 80B5     		push	{r7, lr}
 223              	.LCFI8:
 224              		.cfi_def_cfa_offset 8
 225              		.cfi_offset 7, -8
 226              		.cfi_offset 14, -4
 227 0002 84B0     		sub	sp, sp, #16
 228              	.LCFI9:
 229              		.cfi_def_cfa_offset 24
 230 0004 00AF     		add	r7, sp, #0
 231              	.LCFI10:
 232              		.cfi_def_cfa_register 7
 233 0006 7860     		str	r0, [r7, #4]
 200:.\Generated_Source\PSoC5/DieTemp.c ****     uint16 us;
 201:.\Generated_Source\PSoC5/DieTemp.c ****     cystatus status;
 202:.\Generated_Source\PSoC5/DieTemp.c **** 
 203:.\Generated_Source\PSoC5/DieTemp.c ****     /* Start the temp reading */
 204:.\Generated_Source\PSoC5/DieTemp.c ****     status = DieTemp_Start();
 234              		.loc 1 204 0
 235 0008 FFF7FEFF 		bl	DieTemp_Start
 236 000c B860     		str	r0, [r7, #8]
 205:.\Generated_Source\PSoC5/DieTemp.c **** 
 206:.\Generated_Source\PSoC5/DieTemp.c ****     if(status == CYRET_STARTED)
 237              		.loc 1 206 0
 238 000e BB68     		ldr	r3, [r7, #8]
 239 0010 072B     		cmp	r3, #7
 240 0012 22D1     		bne	.L17
 207:.\Generated_Source\PSoC5/DieTemp.c ****     {
 208:.\Generated_Source\PSoC5/DieTemp.c ****         /**************************************************************************
 209:.\Generated_Source\PSoC5/DieTemp.c ****         * Wait for SPC to finish temperature reading. If state will change and SPC
 210:.\Generated_Source\PSoC5/DieTemp.c ****         * will finish - break cycle.
 211:.\Generated_Source\PSoC5/DieTemp.c ****         * DieTemp_MAX_WAIT is maximum time in ms to wait for SPC.
 212:.\Generated_Source\PSoC5/DieTemp.c ****         **************************************************************************/
 213:.\Generated_Source\PSoC5/DieTemp.c ****         for (us=(DieTemp_MAX_WAIT*1000u); us>0u; us-=10u)
 241              		.loc 1 213 0
 242 0014 4FF4FA53 		mov	r3, #8000
 243 0018 FB81     		strh	r3, [r7, #14]	@ movhi
ARM GAS  C:\Users\VICTOR~1\AppData\Local\Temp\ccGQlpHd.s 			page 9


 244 001a 1BE0     		b	.L18
 245              	.L21:
 214:.\Generated_Source\PSoC5/DieTemp.c ****         {
 215:.\Generated_Source\PSoC5/DieTemp.c ****             if((CYRET_STARTED != status)&&(CY_SPC_IDLE))
 246              		.loc 1 215 0
 247 001c BB68     		ldr	r3, [r7, #8]
 248 001e 072B     		cmp	r3, #7
 249 0020 09D0     		beq	.L19
 250              		.loc 1 215 0 is_stmt 0 discriminator 1
 251 0022 44F22273 		movw	r3, #18210
 252 0026 C4F20003 		movt	r3, 16384
 253 002a 1B78     		ldrb	r3, [r3, #0]
 254 002c DBB2     		uxtb	r3, r3
 255 002e 03F00203 		and	r3, r3, #2
 256 0032 002B     		cmp	r3, #0
 257 0034 11D1     		bne	.L17
 258              	.L19:
 216:.\Generated_Source\PSoC5/DieTemp.c ****             {
 217:.\Generated_Source\PSoC5/DieTemp.c ****                 break;
 218:.\Generated_Source\PSoC5/DieTemp.c ****             }
 219:.\Generated_Source\PSoC5/DieTemp.c ****             else if(CYRET_STARTED == status)
 259              		.loc 1 219 0 is_stmt 1
 260 0036 BB68     		ldr	r3, [r7, #8]
 261 0038 072B     		cmp	r3, #7
 262 003a 03D1     		bne	.L20
 220:.\Generated_Source\PSoC5/DieTemp.c ****             {
 221:.\Generated_Source\PSoC5/DieTemp.c ****                 status = DieTemp_Query(temperature);
 263              		.loc 1 221 0
 264 003c 7868     		ldr	r0, [r7, #4]
 265 003e FFF7FEFF 		bl	DieTemp_Query
 266 0042 B860     		str	r0, [r7, #8]
 267              	.L20:
 222:.\Generated_Source\PSoC5/DieTemp.c ****             }
 223:.\Generated_Source\PSoC5/DieTemp.c ****             else
 224:.\Generated_Source\PSoC5/DieTemp.c ****             {
 225:.\Generated_Source\PSoC5/DieTemp.c ****                 /* SPC has not finished reading or isn't idle */
 226:.\Generated_Source\PSoC5/DieTemp.c ****             }
 227:.\Generated_Source\PSoC5/DieTemp.c ****             CyDelayUs(10u);
 268              		.loc 1 227 0
 269 0044 4FF00A00 		mov	r0, #10
 270 0048 FFF7FEFF 		bl	CyDelayUs
 213:.\Generated_Source\PSoC5/DieTemp.c ****         for (us=(DieTemp_MAX_WAIT*1000u); us>0u; us-=10u)
 271              		.loc 1 213 0
 272 004c FB89     		ldrh	r3, [r7, #14]	@ movhi
 273 004e A3F10A03 		sub	r3, r3, #10
 274 0052 FB81     		strh	r3, [r7, #14]	@ movhi
 275              	.L18:
 213:.\Generated_Source\PSoC5/DieTemp.c ****         for (us=(DieTemp_MAX_WAIT*1000u); us>0u; us-=10u)
 276              		.loc 1 213 0 is_stmt 0 discriminator 1
 277 0054 FB89     		ldrh	r3, [r7, #14]
 278 0056 002B     		cmp	r3, #0
 279 0058 E0D1     		bne	.L21
 280              	.L17:
 228:.\Generated_Source\PSoC5/DieTemp.c ****         }
 229:.\Generated_Source\PSoC5/DieTemp.c ****     }
 230:.\Generated_Source\PSoC5/DieTemp.c **** 
 231:.\Generated_Source\PSoC5/DieTemp.c ****     return status;
ARM GAS  C:\Users\VICTOR~1\AppData\Local\Temp\ccGQlpHd.s 			page 10


 281              		.loc 1 231 0 is_stmt 1
 282 005a BB68     		ldr	r3, [r7, #8]
 232:.\Generated_Source\PSoC5/DieTemp.c **** }
 283              		.loc 1 232 0
 284 005c 1846     		mov	r0, r3
 285 005e 07F11007 		add	r7, r7, #16
 286 0062 BD46     		mov	sp, r7
 287 0064 80BD     		pop	{r7, pc}
 288              		.cfi_endproc
 289              	.LFE3:
 290              		.size	DieTemp_GetTempT, .-DieTemp_GetTempT
 291 0066 00BF     		.section	.text.DieTemp_GetTemp,"ax",%progbits
 292              		.align	2
 293              		.global	DieTemp_GetTemp
 294              		.thumb
 295              		.thumb_func
 296              		.type	DieTemp_GetTemp, %function
 297              	DieTemp_GetTemp:
 298              	.LFB4:
 233:.\Generated_Source\PSoC5/DieTemp.c **** cystatus DieTemp_GetTemp(int16 * temperature) 
 234:.\Generated_Source\PSoC5/DieTemp.c **** {
 299              		.loc 1 234 0
 300              		.cfi_startproc
 301              		@ args = 0, pretend = 0, frame = 16
 302              		@ frame_needed = 1, uses_anonymous_args = 0
 303 0000 80B5     		push	{r7, lr}
 304              	.LCFI11:
 305              		.cfi_def_cfa_offset 8
 306              		.cfi_offset 7, -8
 307              		.cfi_offset 14, -4
 308 0002 84B0     		sub	sp, sp, #16
 309              	.LCFI12:
 310              		.cfi_def_cfa_offset 24
 311 0004 00AF     		add	r7, sp, #0
 312              	.LCFI13:
 313              		.cfi_def_cfa_register 7
 314 0006 7860     		str	r0, [r7, #4]
 235:.\Generated_Source\PSoC5/DieTemp.c ****     cystatus status;
 236:.\Generated_Source\PSoC5/DieTemp.c ****     uint8 count = 2u;
 315              		.loc 1 236 0
 316 0008 4FF00203 		mov	r3, #2
 317 000c FB72     		strb	r3, [r7, #11]
 237:.\Generated_Source\PSoC5/DieTemp.c ****     while (count != 0u)
 318              		.loc 1 237 0
 319 000e 0AE0     		b	.L24
 320              	.L27:
 238:.\Generated_Source\PSoC5/DieTemp.c ****     {
 239:.\Generated_Source\PSoC5/DieTemp.c ****         status = DieTemp_GetTempT(temperature);
 321              		.loc 1 239 0
 322 0010 7868     		ldr	r0, [r7, #4]
 323 0012 FFF7FEFF 		bl	DieTemp_GetTempT
 324 0016 F860     		str	r0, [r7, #12]
 240:.\Generated_Source\PSoC5/DieTemp.c ****         if (status != CYRET_SUCCESS)
 325              		.loc 1 240 0
 326 0018 FB68     		ldr	r3, [r7, #12]
 327 001a 002B     		cmp	r3, #0
 328 001c 07D1     		bne	.L29
ARM GAS  C:\Users\VICTOR~1\AppData\Local\Temp\ccGQlpHd.s 			page 11


 329              	.L25:
 241:.\Generated_Source\PSoC5/DieTemp.c ****         {
 242:.\Generated_Source\PSoC5/DieTemp.c ****             break;
 243:.\Generated_Source\PSoC5/DieTemp.c ****         }
 244:.\Generated_Source\PSoC5/DieTemp.c ****         count--;
 330              		.loc 1 244 0
 331 001e FB7A     		ldrb	r3, [r7, #11]
 332 0020 03F1FF33 		add	r3, r3, #-1
 333 0024 FB72     		strb	r3, [r7, #11]
 334              	.L24:
 237:.\Generated_Source\PSoC5/DieTemp.c ****     while (count != 0u)
 335              		.loc 1 237 0 discriminator 1
 336 0026 FB7A     		ldrb	r3, [r7, #11]	@ zero_extendqisi2
 337 0028 002B     		cmp	r3, #0
 338 002a F1D1     		bne	.L27
 339 002c 00E0     		b	.L26
 340              	.L29:
 242:.\Generated_Source\PSoC5/DieTemp.c ****             break;
 341              		.loc 1 242 0
 342 002e 00BF     		nop
 343              	.L26:
 245:.\Generated_Source\PSoC5/DieTemp.c ****     }
 246:.\Generated_Source\PSoC5/DieTemp.c ****     return status;
 344              		.loc 1 246 0
 345 0030 FB68     		ldr	r3, [r7, #12]
 247:.\Generated_Source\PSoC5/DieTemp.c **** }
 346              		.loc 1 247 0
 347 0032 1846     		mov	r0, r3
 348 0034 07F11007 		add	r7, r7, #16
 349 0038 BD46     		mov	sp, r7
 350 003a 80BD     		pop	{r7, pc}
 351              		.cfi_endproc
 352              	.LFE4:
 353              		.size	DieTemp_GetTemp, .-DieTemp_GetTemp
 354              		.text
 355              	.Letext0:
 356              		.file 2 "./Generated_Source/PSoC5/cytypes.h"