ARM GAS  C:\Users\VICTOR~1\AppData\Local\Temp\ccRgJZPP.s 			page 1


   1              		.syntax unified
   2              		.cpu cortex-m3
   3              		.fpu softvfp
   4              		.eabi_attribute 20, 1
   5              		.eabi_attribute 21, 1
   6              		.eabi_attribute 23, 3
   7              		.eabi_attribute 24, 1
   8              		.eabi_attribute 25, 1
   9              		.eabi_attribute 26, 1
  10              		.eabi_attribute 30, 6
  11              		.eabi_attribute 34, 1
  12              		.eabi_attribute 18, 4
  13              		.thumb
  14              		.file	"LCD_Char_1.c"
  15              		.text
  16              	.Ltext0:
  17              		.cfi_sections	.debug_frame
  18              		.global	LCD_Char_1_enableState
  19              		.bss
  20              		.type	LCD_Char_1_enableState, %object
  21              		.size	LCD_Char_1_enableState, 1
  22              	LCD_Char_1_enableState:
  23 0000 00       		.space	1
  24              		.global	LCD_Char_1_initVar
  25              		.type	LCD_Char_1_initVar, %object
  26              		.size	LCD_Char_1_initVar, 1
  27              	LCD_Char_1_initVar:
  28 0001 00       		.space	1
  29              		.section	.text.LCD_Char_1_Init,"ax",%progbits
  30              		.align	2
  31              		.global	LCD_Char_1_Init
  32              		.thumb
  33              		.thumb_func
  34              		.type	LCD_Char_1_Init, %function
  35              	LCD_Char_1_Init:
  36              	.LFB0:
  37              		.file 1 ".\\Generated_Source\\PSoC5\\LCD_Char_1.c"
   1:.\Generated_Source\PSoC5/LCD_Char_1.c **** /*******************************************************************************
   2:.\Generated_Source\PSoC5/LCD_Char_1.c **** * File Name: LCD_Char_1.c
   3:.\Generated_Source\PSoC5/LCD_Char_1.c **** * Version 2.0
   4:.\Generated_Source\PSoC5/LCD_Char_1.c **** *
   5:.\Generated_Source\PSoC5/LCD_Char_1.c **** * Description:
   6:.\Generated_Source\PSoC5/LCD_Char_1.c **** *  This file provides source code for the Character LCD component's API.
   7:.\Generated_Source\PSoC5/LCD_Char_1.c **** *
   8:.\Generated_Source\PSoC5/LCD_Char_1.c **** * Note:
   9:.\Generated_Source\PSoC5/LCD_Char_1.c **** *
  10:.\Generated_Source\PSoC5/LCD_Char_1.c **** ********************************************************************************
  11:.\Generated_Source\PSoC5/LCD_Char_1.c **** * Copyright 2008-2014, Cypress Semiconductor Corporation.  All rights reserved.
  12:.\Generated_Source\PSoC5/LCD_Char_1.c **** * You may use this file only in accordance with the license, terms, conditions,
  13:.\Generated_Source\PSoC5/LCD_Char_1.c **** * disclaimers, and limitations in the end user license agreement accompanying
  14:.\Generated_Source\PSoC5/LCD_Char_1.c **** * the software package with which this file was provided.
  15:.\Generated_Source\PSoC5/LCD_Char_1.c **** *******************************************************************************/
  16:.\Generated_Source\PSoC5/LCD_Char_1.c **** 
  17:.\Generated_Source\PSoC5/LCD_Char_1.c **** #include "CyLib.h"
  18:.\Generated_Source\PSoC5/LCD_Char_1.c **** #include "LCD_Char_1.h"
  19:.\Generated_Source\PSoC5/LCD_Char_1.c **** 
  20:.\Generated_Source\PSoC5/LCD_Char_1.c **** 
ARM GAS  C:\Users\VICTOR~1\AppData\Local\Temp\ccRgJZPP.s 			page 2


  21:.\Generated_Source\PSoC5/LCD_Char_1.c **** static void LCD_Char_1_WrDatNib(uint8 nibble) ;
  22:.\Generated_Source\PSoC5/LCD_Char_1.c **** static void LCD_Char_1_WrCntrlNib(uint8 nibble) ;
  23:.\Generated_Source\PSoC5/LCD_Char_1.c **** 
  24:.\Generated_Source\PSoC5/LCD_Char_1.c **** /* Stores state of component. Indicates whether component is or not
  25:.\Generated_Source\PSoC5/LCD_Char_1.c **** * in the enable state.
  26:.\Generated_Source\PSoC5/LCD_Char_1.c **** */
  27:.\Generated_Source\PSoC5/LCD_Char_1.c **** uint8 LCD_Char_1_enableState = 0u;
  28:.\Generated_Source\PSoC5/LCD_Char_1.c **** 
  29:.\Generated_Source\PSoC5/LCD_Char_1.c **** uint8 LCD_Char_1_initVar = 0u;
  30:.\Generated_Source\PSoC5/LCD_Char_1.c **** 
  31:.\Generated_Source\PSoC5/LCD_Char_1.c **** 
  32:.\Generated_Source\PSoC5/LCD_Char_1.c **** /*******************************************************************************
  33:.\Generated_Source\PSoC5/LCD_Char_1.c **** * Function Name: LCD_Char_1_Init
  34:.\Generated_Source\PSoC5/LCD_Char_1.c **** ********************************************************************************
  35:.\Generated_Source\PSoC5/LCD_Char_1.c **** *
  36:.\Generated_Source\PSoC5/LCD_Char_1.c **** * Summary:
  37:.\Generated_Source\PSoC5/LCD_Char_1.c **** *  Perform initialization required for the components normal work.
  38:.\Generated_Source\PSoC5/LCD_Char_1.c **** *  This function initializes the LCD hardware module as follows:
  39:.\Generated_Source\PSoC5/LCD_Char_1.c **** *        Enables a 4-bit interface
  40:.\Generated_Source\PSoC5/LCD_Char_1.c **** *        Clears the display
  41:.\Generated_Source\PSoC5/LCD_Char_1.c **** *        Enables the auto cursor increment
  42:.\Generated_Source\PSoC5/LCD_Char_1.c **** *        Resets the cursor to start position
  43:.\Generated_Source\PSoC5/LCD_Char_1.c **** *  Also, it loads a custom character set to the LCD if it was defined in the customizer.
  44:.\Generated_Source\PSoC5/LCD_Char_1.c **** *
  45:.\Generated_Source\PSoC5/LCD_Char_1.c **** * Parameters:
  46:.\Generated_Source\PSoC5/LCD_Char_1.c **** *  None.
  47:.\Generated_Source\PSoC5/LCD_Char_1.c **** *
  48:.\Generated_Source\PSoC5/LCD_Char_1.c **** * Return:
  49:.\Generated_Source\PSoC5/LCD_Char_1.c **** *  None.
  50:.\Generated_Source\PSoC5/LCD_Char_1.c **** *
  51:.\Generated_Source\PSoC5/LCD_Char_1.c **** * Reentrant:
  52:.\Generated_Source\PSoC5/LCD_Char_1.c **** *  No.
  53:.\Generated_Source\PSoC5/LCD_Char_1.c **** *
  54:.\Generated_Source\PSoC5/LCD_Char_1.c **** *******************************************************************************/
  55:.\Generated_Source\PSoC5/LCD_Char_1.c **** void LCD_Char_1_Init(void) 
  56:.\Generated_Source\PSoC5/LCD_Char_1.c **** {
  38              		.loc 1 56 0
  39              		.cfi_startproc
  40              		@ args = 0, pretend = 0, frame = 0
  41              		@ frame_needed = 1, uses_anonymous_args = 0
  42 0000 80B5     		push	{r7, lr}
  43              	.LCFI0:
  44              		.cfi_def_cfa_offset 8
  45              		.cfi_offset 7, -8
  46              		.cfi_offset 14, -4
  47 0002 00AF     		add	r7, sp, #0
  48              	.LCFI1:
  49              		.cfi_def_cfa_register 7
  57:.\Generated_Source\PSoC5/LCD_Char_1.c ****     /* INIT CODE */
  58:.\Generated_Source\PSoC5/LCD_Char_1.c ****     CyDelay(40u);                                                        /* Delay 40 ms */
  50              		.loc 1 58 0
  51 0004 4FF02800 		mov	r0, #40
  52 0008 FFF7FEFF 		bl	CyDelay
  59:.\Generated_Source\PSoC5/LCD_Char_1.c ****     LCD_Char_1_WrCntrlNib(LCD_Char_1_DISPLAY_8_BIT_INIT);    /* Selects 8-bit mode */
  53              		.loc 1 59 0
  54 000c 4FF00300 		mov	r0, #3
  55 0010 FFF7FEFF 		bl	LCD_Char_1_WrCntrlNib
ARM GAS  C:\Users\VICTOR~1\AppData\Local\Temp\ccRgJZPP.s 			page 3


  60:.\Generated_Source\PSoC5/LCD_Char_1.c ****     CyDelay(5u);                                                         /* Delay 5 ms */
  56              		.loc 1 60 0
  57 0014 4FF00500 		mov	r0, #5
  58 0018 FFF7FEFF 		bl	CyDelay
  61:.\Generated_Source\PSoC5/LCD_Char_1.c ****     LCD_Char_1_WrCntrlNib(LCD_Char_1_DISPLAY_8_BIT_INIT);    /* Selects 8-bit mode */
  59              		.loc 1 61 0
  60 001c 4FF00300 		mov	r0, #3
  61 0020 FFF7FEFF 		bl	LCD_Char_1_WrCntrlNib
  62:.\Generated_Source\PSoC5/LCD_Char_1.c ****     CyDelay(15u);                                                        /* Delay 15 ms */
  62              		.loc 1 62 0
  63 0024 4FF00F00 		mov	r0, #15
  64 0028 FFF7FEFF 		bl	CyDelay
  63:.\Generated_Source\PSoC5/LCD_Char_1.c ****     LCD_Char_1_WrCntrlNib(LCD_Char_1_DISPLAY_8_BIT_INIT);    /* Selects 8-bit mode */
  65              		.loc 1 63 0
  66 002c 4FF00300 		mov	r0, #3
  67 0030 FFF7FEFF 		bl	LCD_Char_1_WrCntrlNib
  64:.\Generated_Source\PSoC5/LCD_Char_1.c ****     CyDelay(1u);                                                         /* Delay 1 ms */
  68              		.loc 1 64 0
  69 0034 4FF00100 		mov	r0, #1
  70 0038 FFF7FEFF 		bl	CyDelay
  65:.\Generated_Source\PSoC5/LCD_Char_1.c ****     LCD_Char_1_WrCntrlNib(LCD_Char_1_DISPLAY_4_BIT_INIT);    /* Selects 4-bit mode */
  71              		.loc 1 65 0
  72 003c 4FF00200 		mov	r0, #2
  73 0040 FFF7FEFF 		bl	LCD_Char_1_WrCntrlNib
  66:.\Generated_Source\PSoC5/LCD_Char_1.c ****     CyDelay(5u);                                                         /* Delay 5 ms */
  74              		.loc 1 66 0
  75 0044 4FF00500 		mov	r0, #5
  76 0048 FFF7FEFF 		bl	CyDelay
  67:.\Generated_Source\PSoC5/LCD_Char_1.c **** 
  68:.\Generated_Source\PSoC5/LCD_Char_1.c ****     LCD_Char_1_WriteControl(LCD_Char_1_CURSOR_AUTO_INCR_ON);    /* Incr Cursor After Writes */
  77              		.loc 1 68 0
  78 004c 4FF00600 		mov	r0, #6
  79 0050 FFF7FEFF 		bl	LCD_Char_1_WriteControl
  69:.\Generated_Source\PSoC5/LCD_Char_1.c ****     LCD_Char_1_WriteControl(LCD_Char_1_DISPLAY_CURSOR_ON);      /* Turn Display, Cursor ON */
  80              		.loc 1 69 0
  81 0054 4FF00E00 		mov	r0, #14
  82 0058 FFF7FEFF 		bl	LCD_Char_1_WriteControl
  70:.\Generated_Source\PSoC5/LCD_Char_1.c ****     LCD_Char_1_WriteControl(LCD_Char_1_DISPLAY_2_LINES_5x10);   /* 2 Lines by 5x10 Characters */
  83              		.loc 1 70 0
  84 005c 4FF02C00 		mov	r0, #44
  85 0060 FFF7FEFF 		bl	LCD_Char_1_WriteControl
  71:.\Generated_Source\PSoC5/LCD_Char_1.c ****     LCD_Char_1_WriteControl(LCD_Char_1_DISPLAY_CURSOR_OFF);     /* Turn Display, Cursor OFF */
  86              		.loc 1 71 0
  87 0064 4FF00800 		mov	r0, #8
  88 0068 FFF7FEFF 		bl	LCD_Char_1_WriteControl
  72:.\Generated_Source\PSoC5/LCD_Char_1.c ****     LCD_Char_1_WriteControl(LCD_Char_1_CLEAR_DISPLAY);          /* Clear LCD Screen */
  89              		.loc 1 72 0
  90 006c 4FF00100 		mov	r0, #1
  91 0070 FFF7FEFF 		bl	LCD_Char_1_WriteControl
  73:.\Generated_Source\PSoC5/LCD_Char_1.c ****     LCD_Char_1_WriteControl(LCD_Char_1_DISPLAY_ON_CURSOR_OFF);  /* Turn Display ON, Cursor OFF */
  92              		.loc 1 73 0
  93 0074 4FF00C00 		mov	r0, #12
  94 0078 FFF7FEFF 		bl	LCD_Char_1_WriteControl
  74:.\Generated_Source\PSoC5/LCD_Char_1.c ****     LCD_Char_1_WriteControl(LCD_Char_1_RESET_CURSOR_POSITION);  /* Set Cursor to 0,0 */
  95              		.loc 1 74 0
  96 007c 4FF00300 		mov	r0, #3
  97 0080 FFF7FEFF 		bl	LCD_Char_1_WriteControl
ARM GAS  C:\Users\VICTOR~1\AppData\Local\Temp\ccRgJZPP.s 			page 4


  75:.\Generated_Source\PSoC5/LCD_Char_1.c ****     CyDelay(5u);
  98              		.loc 1 75 0
  99 0084 4FF00500 		mov	r0, #5
 100 0088 FFF7FEFF 		bl	CyDelay
  76:.\Generated_Source\PSoC5/LCD_Char_1.c **** 
  77:.\Generated_Source\PSoC5/LCD_Char_1.c ****     #if(LCD_Char_1_CUSTOM_CHAR_SET != LCD_Char_1_NONE)
  78:.\Generated_Source\PSoC5/LCD_Char_1.c ****         LCD_Char_1_LoadCustomFonts(LCD_Char_1_customFonts);
 101              		.loc 1 78 0
 102 008c 40F20000 		movw	r0, #:lower16:LCD_Char_1_customFonts
 103 0090 C0F20000 		movt	r0, #:upper16:LCD_Char_1_customFonts
 104 0094 FFF7FEFF 		bl	LCD_Char_1_LoadCustomFonts
  79:.\Generated_Source\PSoC5/LCD_Char_1.c ****     #endif /* LCD_Char_1_CUSTOM_CHAR_SET != LCD_Char_1_NONE */
  80:.\Generated_Source\PSoC5/LCD_Char_1.c **** }
 105              		.loc 1 80 0
 106 0098 80BD     		pop	{r7, pc}
 107              		.cfi_endproc
 108              	.LFE0:
 109              		.size	LCD_Char_1_Init, .-LCD_Char_1_Init
 110 009a 00BF     		.section	.text.LCD_Char_1_Enable,"ax",%progbits
 111              		.align	2
 112              		.global	LCD_Char_1_Enable
 113              		.thumb
 114              		.thumb_func
 115              		.type	LCD_Char_1_Enable, %function
 116              	LCD_Char_1_Enable:
 117              	.LFB1:
  81:.\Generated_Source\PSoC5/LCD_Char_1.c **** 
  82:.\Generated_Source\PSoC5/LCD_Char_1.c **** 
  83:.\Generated_Source\PSoC5/LCD_Char_1.c **** /*******************************************************************************
  84:.\Generated_Source\PSoC5/LCD_Char_1.c **** * Function Name: LCD_Char_1_Enable
  85:.\Generated_Source\PSoC5/LCD_Char_1.c **** ********************************************************************************
  86:.\Generated_Source\PSoC5/LCD_Char_1.c **** *
  87:.\Generated_Source\PSoC5/LCD_Char_1.c **** * Summary:
  88:.\Generated_Source\PSoC5/LCD_Char_1.c **** *  Turns on the display.
  89:.\Generated_Source\PSoC5/LCD_Char_1.c **** *
  90:.\Generated_Source\PSoC5/LCD_Char_1.c **** * Parameters:
  91:.\Generated_Source\PSoC5/LCD_Char_1.c **** *  None.
  92:.\Generated_Source\PSoC5/LCD_Char_1.c **** *
  93:.\Generated_Source\PSoC5/LCD_Char_1.c **** * Return:
  94:.\Generated_Source\PSoC5/LCD_Char_1.c **** *  None.
  95:.\Generated_Source\PSoC5/LCD_Char_1.c **** *
  96:.\Generated_Source\PSoC5/LCD_Char_1.c **** * Reentrant:
  97:.\Generated_Source\PSoC5/LCD_Char_1.c **** *  No.
  98:.\Generated_Source\PSoC5/LCD_Char_1.c **** *
  99:.\Generated_Source\PSoC5/LCD_Char_1.c **** * Theory:
 100:.\Generated_Source\PSoC5/LCD_Char_1.c **** *  This function has no effect when it is called the first time as
 101:.\Generated_Source\PSoC5/LCD_Char_1.c **** *  LCD_Char_1_Init() turns on the LCD.
 102:.\Generated_Source\PSoC5/LCD_Char_1.c **** *
 103:.\Generated_Source\PSoC5/LCD_Char_1.c **** *******************************************************************************/
 104:.\Generated_Source\PSoC5/LCD_Char_1.c **** void LCD_Char_1_Enable(void) 
 105:.\Generated_Source\PSoC5/LCD_Char_1.c **** {
 118              		.loc 1 105 0
 119              		.cfi_startproc
 120              		@ args = 0, pretend = 0, frame = 0
 121              		@ frame_needed = 1, uses_anonymous_args = 0
 122 0000 80B5     		push	{r7, lr}
 123              	.LCFI2:
ARM GAS  C:\Users\VICTOR~1\AppData\Local\Temp\ccRgJZPP.s 			page 5


 124              		.cfi_def_cfa_offset 8
 125              		.cfi_offset 7, -8
 126              		.cfi_offset 14, -4
 127 0002 00AF     		add	r7, sp, #0
 128              	.LCFI3:
 129              		.cfi_def_cfa_register 7
 106:.\Generated_Source\PSoC5/LCD_Char_1.c ****     LCD_Char_1_DisplayOn();
 130              		.loc 1 106 0
 131 0004 4FF00C00 		mov	r0, #12
 132 0008 FFF7FEFF 		bl	LCD_Char_1_WriteControl
 107:.\Generated_Source\PSoC5/LCD_Char_1.c ****     LCD_Char_1_enableState = 1u;
 133              		.loc 1 107 0
 134 000c 40F20003 		movw	r3, #:lower16:LCD_Char_1_enableState
 135 0010 C0F20003 		movt	r3, #:upper16:LCD_Char_1_enableState
 136 0014 4FF00102 		mov	r2, #1
 137 0018 1A70     		strb	r2, [r3, #0]
 108:.\Generated_Source\PSoC5/LCD_Char_1.c **** }
 138              		.loc 1 108 0
 139 001a 80BD     		pop	{r7, pc}
 140              		.cfi_endproc
 141              	.LFE1:
 142              		.size	LCD_Char_1_Enable, .-LCD_Char_1_Enable
 143              		.section	.text.LCD_Char_1_Start,"ax",%progbits
 144              		.align	2
 145              		.global	LCD_Char_1_Start
 146              		.thumb
 147              		.thumb_func
 148              		.type	LCD_Char_1_Start, %function
 149              	LCD_Char_1_Start:
 150              	.LFB2:
 109:.\Generated_Source\PSoC5/LCD_Char_1.c **** 
 110:.\Generated_Source\PSoC5/LCD_Char_1.c **** 
 111:.\Generated_Source\PSoC5/LCD_Char_1.c **** /*******************************************************************************
 112:.\Generated_Source\PSoC5/LCD_Char_1.c **** * Function Name: LCD_Char_1_Start
 113:.\Generated_Source\PSoC5/LCD_Char_1.c **** ********************************************************************************
 114:.\Generated_Source\PSoC5/LCD_Char_1.c **** *
 115:.\Generated_Source\PSoC5/LCD_Char_1.c **** * Summary:
 116:.\Generated_Source\PSoC5/LCD_Char_1.c **** *  Perform initialization required for the components normal work.
 117:.\Generated_Source\PSoC5/LCD_Char_1.c **** *  This function initializes the LCD hardware module as follows:
 118:.\Generated_Source\PSoC5/LCD_Char_1.c **** *        Enables 4-bit interface
 119:.\Generated_Source\PSoC5/LCD_Char_1.c **** *        Clears the display
 120:.\Generated_Source\PSoC5/LCD_Char_1.c **** *        Enables auto cursor increment
 121:.\Generated_Source\PSoC5/LCD_Char_1.c **** *        Resets the cursor to start position
 122:.\Generated_Source\PSoC5/LCD_Char_1.c **** *  Also, it loads a custom character set to the LCD if it was defined in the customizer.
 123:.\Generated_Source\PSoC5/LCD_Char_1.c **** *  If it was not the first call in this project, then it just turns on the
 124:.\Generated_Source\PSoC5/LCD_Char_1.c **** *  display
 125:.\Generated_Source\PSoC5/LCD_Char_1.c **** *
 126:.\Generated_Source\PSoC5/LCD_Char_1.c **** *
 127:.\Generated_Source\PSoC5/LCD_Char_1.c **** * Parameters:
 128:.\Generated_Source\PSoC5/LCD_Char_1.c **** *  LCD_Char_1_initVar - global variable.
 129:.\Generated_Source\PSoC5/LCD_Char_1.c **** *
 130:.\Generated_Source\PSoC5/LCD_Char_1.c **** * Return:
 131:.\Generated_Source\PSoC5/LCD_Char_1.c **** *  LCD_Char_1_initVar - global variable.
 132:.\Generated_Source\PSoC5/LCD_Char_1.c **** *
 133:.\Generated_Source\PSoC5/LCD_Char_1.c **** * Reentrant:
 134:.\Generated_Source\PSoC5/LCD_Char_1.c **** *  No.
 135:.\Generated_Source\PSoC5/LCD_Char_1.c **** *
ARM GAS  C:\Users\VICTOR~1\AppData\Local\Temp\ccRgJZPP.s 			page 6


 136:.\Generated_Source\PSoC5/LCD_Char_1.c **** *******************************************************************************/
 137:.\Generated_Source\PSoC5/LCD_Char_1.c **** void LCD_Char_1_Start(void) 
 138:.\Generated_Source\PSoC5/LCD_Char_1.c **** {
 151              		.loc 1 138 0
 152              		.cfi_startproc
 153              		@ args = 0, pretend = 0, frame = 0
 154              		@ frame_needed = 1, uses_anonymous_args = 0
 155 0000 80B5     		push	{r7, lr}
 156              	.LCFI4:
 157              		.cfi_def_cfa_offset 8
 158              		.cfi_offset 7, -8
 159              		.cfi_offset 14, -4
 160 0002 00AF     		add	r7, sp, #0
 161              	.LCFI5:
 162              		.cfi_def_cfa_register 7
 139:.\Generated_Source\PSoC5/LCD_Char_1.c ****     /* If not initialized, perform initialization */
 140:.\Generated_Source\PSoC5/LCD_Char_1.c ****     if(LCD_Char_1_initVar == 0u)
 163              		.loc 1 140 0
 164 0004 40F20003 		movw	r3, #:lower16:LCD_Char_1_initVar
 165 0008 C0F20003 		movt	r3, #:upper16:LCD_Char_1_initVar
 166 000c 1B78     		ldrb	r3, [r3, #0]	@ zero_extendqisi2
 167 000e 002B     		cmp	r3, #0
 168 0010 08D1     		bne	.L4
 141:.\Generated_Source\PSoC5/LCD_Char_1.c ****     {
 142:.\Generated_Source\PSoC5/LCD_Char_1.c ****         LCD_Char_1_Init();
 169              		.loc 1 142 0
 170 0012 FFF7FEFF 		bl	LCD_Char_1_Init
 143:.\Generated_Source\PSoC5/LCD_Char_1.c ****         LCD_Char_1_initVar = 1u;
 171              		.loc 1 143 0
 172 0016 40F20003 		movw	r3, #:lower16:LCD_Char_1_initVar
 173 001a C0F20003 		movt	r3, #:upper16:LCD_Char_1_initVar
 174 001e 4FF00102 		mov	r2, #1
 175 0022 1A70     		strb	r2, [r3, #0]
 176              	.L4:
 144:.\Generated_Source\PSoC5/LCD_Char_1.c ****     }
 145:.\Generated_Source\PSoC5/LCD_Char_1.c **** 
 146:.\Generated_Source\PSoC5/LCD_Char_1.c ****     /* Turn on the LCD */
 147:.\Generated_Source\PSoC5/LCD_Char_1.c ****     LCD_Char_1_Enable();
 177              		.loc 1 147 0
 178 0024 FFF7FEFF 		bl	LCD_Char_1_Enable
 148:.\Generated_Source\PSoC5/LCD_Char_1.c **** }
 179              		.loc 1 148 0
 180 0028 80BD     		pop	{r7, pc}
 181              		.cfi_endproc
 182              	.LFE2:
 183              		.size	LCD_Char_1_Start, .-LCD_Char_1_Start
 184 002a 00BF     		.section	.text.LCD_Char_1_Stop,"ax",%progbits
 185              		.align	2
 186              		.global	LCD_Char_1_Stop
 187              		.thumb
 188              		.thumb_func
 189              		.type	LCD_Char_1_Stop, %function
 190              	LCD_Char_1_Stop:
 191              	.LFB3:
 149:.\Generated_Source\PSoC5/LCD_Char_1.c **** 
 150:.\Generated_Source\PSoC5/LCD_Char_1.c **** 
 151:.\Generated_Source\PSoC5/LCD_Char_1.c **** /*******************************************************************************
ARM GAS  C:\Users\VICTOR~1\AppData\Local\Temp\ccRgJZPP.s 			page 7


 152:.\Generated_Source\PSoC5/LCD_Char_1.c **** * Function Name: LCD_Char_1_Stop
 153:.\Generated_Source\PSoC5/LCD_Char_1.c **** ********************************************************************************
 154:.\Generated_Source\PSoC5/LCD_Char_1.c **** *
 155:.\Generated_Source\PSoC5/LCD_Char_1.c **** * Summary:
 156:.\Generated_Source\PSoC5/LCD_Char_1.c **** *  Turns off the display of the LCD screen.
 157:.\Generated_Source\PSoC5/LCD_Char_1.c **** *
 158:.\Generated_Source\PSoC5/LCD_Char_1.c **** * Parameters:
 159:.\Generated_Source\PSoC5/LCD_Char_1.c **** *  None.
 160:.\Generated_Source\PSoC5/LCD_Char_1.c **** *
 161:.\Generated_Source\PSoC5/LCD_Char_1.c **** * Return:
 162:.\Generated_Source\PSoC5/LCD_Char_1.c **** *  None.
 163:.\Generated_Source\PSoC5/LCD_Char_1.c **** *
 164:.\Generated_Source\PSoC5/LCD_Char_1.c **** * Reentrant:
 165:.\Generated_Source\PSoC5/LCD_Char_1.c **** *  No.
 166:.\Generated_Source\PSoC5/LCD_Char_1.c **** *
 167:.\Generated_Source\PSoC5/LCD_Char_1.c **** *******************************************************************************/
 168:.\Generated_Source\PSoC5/LCD_Char_1.c **** void LCD_Char_1_Stop(void) 
 169:.\Generated_Source\PSoC5/LCD_Char_1.c **** {
 192              		.loc 1 169 0
 193              		.cfi_startproc
 194              		@ args = 0, pretend = 0, frame = 0
 195              		@ frame_needed = 1, uses_anonymous_args = 0
 196 0000 80B5     		push	{r7, lr}
 197              	.LCFI6:
 198              		.cfi_def_cfa_offset 8
 199              		.cfi_offset 7, -8
 200              		.cfi_offset 14, -4
 201 0002 00AF     		add	r7, sp, #0
 202              	.LCFI7:
 203              		.cfi_def_cfa_register 7
 170:.\Generated_Source\PSoC5/LCD_Char_1.c ****     /* Calls LCD Off Macro */
 171:.\Generated_Source\PSoC5/LCD_Char_1.c ****     LCD_Char_1_DisplayOff();
 204              		.loc 1 171 0
 205 0004 4FF00800 		mov	r0, #8
 206 0008 FFF7FEFF 		bl	LCD_Char_1_WriteControl
 172:.\Generated_Source\PSoC5/LCD_Char_1.c ****     LCD_Char_1_enableState = 0u;
 207              		.loc 1 172 0
 208 000c 40F20003 		movw	r3, #:lower16:LCD_Char_1_enableState
 209 0010 C0F20003 		movt	r3, #:upper16:LCD_Char_1_enableState
 210 0014 4FF00002 		mov	r2, #0
 211 0018 1A70     		strb	r2, [r3, #0]
 173:.\Generated_Source\PSoC5/LCD_Char_1.c **** }
 212              		.loc 1 173 0
 213 001a 80BD     		pop	{r7, pc}
 214              		.cfi_endproc
 215              	.LFE3:
 216              		.size	LCD_Char_1_Stop, .-LCD_Char_1_Stop
 217              		.section	.text.LCD_Char_1_Position,"ax",%progbits
 218              		.align	2
 219              		.global	LCD_Char_1_Position
 220              		.thumb
 221              		.thumb_func
 222              		.type	LCD_Char_1_Position, %function
 223              	LCD_Char_1_Position:
 224              	.LFB4:
 174:.\Generated_Source\PSoC5/LCD_Char_1.c **** 
 175:.\Generated_Source\PSoC5/LCD_Char_1.c **** 
ARM GAS  C:\Users\VICTOR~1\AppData\Local\Temp\ccRgJZPP.s 			page 8


 176:.\Generated_Source\PSoC5/LCD_Char_1.c **** /*******************************************************************************
 177:.\Generated_Source\PSoC5/LCD_Char_1.c **** *  Function Name: LCD_Char_1_Position
 178:.\Generated_Source\PSoC5/LCD_Char_1.c **** ********************************************************************************
 179:.\Generated_Source\PSoC5/LCD_Char_1.c **** *
 180:.\Generated_Source\PSoC5/LCD_Char_1.c **** * Summary:
 181:.\Generated_Source\PSoC5/LCD_Char_1.c **** *  Moves the active cursor location to a point specified by the input arguments
 182:.\Generated_Source\PSoC5/LCD_Char_1.c **** *
 183:.\Generated_Source\PSoC5/LCD_Char_1.c **** * Parameters:
 184:.\Generated_Source\PSoC5/LCD_Char_1.c **** *  row:    Specific row of LCD module to be written
 185:.\Generated_Source\PSoC5/LCD_Char_1.c **** *  column: Column of LCD module to be written
 186:.\Generated_Source\PSoC5/LCD_Char_1.c **** *
 187:.\Generated_Source\PSoC5/LCD_Char_1.c **** * Return:
 188:.\Generated_Source\PSoC5/LCD_Char_1.c **** *  None.
 189:.\Generated_Source\PSoC5/LCD_Char_1.c **** *
 190:.\Generated_Source\PSoC5/LCD_Char_1.c **** * Note:
 191:.\Generated_Source\PSoC5/LCD_Char_1.c **** *  This only applies for LCD displays that use the 2X40 address mode.
 192:.\Generated_Source\PSoC5/LCD_Char_1.c **** *  In this case Row 2 starts with 0x28 offset from Row 1.
 193:.\Generated_Source\PSoC5/LCD_Char_1.c **** *  When there are more than 2 rows, each row must be fewer than 20 characters.
 194:.\Generated_Source\PSoC5/LCD_Char_1.c **** *
 195:.\Generated_Source\PSoC5/LCD_Char_1.c **** *******************************************************************************/
 196:.\Generated_Source\PSoC5/LCD_Char_1.c **** void LCD_Char_1_Position(uint8 row, uint8 column) 
 197:.\Generated_Source\PSoC5/LCD_Char_1.c **** {
 225              		.loc 1 197 0
 226              		.cfi_startproc
 227              		@ args = 0, pretend = 0, frame = 8
 228              		@ frame_needed = 1, uses_anonymous_args = 0
 229 0000 80B5     		push	{r7, lr}
 230              	.LCFI8:
 231              		.cfi_def_cfa_offset 8
 232              		.cfi_offset 7, -8
 233              		.cfi_offset 14, -4
 234 0002 82B0     		sub	sp, sp, #8
 235              	.LCFI9:
 236              		.cfi_def_cfa_offset 16
 237 0004 00AF     		add	r7, sp, #0
 238              	.LCFI10:
 239              		.cfi_def_cfa_register 7
 240 0006 0246     		mov	r2, r0
 241 0008 0B46     		mov	r3, r1
 242 000a FA71     		strb	r2, [r7, #7]
 243 000c BB71     		strb	r3, [r7, #6]
 198:.\Generated_Source\PSoC5/LCD_Char_1.c ****     switch (row)
 244              		.loc 1 198 0
 245 000e FB79     		ldrb	r3, [r7, #7]	@ zero_extendqisi2
 246 0010 032B     		cmp	r3, #3
 247 0012 2BD8     		bhi	.L14
 248 0014 01A2     		adr	r2, .L12
 249 0016 52F823F0 		ldr	pc, [r2, r3, lsl #2]
 250 001a 00BF     		.align	2
 251              	.L12:
 252 001c 2D000000 		.word	.L8+1
 253 0020 3D000000 		.word	.L9+1
 254 0024 4D000000 		.word	.L10+1
 255 0028 5D000000 		.word	.L11+1
 256              	.L8:
 199:.\Generated_Source\PSoC5/LCD_Char_1.c ****     {
 200:.\Generated_Source\PSoC5/LCD_Char_1.c ****         case (uint8)0:
ARM GAS  C:\Users\VICTOR~1\AppData\Local\Temp\ccRgJZPP.s 			page 9


 201:.\Generated_Source\PSoC5/LCD_Char_1.c ****             LCD_Char_1_WriteControl(LCD_Char_1_ROW_0_START + column);
 257              		.loc 1 201 0
 258 002c BB79     		ldrb	r3, [r7, #6]
 259 002e A3F18003 		sub	r3, r3, #128
 260 0032 DBB2     		uxtb	r3, r3
 261 0034 1846     		mov	r0, r3
 262 0036 FFF7FEFF 		bl	LCD_Char_1_WriteControl
 202:.\Generated_Source\PSoC5/LCD_Char_1.c ****             break;
 263              		.loc 1 202 0
 264 003a 18E0     		b	.L6
 265              	.L9:
 203:.\Generated_Source\PSoC5/LCD_Char_1.c ****         case (uint8) 1:
 204:.\Generated_Source\PSoC5/LCD_Char_1.c ****             LCD_Char_1_WriteControl(LCD_Char_1_ROW_1_START + column);
 266              		.loc 1 204 0
 267 003c BB79     		ldrb	r3, [r7, #6]
 268 003e A3F14003 		sub	r3, r3, #64
 269 0042 DBB2     		uxtb	r3, r3
 270 0044 1846     		mov	r0, r3
 271 0046 FFF7FEFF 		bl	LCD_Char_1_WriteControl
 205:.\Generated_Source\PSoC5/LCD_Char_1.c ****             break;
 272              		.loc 1 205 0
 273 004a 10E0     		b	.L6
 274              	.L10:
 206:.\Generated_Source\PSoC5/LCD_Char_1.c ****         case (uint8) 2:
 207:.\Generated_Source\PSoC5/LCD_Char_1.c ****             LCD_Char_1_WriteControl(LCD_Char_1_ROW_2_START + column);
 275              		.loc 1 207 0
 276 004c BB79     		ldrb	r3, [r7, #6]
 277 004e A3F16C03 		sub	r3, r3, #108
 278 0052 DBB2     		uxtb	r3, r3
 279 0054 1846     		mov	r0, r3
 280 0056 FFF7FEFF 		bl	LCD_Char_1_WriteControl
 208:.\Generated_Source\PSoC5/LCD_Char_1.c ****             break;
 281              		.loc 1 208 0
 282 005a 08E0     		b	.L6
 283              	.L11:
 209:.\Generated_Source\PSoC5/LCD_Char_1.c ****         case (uint8) 3:
 210:.\Generated_Source\PSoC5/LCD_Char_1.c ****             LCD_Char_1_WriteControl(LCD_Char_1_ROW_3_START + column);
 284              		.loc 1 210 0
 285 005c BB79     		ldrb	r3, [r7, #6]
 286 005e A3F12C03 		sub	r3, r3, #44
 287 0062 DBB2     		uxtb	r3, r3
 288 0064 1846     		mov	r0, r3
 289 0066 FFF7FEFF 		bl	LCD_Char_1_WriteControl
 211:.\Generated_Source\PSoC5/LCD_Char_1.c ****             break;
 290              		.loc 1 211 0
 291 006a 00E0     		b	.L6
 292              	.L14:
 212:.\Generated_Source\PSoC5/LCD_Char_1.c ****         default:
 213:.\Generated_Source\PSoC5/LCD_Char_1.c ****             /* if default case is hit, invalid row argument was passed.*/
 214:.\Generated_Source\PSoC5/LCD_Char_1.c ****             break;
 293              		.loc 1 214 0
 294 006c 00BF     		nop
 295              	.L6:
 215:.\Generated_Source\PSoC5/LCD_Char_1.c ****     }
 216:.\Generated_Source\PSoC5/LCD_Char_1.c **** }
 296              		.loc 1 216 0
 297 006e 07F10807 		add	r7, r7, #8
ARM GAS  C:\Users\VICTOR~1\AppData\Local\Temp\ccRgJZPP.s 			page 10


 298 0072 BD46     		mov	sp, r7
 299 0074 80BD     		pop	{r7, pc}
 300              		.cfi_endproc
 301              	.LFE4:
 302              		.size	LCD_Char_1_Position, .-LCD_Char_1_Position
 303 0076 00BF     		.section	.text.LCD_Char_1_PrintString,"ax",%progbits
 304              		.align	2
 305              		.global	LCD_Char_1_PrintString
 306              		.thumb
 307              		.thumb_func
 308              		.type	LCD_Char_1_PrintString, %function
 309              	LCD_Char_1_PrintString:
 310              	.LFB5:
 217:.\Generated_Source\PSoC5/LCD_Char_1.c **** 
 218:.\Generated_Source\PSoC5/LCD_Char_1.c **** 
 219:.\Generated_Source\PSoC5/LCD_Char_1.c **** /*******************************************************************************
 220:.\Generated_Source\PSoC5/LCD_Char_1.c **** * Function Name: LCD_Char_1_PrintString
 221:.\Generated_Source\PSoC5/LCD_Char_1.c **** ********************************************************************************
 222:.\Generated_Source\PSoC5/LCD_Char_1.c **** *
 223:.\Generated_Source\PSoC5/LCD_Char_1.c **** * Summary:
 224:.\Generated_Source\PSoC5/LCD_Char_1.c **** *  Writes a zero terminated string to the LCD.
 225:.\Generated_Source\PSoC5/LCD_Char_1.c **** *
 226:.\Generated_Source\PSoC5/LCD_Char_1.c **** * Parameters:
 227:.\Generated_Source\PSoC5/LCD_Char_1.c **** *  string: Pointer to head of char8 array to be written to the LCD module
 228:.\Generated_Source\PSoC5/LCD_Char_1.c **** *
 229:.\Generated_Source\PSoC5/LCD_Char_1.c **** * Return:
 230:.\Generated_Source\PSoC5/LCD_Char_1.c **** *  None.
 231:.\Generated_Source\PSoC5/LCD_Char_1.c **** *
 232:.\Generated_Source\PSoC5/LCD_Char_1.c **** *******************************************************************************/
 233:.\Generated_Source\PSoC5/LCD_Char_1.c **** void LCD_Char_1_PrintString(char8 const string[]) 
 234:.\Generated_Source\PSoC5/LCD_Char_1.c **** {
 311              		.loc 1 234 0
 312              		.cfi_startproc
 313              		@ args = 0, pretend = 0, frame = 16
 314              		@ frame_needed = 1, uses_anonymous_args = 0
 315 0000 80B5     		push	{r7, lr}
 316              	.LCFI11:
 317              		.cfi_def_cfa_offset 8
 318              		.cfi_offset 7, -8
 319              		.cfi_offset 14, -4
 320 0002 84B0     		sub	sp, sp, #16
 321              	.LCFI12:
 322              		.cfi_def_cfa_offset 24
 323 0004 00AF     		add	r7, sp, #0
 324              	.LCFI13:
 325              		.cfi_def_cfa_register 7
 326 0006 7860     		str	r0, [r7, #4]
 235:.\Generated_Source\PSoC5/LCD_Char_1.c ****     uint8 indexU8 = 1u;
 327              		.loc 1 235 0
 328 0008 4FF00103 		mov	r3, #1
 329 000c FB73     		strb	r3, [r7, #15]
 236:.\Generated_Source\PSoC5/LCD_Char_1.c ****     char8 current = *string;
 330              		.loc 1 236 0
 331 000e 7B68     		ldr	r3, [r7, #4]
 332 0010 1B78     		ldrb	r3, [r3, #0]
 333 0012 BB73     		strb	r3, [r7, #14]
 237:.\Generated_Source\PSoC5/LCD_Char_1.c **** 
ARM GAS  C:\Users\VICTOR~1\AppData\Local\Temp\ccRgJZPP.s 			page 11


 238:.\Generated_Source\PSoC5/LCD_Char_1.c ****     /* Until null is reached, print next character */
 239:.\Generated_Source\PSoC5/LCD_Char_1.c ****     while((char8) '\0' != current)
 334              		.loc 1 239 0
 335 0014 0CE0     		b	.L16
 336              	.L17:
 240:.\Generated_Source\PSoC5/LCD_Char_1.c ****     {
 241:.\Generated_Source\PSoC5/LCD_Char_1.c ****         LCD_Char_1_WriteData((uint8)current);
 337              		.loc 1 241 0
 338 0016 BB7B     		ldrb	r3, [r7, #14]	@ zero_extendqisi2
 339 0018 1846     		mov	r0, r3
 340 001a FFF7FEFF 		bl	LCD_Char_1_WriteData
 242:.\Generated_Source\PSoC5/LCD_Char_1.c ****         current = string[indexU8];
 341              		.loc 1 242 0
 342 001e FB7B     		ldrb	r3, [r7, #15]	@ zero_extendqisi2
 343 0020 7A68     		ldr	r2, [r7, #4]
 344 0022 D318     		adds	r3, r2, r3
 345 0024 1B78     		ldrb	r3, [r3, #0]
 346 0026 BB73     		strb	r3, [r7, #14]
 243:.\Generated_Source\PSoC5/LCD_Char_1.c ****         indexU8++;
 347              		.loc 1 243 0
 348 0028 FB7B     		ldrb	r3, [r7, #15]
 349 002a 03F10103 		add	r3, r3, #1
 350 002e FB73     		strb	r3, [r7, #15]
 351              	.L16:
 239:.\Generated_Source\PSoC5/LCD_Char_1.c ****     while((char8) '\0' != current)
 352              		.loc 1 239 0 discriminator 1
 353 0030 BB7B     		ldrb	r3, [r7, #14]	@ zero_extendqisi2
 354 0032 002B     		cmp	r3, #0
 355 0034 EFD1     		bne	.L17
 244:.\Generated_Source\PSoC5/LCD_Char_1.c ****     }
 245:.\Generated_Source\PSoC5/LCD_Char_1.c **** }
 356              		.loc 1 245 0
 357 0036 07F11007 		add	r7, r7, #16
 358 003a BD46     		mov	sp, r7
 359 003c 80BD     		pop	{r7, pc}
 360              		.cfi_endproc
 361              	.LFE5:
 362              		.size	LCD_Char_1_PrintString, .-LCD_Char_1_PrintString
 363 003e 00BF     		.section	.text.LCD_Char_1_PutChar,"ax",%progbits
 364              		.align	2
 365              		.global	LCD_Char_1_PutChar
 366              		.thumb
 367              		.thumb_func
 368              		.type	LCD_Char_1_PutChar, %function
 369              	LCD_Char_1_PutChar:
 370              	.LFB6:
 246:.\Generated_Source\PSoC5/LCD_Char_1.c **** 
 247:.\Generated_Source\PSoC5/LCD_Char_1.c **** 
 248:.\Generated_Source\PSoC5/LCD_Char_1.c **** /*******************************************************************************
 249:.\Generated_Source\PSoC5/LCD_Char_1.c **** *  Function Name: LCD_Char_1_PutChar
 250:.\Generated_Source\PSoC5/LCD_Char_1.c **** ********************************************************************************
 251:.\Generated_Source\PSoC5/LCD_Char_1.c **** *
 252:.\Generated_Source\PSoC5/LCD_Char_1.c **** * Summary:
 253:.\Generated_Source\PSoC5/LCD_Char_1.c **** *  Writes a single character to the current cursor position of the LCD module.
 254:.\Generated_Source\PSoC5/LCD_Char_1.c **** *  Custom character names (_CUSTOM_0 through
 255:.\Generated_Source\PSoC5/LCD_Char_1.c **** *  _CUSTOM_7) are acceptable as inputs.
 256:.\Generated_Source\PSoC5/LCD_Char_1.c **** *
ARM GAS  C:\Users\VICTOR~1\AppData\Local\Temp\ccRgJZPP.s 			page 12


 257:.\Generated_Source\PSoC5/LCD_Char_1.c **** * Parameters:
 258:.\Generated_Source\PSoC5/LCD_Char_1.c **** *  character: Character to be written to LCD
 259:.\Generated_Source\PSoC5/LCD_Char_1.c **** *
 260:.\Generated_Source\PSoC5/LCD_Char_1.c **** * Return:
 261:.\Generated_Source\PSoC5/LCD_Char_1.c **** *  None.
 262:.\Generated_Source\PSoC5/LCD_Char_1.c **** *
 263:.\Generated_Source\PSoC5/LCD_Char_1.c **** *******************************************************************************/
 264:.\Generated_Source\PSoC5/LCD_Char_1.c **** void LCD_Char_1_PutChar(char8 character) 
 265:.\Generated_Source\PSoC5/LCD_Char_1.c **** {
 371              		.loc 1 265 0
 372              		.cfi_startproc
 373              		@ args = 0, pretend = 0, frame = 8
 374              		@ frame_needed = 1, uses_anonymous_args = 0
 375 0000 80B5     		push	{r7, lr}
 376              	.LCFI14:
 377              		.cfi_def_cfa_offset 8
 378              		.cfi_offset 7, -8
 379              		.cfi_offset 14, -4
 380 0002 82B0     		sub	sp, sp, #8
 381              	.LCFI15:
 382              		.cfi_def_cfa_offset 16
 383 0004 00AF     		add	r7, sp, #0
 384              	.LCFI16:
 385              		.cfi_def_cfa_register 7
 386 0006 0346     		mov	r3, r0
 387 0008 FB71     		strb	r3, [r7, #7]
 266:.\Generated_Source\PSoC5/LCD_Char_1.c ****     LCD_Char_1_WriteData((uint8)character);
 388              		.loc 1 266 0
 389 000a FB79     		ldrb	r3, [r7, #7]	@ zero_extendqisi2
 390 000c 1846     		mov	r0, r3
 391 000e FFF7FEFF 		bl	LCD_Char_1_WriteData
 267:.\Generated_Source\PSoC5/LCD_Char_1.c **** }
 392              		.loc 1 267 0
 393 0012 07F10807 		add	r7, r7, #8
 394 0016 BD46     		mov	sp, r7
 395 0018 80BD     		pop	{r7, pc}
 396              		.cfi_endproc
 397              	.LFE6:
 398              		.size	LCD_Char_1_PutChar, .-LCD_Char_1_PutChar
 399 001a 00BF     		.section	.text.LCD_Char_1_WriteData,"ax",%progbits
 400              		.align	2
 401              		.global	LCD_Char_1_WriteData
 402              		.thumb
 403              		.thumb_func
 404              		.type	LCD_Char_1_WriteData, %function
 405              	LCD_Char_1_WriteData:
 406              	.LFB7:
 268:.\Generated_Source\PSoC5/LCD_Char_1.c **** 
 269:.\Generated_Source\PSoC5/LCD_Char_1.c **** 
 270:.\Generated_Source\PSoC5/LCD_Char_1.c **** /*******************************************************************************
 271:.\Generated_Source\PSoC5/LCD_Char_1.c **** *  Function Name: LCD_Char_1_WriteData
 272:.\Generated_Source\PSoC5/LCD_Char_1.c **** ********************************************************************************
 273:.\Generated_Source\PSoC5/LCD_Char_1.c **** *
 274:.\Generated_Source\PSoC5/LCD_Char_1.c **** * Summary:
 275:.\Generated_Source\PSoC5/LCD_Char_1.c **** *  Writes a data byte to the LCD module's Data Display RAM.
 276:.\Generated_Source\PSoC5/LCD_Char_1.c **** *
 277:.\Generated_Source\PSoC5/LCD_Char_1.c **** * Parameters:
ARM GAS  C:\Users\VICTOR~1\AppData\Local\Temp\ccRgJZPP.s 			page 13


 278:.\Generated_Source\PSoC5/LCD_Char_1.c **** *  dByte: Byte to be written to the LCD module
 279:.\Generated_Source\PSoC5/LCD_Char_1.c **** *
 280:.\Generated_Source\PSoC5/LCD_Char_1.c **** * Return:
 281:.\Generated_Source\PSoC5/LCD_Char_1.c **** *  None.
 282:.\Generated_Source\PSoC5/LCD_Char_1.c **** *
 283:.\Generated_Source\PSoC5/LCD_Char_1.c **** *******************************************************************************/
 284:.\Generated_Source\PSoC5/LCD_Char_1.c **** void LCD_Char_1_WriteData(uint8 dByte) 
 285:.\Generated_Source\PSoC5/LCD_Char_1.c **** {
 407              		.loc 1 285 0
 408              		.cfi_startproc
 409              		@ args = 0, pretend = 0, frame = 16
 410              		@ frame_needed = 1, uses_anonymous_args = 0
 411 0000 80B5     		push	{r7, lr}
 412              	.LCFI17:
 413              		.cfi_def_cfa_offset 8
 414              		.cfi_offset 7, -8
 415              		.cfi_offset 14, -4
 416 0002 84B0     		sub	sp, sp, #16
 417              	.LCFI18:
 418              		.cfi_def_cfa_offset 24
 419 0004 00AF     		add	r7, sp, #0
 420              	.LCFI19:
 421              		.cfi_def_cfa_register 7
 422 0006 0346     		mov	r3, r0
 423 0008 FB71     		strb	r3, [r7, #7]
 286:.\Generated_Source\PSoC5/LCD_Char_1.c ****     uint8 nibble;
 287:.\Generated_Source\PSoC5/LCD_Char_1.c **** 
 288:.\Generated_Source\PSoC5/LCD_Char_1.c ****     LCD_Char_1_IsReady();
 424              		.loc 1 288 0
 425 000a FFF7FEFF 		bl	LCD_Char_1_IsReady
 289:.\Generated_Source\PSoC5/LCD_Char_1.c ****     nibble = dByte >> LCD_Char_1_NIBBLE_SHIFT;
 426              		.loc 1 289 0
 427 000e FB79     		ldrb	r3, [r7, #7]	@ zero_extendqisi2
 428 0010 4FEA1313 		lsr	r3, r3, #4
 429 0014 FB73     		strb	r3, [r7, #15]
 290:.\Generated_Source\PSoC5/LCD_Char_1.c **** 
 291:.\Generated_Source\PSoC5/LCD_Char_1.c ****     /* Write high nibble */
 292:.\Generated_Source\PSoC5/LCD_Char_1.c ****     LCD_Char_1_WrDatNib(nibble);
 430              		.loc 1 292 0
 431 0016 FB7B     		ldrb	r3, [r7, #15]	@ zero_extendqisi2
 432 0018 1846     		mov	r0, r3
 433 001a FFF7FEFF 		bl	LCD_Char_1_WrDatNib
 293:.\Generated_Source\PSoC5/LCD_Char_1.c **** 
 294:.\Generated_Source\PSoC5/LCD_Char_1.c ****     nibble = dByte & LCD_Char_1_NIBBLE_MASK;
 434              		.loc 1 294 0
 435 001e FB79     		ldrb	r3, [r7, #7]
 436 0020 03F00F03 		and	r3, r3, #15
 437 0024 FB73     		strb	r3, [r7, #15]
 295:.\Generated_Source\PSoC5/LCD_Char_1.c ****     /* Write low nibble */
 296:.\Generated_Source\PSoC5/LCD_Char_1.c ****     LCD_Char_1_WrDatNib(nibble);
 438              		.loc 1 296 0
 439 0026 FB7B     		ldrb	r3, [r7, #15]	@ zero_extendqisi2
 440 0028 1846     		mov	r0, r3
 441 002a FFF7FEFF 		bl	LCD_Char_1_WrDatNib
 297:.\Generated_Source\PSoC5/LCD_Char_1.c **** }
 442              		.loc 1 297 0
 443 002e 07F11007 		add	r7, r7, #16
ARM GAS  C:\Users\VICTOR~1\AppData\Local\Temp\ccRgJZPP.s 			page 14


 444 0032 BD46     		mov	sp, r7
 445 0034 80BD     		pop	{r7, pc}
 446              		.cfi_endproc
 447              	.LFE7:
 448              		.size	LCD_Char_1_WriteData, .-LCD_Char_1_WriteData
 449 0036 00BF     		.section	.text.LCD_Char_1_WriteControl,"ax",%progbits
 450              		.align	2
 451              		.global	LCD_Char_1_WriteControl
 452              		.thumb
 453              		.thumb_func
 454              		.type	LCD_Char_1_WriteControl, %function
 455              	LCD_Char_1_WriteControl:
 456              	.LFB8:
 298:.\Generated_Source\PSoC5/LCD_Char_1.c **** 
 299:.\Generated_Source\PSoC5/LCD_Char_1.c **** 
 300:.\Generated_Source\PSoC5/LCD_Char_1.c **** /*******************************************************************************
 301:.\Generated_Source\PSoC5/LCD_Char_1.c **** *  Function Name: LCD_Char_1_WriteControl
 302:.\Generated_Source\PSoC5/LCD_Char_1.c **** ********************************************************************************
 303:.\Generated_Source\PSoC5/LCD_Char_1.c **** *
 304:.\Generated_Source\PSoC5/LCD_Char_1.c **** * Summary:
 305:.\Generated_Source\PSoC5/LCD_Char_1.c **** *  Writes a command byte to the LCD module.
 306:.\Generated_Source\PSoC5/LCD_Char_1.c **** *
 307:.\Generated_Source\PSoC5/LCD_Char_1.c **** * Parameters:
 308:.\Generated_Source\PSoC5/LCD_Char_1.c **** *  cByte:  The byte to be written to theLCD module
 309:.\Generated_Source\PSoC5/LCD_Char_1.c **** * 
 310:.\Generated_Source\PSoC5/LCD_Char_1.c **** * Return:
 311:.\Generated_Source\PSoC5/LCD_Char_1.c **** *  None.
 312:.\Generated_Source\PSoC5/LCD_Char_1.c **** *
 313:.\Generated_Source\PSoC5/LCD_Char_1.c **** *******************************************************************************/
 314:.\Generated_Source\PSoC5/LCD_Char_1.c **** void LCD_Char_1_WriteControl(uint8 cByte) 
 315:.\Generated_Source\PSoC5/LCD_Char_1.c **** {
 457              		.loc 1 315 0
 458              		.cfi_startproc
 459              		@ args = 0, pretend = 0, frame = 16
 460              		@ frame_needed = 1, uses_anonymous_args = 0
 461 0000 80B5     		push	{r7, lr}
 462              	.LCFI20:
 463              		.cfi_def_cfa_offset 8
 464              		.cfi_offset 7, -8
 465              		.cfi_offset 14, -4
 466 0002 84B0     		sub	sp, sp, #16
 467              	.LCFI21:
 468              		.cfi_def_cfa_offset 24
 469 0004 00AF     		add	r7, sp, #0
 470              	.LCFI22:
 471              		.cfi_def_cfa_register 7
 472 0006 0346     		mov	r3, r0
 473 0008 FB71     		strb	r3, [r7, #7]
 316:.\Generated_Source\PSoC5/LCD_Char_1.c ****     uint8 nibble;
 317:.\Generated_Source\PSoC5/LCD_Char_1.c **** 
 318:.\Generated_Source\PSoC5/LCD_Char_1.c ****     LCD_Char_1_IsReady();
 474              		.loc 1 318 0
 475 000a FFF7FEFF 		bl	LCD_Char_1_IsReady
 319:.\Generated_Source\PSoC5/LCD_Char_1.c **** 
 320:.\Generated_Source\PSoC5/LCD_Char_1.c ****     nibble = cByte >> LCD_Char_1_NIBBLE_SHIFT;
 476              		.loc 1 320 0
 477 000e FB79     		ldrb	r3, [r7, #7]	@ zero_extendqisi2
ARM GAS  C:\Users\VICTOR~1\AppData\Local\Temp\ccRgJZPP.s 			page 15


 478 0010 4FEA1313 		lsr	r3, r3, #4
 479 0014 FB73     		strb	r3, [r7, #15]
 321:.\Generated_Source\PSoC5/LCD_Char_1.c ****     
 322:.\Generated_Source\PSoC5/LCD_Char_1.c ****     /* WrCntrlNib(High Nibble) */
 323:.\Generated_Source\PSoC5/LCD_Char_1.c ****     LCD_Char_1_WrCntrlNib(nibble);
 480              		.loc 1 323 0
 481 0016 FB7B     		ldrb	r3, [r7, #15]	@ zero_extendqisi2
 482 0018 1846     		mov	r0, r3
 483 001a FFF7FEFF 		bl	LCD_Char_1_WrCntrlNib
 324:.\Generated_Source\PSoC5/LCD_Char_1.c ****     nibble = cByte & LCD_Char_1_NIBBLE_MASK;
 484              		.loc 1 324 0
 485 001e FB79     		ldrb	r3, [r7, #7]
 486 0020 03F00F03 		and	r3, r3, #15
 487 0024 FB73     		strb	r3, [r7, #15]
 325:.\Generated_Source\PSoC5/LCD_Char_1.c **** 
 326:.\Generated_Source\PSoC5/LCD_Char_1.c ****     /* WrCntrlNib(Low Nibble) */
 327:.\Generated_Source\PSoC5/LCD_Char_1.c ****     LCD_Char_1_WrCntrlNib(nibble);
 488              		.loc 1 327 0
 489 0026 FB7B     		ldrb	r3, [r7, #15]	@ zero_extendqisi2
 490 0028 1846     		mov	r0, r3
 491 002a FFF7FEFF 		bl	LCD_Char_1_WrCntrlNib
 328:.\Generated_Source\PSoC5/LCD_Char_1.c **** }
 492              		.loc 1 328 0
 493 002e 07F11007 		add	r7, r7, #16
 494 0032 BD46     		mov	sp, r7
 495 0034 80BD     		pop	{r7, pc}
 496              		.cfi_endproc
 497              	.LFE8:
 498              		.size	LCD_Char_1_WriteControl, .-LCD_Char_1_WriteControl
 499 0036 00BF     		.section	.text.LCD_Char_1_IsReady,"ax",%progbits
 500              		.align	2
 501              		.global	LCD_Char_1_IsReady
 502              		.thumb
 503              		.thumb_func
 504              		.type	LCD_Char_1_IsReady, %function
 505              	LCD_Char_1_IsReady:
 506              	.LFB9:
 329:.\Generated_Source\PSoC5/LCD_Char_1.c **** 
 330:.\Generated_Source\PSoC5/LCD_Char_1.c **** 
 331:.\Generated_Source\PSoC5/LCD_Char_1.c **** /*******************************************************************************
 332:.\Generated_Source\PSoC5/LCD_Char_1.c **** * Function Name: LCD_Char_1_IsReady
 333:.\Generated_Source\PSoC5/LCD_Char_1.c **** ********************************************************************************
 334:.\Generated_Source\PSoC5/LCD_Char_1.c **** *
 335:.\Generated_Source\PSoC5/LCD_Char_1.c **** * Summary:
 336:.\Generated_Source\PSoC5/LCD_Char_1.c **** *  Polls the LCD until the ready bit is set.
 337:.\Generated_Source\PSoC5/LCD_Char_1.c **** *
 338:.\Generated_Source\PSoC5/LCD_Char_1.c **** * Parameters:
 339:.\Generated_Source\PSoC5/LCD_Char_1.c **** *  None.
 340:.\Generated_Source\PSoC5/LCD_Char_1.c **** *
 341:.\Generated_Source\PSoC5/LCD_Char_1.c **** * Return:
 342:.\Generated_Source\PSoC5/LCD_Char_1.c **** *  None.
 343:.\Generated_Source\PSoC5/LCD_Char_1.c **** *
 344:.\Generated_Source\PSoC5/LCD_Char_1.c **** * Note:
 345:.\Generated_Source\PSoC5/LCD_Char_1.c **** *  Changes the pins to High-Z.
 346:.\Generated_Source\PSoC5/LCD_Char_1.c **** *
 347:.\Generated_Source\PSoC5/LCD_Char_1.c **** *******************************************************************************/
 348:.\Generated_Source\PSoC5/LCD_Char_1.c **** void LCD_Char_1_IsReady(void) 
ARM GAS  C:\Users\VICTOR~1\AppData\Local\Temp\ccRgJZPP.s 			page 16


 349:.\Generated_Source\PSoC5/LCD_Char_1.c **** {
 507              		.loc 1 349 0
 508              		.cfi_startproc
 509              		@ args = 0, pretend = 0, frame = 8
 510              		@ frame_needed = 1, uses_anonymous_args = 0
 511 0000 80B5     		push	{r7, lr}
 512              	.LCFI23:
 513              		.cfi_def_cfa_offset 8
 514              		.cfi_offset 7, -8
 515              		.cfi_offset 14, -4
 516 0002 82B0     		sub	sp, sp, #8
 517              	.LCFI24:
 518              		.cfi_def_cfa_offset 16
 519 0004 00AF     		add	r7, sp, #0
 520              	.LCFI25:
 521              		.cfi_def_cfa_register 7
 350:.\Generated_Source\PSoC5/LCD_Char_1.c ****     uint8 value;
 351:.\Generated_Source\PSoC5/LCD_Char_1.c **** 
 352:.\Generated_Source\PSoC5/LCD_Char_1.c ****     /* Clear LCD port*/
 353:.\Generated_Source\PSoC5/LCD_Char_1.c ****     LCD_Char_1_PORT_DR_REG &= ((uint8)(~LCD_Char_1_PORT_MASK));
 522              		.loc 1 353 0
 523 0006 4FF4A243 		mov	r3, #20736
 524 000a C4F20003 		movt	r3, 16384
 525 000e 4FF4A242 		mov	r2, #20736
 526 0012 C4F20002 		movt	r2, 16384
 527 0016 1278     		ldrb	r2, [r2, #0]
 528 0018 D2B2     		uxtb	r2, r2
 529 001a 22F07F02 		bic	r2, r2, #127
 530 001e D2B2     		uxtb	r2, r2
 531 0020 1A70     		strb	r2, [r3, #0]
 354:.\Generated_Source\PSoC5/LCD_Char_1.c **** 
 355:.\Generated_Source\PSoC5/LCD_Char_1.c ****     /* PSoC4 has a little different from PSoC3/5 port/pin organization for setting Drive Modes.
 356:.\Generated_Source\PSoC5/LCD_Char_1.c ****   
 357:.\Generated_Source\PSoC5/LCD_Char_1.c ****     */
 358:.\Generated_Source\PSoC5/LCD_Char_1.c ****     #if (CY_PSOC4)
 359:.\Generated_Source\PSoC5/LCD_Char_1.c ****         
 360:.\Generated_Source\PSoC5/LCD_Char_1.c ****         /* Mask off data pins to clear old values out */
 361:.\Generated_Source\PSoC5/LCD_Char_1.c ****         value = LCD_Char_1_PORT_PC_REG & ((uint32) (~ LCD_Char_1_DM_DATA_MASK));
 362:.\Generated_Source\PSoC5/LCD_Char_1.c ****         /* Load in high Z values for data pins, others unchanged */
 363:.\Generated_Source\PSoC5/LCD_Char_1.c ****         LCD_Char_1_PORT_PC_REG = value | LCD_Char_1_HIGH_Z_DATA_DM;
 364:.\Generated_Source\PSoC5/LCD_Char_1.c **** 
 365:.\Generated_Source\PSoC5/LCD_Char_1.c ****     #else
 366:.\Generated_Source\PSoC5/LCD_Char_1.c ****     
 367:.\Generated_Source\PSoC5/LCD_Char_1.c ****         /* Change Port to High-Z Status on data pins */
 368:.\Generated_Source\PSoC5/LCD_Char_1.c **** 
 369:.\Generated_Source\PSoC5/LCD_Char_1.c ****         /* Mask off data pins to clear old values out */
 370:.\Generated_Source\PSoC5/LCD_Char_1.c ****         value = LCD_Char_1_PORT_DM0_REG & ((uint8)(~LCD_Char_1_DATA_MASK));
 532              		.loc 1 370 0
 533 0022 45F20213 		movw	r3, #20738
 534 0026 C4F20003 		movt	r3, 16384
 535 002a 1B78     		ldrb	r3, [r3, #0]
 536 002c DBB2     		uxtb	r3, r3
 537 002e 23F00F03 		bic	r3, r3, #15
 538 0032 FB71     		strb	r3, [r7, #7]
 371:.\Generated_Source\PSoC5/LCD_Char_1.c ****         /* Load in high Z values for data pins, others unchanged */
 372:.\Generated_Source\PSoC5/LCD_Char_1.c ****         LCD_Char_1_PORT_DM0_REG = value | (LCD_Char_1_HIGH_Z_DM0 & LCD_Char_1_DATA_MASK);
 539              		.loc 1 372 0
ARM GAS  C:\Users\VICTOR~1\AppData\Local\Temp\ccRgJZPP.s 			page 17


 540 0034 45F20213 		movw	r3, #20738
 541 0038 C4F20003 		movt	r3, 16384
 542 003c FA79     		ldrb	r2, [r7, #7]
 543 003e 42F00F02 		orr	r2, r2, #15
 544 0042 D2B2     		uxtb	r2, r2
 545 0044 1A70     		strb	r2, [r3, #0]
 373:.\Generated_Source\PSoC5/LCD_Char_1.c **** 
 374:.\Generated_Source\PSoC5/LCD_Char_1.c ****         /* Mask off data pins to clear old values out */
 375:.\Generated_Source\PSoC5/LCD_Char_1.c ****         value = LCD_Char_1_PORT_DM1_REG & ((uint8)(~LCD_Char_1_DATA_MASK));
 546              		.loc 1 375 0
 547 0046 45F20313 		movw	r3, #20739
 548 004a C4F20003 		movt	r3, 16384
 549 004e 1B78     		ldrb	r3, [r3, #0]
 550 0050 DBB2     		uxtb	r3, r3
 551 0052 23F00F03 		bic	r3, r3, #15
 552 0056 FB71     		strb	r3, [r7, #7]
 376:.\Generated_Source\PSoC5/LCD_Char_1.c ****         /* Load in high Z values for data pins, others unchanged */
 377:.\Generated_Source\PSoC5/LCD_Char_1.c ****         LCD_Char_1_PORT_DM1_REG = value;
 553              		.loc 1 377 0
 554 0058 45F20313 		movw	r3, #20739
 555 005c C4F20003 		movt	r3, 16384
 556 0060 FA79     		ldrb	r2, [r7, #7]
 557 0062 1A70     		strb	r2, [r3, #0]
 378:.\Generated_Source\PSoC5/LCD_Char_1.c **** 
 379:.\Generated_Source\PSoC5/LCD_Char_1.c ****         /* Mask off data pins to clear old values out */
 380:.\Generated_Source\PSoC5/LCD_Char_1.c ****         value = LCD_Char_1_PORT_DM2_REG & ((uint8)(~LCD_Char_1_DATA_MASK));
 558              		.loc 1 380 0
 559 0064 45F20413 		movw	r3, #20740
 560 0068 C4F20003 		movt	r3, 16384
 561 006c 1B78     		ldrb	r3, [r3, #0]
 562 006e DBB2     		uxtb	r3, r3
 563 0070 23F00F03 		bic	r3, r3, #15
 564 0074 FB71     		strb	r3, [r7, #7]
 381:.\Generated_Source\PSoC5/LCD_Char_1.c ****         /* Load in high Z values for data pins, others unchanged */
 382:.\Generated_Source\PSoC5/LCD_Char_1.c ****         LCD_Char_1_PORT_DM2_REG = value;
 565              		.loc 1 382 0
 566 0076 45F20413 		movw	r3, #20740
 567 007a C4F20003 		movt	r3, 16384
 568 007e FA79     		ldrb	r2, [r7, #7]
 569 0080 1A70     		strb	r2, [r3, #0]
 383:.\Generated_Source\PSoC5/LCD_Char_1.c ****     
 384:.\Generated_Source\PSoC5/LCD_Char_1.c ****     #endif /* CY_PSOC4 */
 385:.\Generated_Source\PSoC5/LCD_Char_1.c ****     
 386:.\Generated_Source\PSoC5/LCD_Char_1.c ****     /* Make sure RS is low */
 387:.\Generated_Source\PSoC5/LCD_Char_1.c ****     LCD_Char_1_PORT_DR_REG &= ((uint8)(~LCD_Char_1_RS));
 570              		.loc 1 387 0
 571 0082 4FF4A243 		mov	r3, #20736
 572 0086 C4F20003 		movt	r3, 16384
 573 008a 4FF4A242 		mov	r2, #20736
 574 008e C4F20002 		movt	r2, 16384
 575 0092 1278     		ldrb	r2, [r2, #0]
 576 0094 D2B2     		uxtb	r2, r2
 577 0096 22F02002 		bic	r2, r2, #32
 578 009a D2B2     		uxtb	r2, r2
 579 009c 1A70     		strb	r2, [r3, #0]
 388:.\Generated_Source\PSoC5/LCD_Char_1.c **** 
 389:.\Generated_Source\PSoC5/LCD_Char_1.c ****     /* Set R/W high to read */
ARM GAS  C:\Users\VICTOR~1\AppData\Local\Temp\ccRgJZPP.s 			page 18


 390:.\Generated_Source\PSoC5/LCD_Char_1.c ****     LCD_Char_1_PORT_DR_REG |= LCD_Char_1_RW;
 580              		.loc 1 390 0
 581 009e 4FF4A243 		mov	r3, #20736
 582 00a2 C4F20003 		movt	r3, 16384
 583 00a6 4FF4A242 		mov	r2, #20736
 584 00aa C4F20002 		movt	r2, 16384
 585 00ae 1278     		ldrb	r2, [r2, #0]
 586 00b0 D2B2     		uxtb	r2, r2
 587 00b2 42F04002 		orr	r2, r2, #64
 588 00b6 D2B2     		uxtb	r2, r2
 589 00b8 1A70     		strb	r2, [r3, #0]
 590              	.L22:
 391:.\Generated_Source\PSoC5/LCD_Char_1.c **** 
 392:.\Generated_Source\PSoC5/LCD_Char_1.c ****     do
 393:.\Generated_Source\PSoC5/LCD_Char_1.c ****     {
 394:.\Generated_Source\PSoC5/LCD_Char_1.c ****         /* 40 ns delay required before rising Enable and 500ns between neighbour Enables */
 395:.\Generated_Source\PSoC5/LCD_Char_1.c ****         CyDelayUs(0u);
 591              		.loc 1 395 0 discriminator 1
 592 00ba 4FF00000 		mov	r0, #0
 593 00be FFF7FEFF 		bl	CyDelayUs
 396:.\Generated_Source\PSoC5/LCD_Char_1.c **** 
 397:.\Generated_Source\PSoC5/LCD_Char_1.c ****         /* Set E high */
 398:.\Generated_Source\PSoC5/LCD_Char_1.c ****         LCD_Char_1_PORT_DR_REG |= LCD_Char_1_E;
 594              		.loc 1 398 0 discriminator 1
 595 00c2 4FF4A243 		mov	r3, #20736
 596 00c6 C4F20003 		movt	r3, 16384
 597 00ca 4FF4A242 		mov	r2, #20736
 598 00ce C4F20002 		movt	r2, 16384
 599 00d2 1278     		ldrb	r2, [r2, #0]
 600 00d4 D2B2     		uxtb	r2, r2
 601 00d6 42F01002 		orr	r2, r2, #16
 602 00da D2B2     		uxtb	r2, r2
 603 00dc 1A70     		strb	r2, [r3, #0]
 399:.\Generated_Source\PSoC5/LCD_Char_1.c **** 
 400:.\Generated_Source\PSoC5/LCD_Char_1.c ****         /* 360 ns delay setup time for data pins */
 401:.\Generated_Source\PSoC5/LCD_Char_1.c ****         CyDelayUs(1u);
 604              		.loc 1 401 0 discriminator 1
 605 00de 4FF00100 		mov	r0, #1
 606 00e2 FFF7FEFF 		bl	CyDelayUs
 402:.\Generated_Source\PSoC5/LCD_Char_1.c **** 
 403:.\Generated_Source\PSoC5/LCD_Char_1.c ****         /* Get port state */
 404:.\Generated_Source\PSoC5/LCD_Char_1.c ****         value = LCD_Char_1_PORT_PS_REG;
 607              		.loc 1 404 0 discriminator 1
 608 00e6 45F20113 		movw	r3, #20737
 609 00ea C4F20003 		movt	r3, 16384
 610 00ee 1B78     		ldrb	r3, [r3, #0]
 611 00f0 FB71     		strb	r3, [r7, #7]
 405:.\Generated_Source\PSoC5/LCD_Char_1.c **** 
 406:.\Generated_Source\PSoC5/LCD_Char_1.c ****         /* Set enable low */
 407:.\Generated_Source\PSoC5/LCD_Char_1.c ****         LCD_Char_1_PORT_DR_REG &= ((uint8)(~LCD_Char_1_E));
 612              		.loc 1 407 0 discriminator 1
 613 00f2 4FF4A243 		mov	r3, #20736
 614 00f6 C4F20003 		movt	r3, 16384
 615 00fa 4FF4A242 		mov	r2, #20736
 616 00fe C4F20002 		movt	r2, 16384
 617 0102 1278     		ldrb	r2, [r2, #0]
 618 0104 D2B2     		uxtb	r2, r2
ARM GAS  C:\Users\VICTOR~1\AppData\Local\Temp\ccRgJZPP.s 			page 19


 619 0106 22F01002 		bic	r2, r2, #16
 620 010a D2B2     		uxtb	r2, r2
 621 010c 1A70     		strb	r2, [r3, #0]
 408:.\Generated_Source\PSoC5/LCD_Char_1.c **** 
 409:.\Generated_Source\PSoC5/LCD_Char_1.c ****         /* This gives true delay between disabling Enable bit and polling Ready bit */
 410:.\Generated_Source\PSoC5/LCD_Char_1.c ****         CyDelayUs(0u);
 622              		.loc 1 410 0 discriminator 1
 623 010e 4FF00000 		mov	r0, #0
 624 0112 FFF7FEFF 		bl	CyDelayUs
 411:.\Generated_Source\PSoC5/LCD_Char_1.c **** 
 412:.\Generated_Source\PSoC5/LCD_Char_1.c ****         /* Extract ready bit */
 413:.\Generated_Source\PSoC5/LCD_Char_1.c ****         value &= LCD_Char_1_READY_BIT;
 625              		.loc 1 413 0 discriminator 1
 626 0116 FB79     		ldrb	r3, [r7, #7]
 627 0118 03F00803 		and	r3, r3, #8
 628 011c FB71     		strb	r3, [r7, #7]
 414:.\Generated_Source\PSoC5/LCD_Char_1.c **** 
 415:.\Generated_Source\PSoC5/LCD_Char_1.c ****         /* Set E high as we in 4-bit interface we need extra operation */
 416:.\Generated_Source\PSoC5/LCD_Char_1.c ****         LCD_Char_1_PORT_DR_REG |= LCD_Char_1_E;
 629              		.loc 1 416 0 discriminator 1
 630 011e 4FF4A243 		mov	r3, #20736
 631 0122 C4F20003 		movt	r3, 16384
 632 0126 4FF4A242 		mov	r2, #20736
 633 012a C4F20002 		movt	r2, 16384
 634 012e 1278     		ldrb	r2, [r2, #0]
 635 0130 D2B2     		uxtb	r2, r2
 636 0132 42F01002 		orr	r2, r2, #16
 637 0136 D2B2     		uxtb	r2, r2
 638 0138 1A70     		strb	r2, [r3, #0]
 417:.\Generated_Source\PSoC5/LCD_Char_1.c **** 
 418:.\Generated_Source\PSoC5/LCD_Char_1.c ****         /* 360 ns delay the setup time for data pins */
 419:.\Generated_Source\PSoC5/LCD_Char_1.c ****         CyDelayUs(1u);
 639              		.loc 1 419 0 discriminator 1
 640 013a 4FF00100 		mov	r0, #1
 641 013e FFF7FEFF 		bl	CyDelayUs
 420:.\Generated_Source\PSoC5/LCD_Char_1.c **** 
 421:.\Generated_Source\PSoC5/LCD_Char_1.c ****         /* Set enable low */
 422:.\Generated_Source\PSoC5/LCD_Char_1.c ****         LCD_Char_1_PORT_DR_REG &= ((uint8)(~LCD_Char_1_E));
 642              		.loc 1 422 0 discriminator 1
 643 0142 4FF4A243 		mov	r3, #20736
 644 0146 C4F20003 		movt	r3, 16384
 645 014a 4FF4A242 		mov	r2, #20736
 646 014e C4F20002 		movt	r2, 16384
 647 0152 1278     		ldrb	r2, [r2, #0]
 648 0154 D2B2     		uxtb	r2, r2
 649 0156 22F01002 		bic	r2, r2, #16
 650 015a D2B2     		uxtb	r2, r2
 651 015c 1A70     		strb	r2, [r3, #0]
 423:.\Generated_Source\PSoC5/LCD_Char_1.c **** 
 424:.\Generated_Source\PSoC5/LCD_Char_1.c ****         /* Repeat until bit 4 is not zero. */
 425:.\Generated_Source\PSoC5/LCD_Char_1.c **** 
 426:.\Generated_Source\PSoC5/LCD_Char_1.c ****     } while (value != 0u);
 652              		.loc 1 426 0 discriminator 1
 653 015e FB79     		ldrb	r3, [r7, #7]	@ zero_extendqisi2
 654 0160 002B     		cmp	r3, #0
 655 0162 AAD1     		bne	.L22
 427:.\Generated_Source\PSoC5/LCD_Char_1.c **** 
ARM GAS  C:\Users\VICTOR~1\AppData\Local\Temp\ccRgJZPP.s 			page 20


 428:.\Generated_Source\PSoC5/LCD_Char_1.c ****     /* Set R/W low to write */
 429:.\Generated_Source\PSoC5/LCD_Char_1.c ****     LCD_Char_1_PORT_DR_REG &= ((uint8)(~LCD_Char_1_RW));
 656              		.loc 1 429 0
 657 0164 4FF4A243 		mov	r3, #20736
 658 0168 C4F20003 		movt	r3, 16384
 659 016c 4FF4A242 		mov	r2, #20736
 660 0170 C4F20002 		movt	r2, 16384
 661 0174 1278     		ldrb	r2, [r2, #0]
 662 0176 D2B2     		uxtb	r2, r2
 663 0178 22F04002 		bic	r2, r2, #64
 664 017c D2B2     		uxtb	r2, r2
 665 017e 1A70     		strb	r2, [r3, #0]
 430:.\Generated_Source\PSoC5/LCD_Char_1.c **** 
 431:.\Generated_Source\PSoC5/LCD_Char_1.c ****     /* Clear LCD port*/
 432:.\Generated_Source\PSoC5/LCD_Char_1.c ****     LCD_Char_1_PORT_DR_REG &= ((uint8)(~LCD_Char_1_PORT_MASK));
 666              		.loc 1 432 0
 667 0180 4FF4A243 		mov	r3, #20736
 668 0184 C4F20003 		movt	r3, 16384
 669 0188 4FF4A242 		mov	r2, #20736
 670 018c C4F20002 		movt	r2, 16384
 671 0190 1278     		ldrb	r2, [r2, #0]
 672 0192 D2B2     		uxtb	r2, r2
 673 0194 22F07F02 		bic	r2, r2, #127
 674 0198 D2B2     		uxtb	r2, r2
 675 019a 1A70     		strb	r2, [r3, #0]
 433:.\Generated_Source\PSoC5/LCD_Char_1.c **** 
 434:.\Generated_Source\PSoC5/LCD_Char_1.c ****     #if (CY_PSOC4)
 435:.\Generated_Source\PSoC5/LCD_Char_1.c ****         
 436:.\Generated_Source\PSoC5/LCD_Char_1.c ****         /* Mask off data pins to clear old values out */
 437:.\Generated_Source\PSoC5/LCD_Char_1.c ****         value = LCD_Char_1_PORT_PC_REG & ((uint32)(~ LCD_Char_1_DM_DATA_MASK));
 438:.\Generated_Source\PSoC5/LCD_Char_1.c ****         /* Load in high Z values for data pins, others unchanged */
 439:.\Generated_Source\PSoC5/LCD_Char_1.c ****         LCD_Char_1_PORT_PC_REG = value | LCD_Char_1_STRONG_DATA_DM;
 440:.\Generated_Source\PSoC5/LCD_Char_1.c **** 
 441:.\Generated_Source\PSoC5/LCD_Char_1.c ****     #else
 442:.\Generated_Source\PSoC5/LCD_Char_1.c **** 
 443:.\Generated_Source\PSoC5/LCD_Char_1.c ****         /* Change Port to Output (Strong) on data pins */
 444:.\Generated_Source\PSoC5/LCD_Char_1.c ****         /* Mask off data pins to clear high z values out. Configure data pins 
 445:.\Generated_Source\PSoC5/LCD_Char_1.c ****         * to Strong Drive, others unchanged.
 446:.\Generated_Source\PSoC5/LCD_Char_1.c ****         */
 447:.\Generated_Source\PSoC5/LCD_Char_1.c ****         LCD_Char_1_PORT_DM0_REG &= ((uint8)(~LCD_Char_1_DATA_MASK));
 676              		.loc 1 447 0
 677 019c 45F20213 		movw	r3, #20738
 678 01a0 C4F20003 		movt	r3, 16384
 679 01a4 45F20212 		movw	r2, #20738
 680 01a8 C4F20002 		movt	r2, 16384
 681 01ac 1278     		ldrb	r2, [r2, #0]
 682 01ae D2B2     		uxtb	r2, r2
 683 01b0 22F00F02 		bic	r2, r2, #15
 684 01b4 D2B2     		uxtb	r2, r2
 685 01b6 1A70     		strb	r2, [r3, #0]
 448:.\Generated_Source\PSoC5/LCD_Char_1.c ****         /* Mask off data pins to clear high z values out */
 449:.\Generated_Source\PSoC5/LCD_Char_1.c ****         value = LCD_Char_1_PORT_DM1_REG & ((uint8)(~LCD_Char_1_DATA_MASK));
 686              		.loc 1 449 0
 687 01b8 45F20313 		movw	r3, #20739
 688 01bc C4F20003 		movt	r3, 16384
 689 01c0 1B78     		ldrb	r3, [r3, #0]
 690 01c2 DBB2     		uxtb	r3, r3
ARM GAS  C:\Users\VICTOR~1\AppData\Local\Temp\ccRgJZPP.s 			page 21


 691 01c4 23F00F03 		bic	r3, r3, #15
 692 01c8 FB71     		strb	r3, [r7, #7]
 450:.\Generated_Source\PSoC5/LCD_Char_1.c ****         /* Configure data pins to Strong Drive, others unchanged */
 451:.\Generated_Source\PSoC5/LCD_Char_1.c ****         LCD_Char_1_PORT_DM1_REG = value | (LCD_Char_1_STRONG_DM1 & LCD_Char_1_DATA_MASK);
 693              		.loc 1 451 0
 694 01ca 45F20313 		movw	r3, #20739
 695 01ce C4F20003 		movt	r3, 16384
 696 01d2 FA79     		ldrb	r2, [r7, #7]
 697 01d4 42F00F02 		orr	r2, r2, #15
 698 01d8 D2B2     		uxtb	r2, r2
 699 01da 1A70     		strb	r2, [r3, #0]
 452:.\Generated_Source\PSoC5/LCD_Char_1.c **** 
 453:.\Generated_Source\PSoC5/LCD_Char_1.c ****         /* Mask off data pins to clear high z values out */
 454:.\Generated_Source\PSoC5/LCD_Char_1.c ****         value = LCD_Char_1_PORT_DM2_REG & ((uint8)(~LCD_Char_1_DATA_MASK));
 700              		.loc 1 454 0
 701 01dc 45F20413 		movw	r3, #20740
 702 01e0 C4F20003 		movt	r3, 16384
 703 01e4 1B78     		ldrb	r3, [r3, #0]
 704 01e6 DBB2     		uxtb	r3, r3
 705 01e8 23F00F03 		bic	r3, r3, #15
 706 01ec FB71     		strb	r3, [r7, #7]
 455:.\Generated_Source\PSoC5/LCD_Char_1.c ****         /* Configure data pins to Strong Drive, others unchanged */
 456:.\Generated_Source\PSoC5/LCD_Char_1.c ****         LCD_Char_1_PORT_DM2_REG = value | (LCD_Char_1_STRONG_DM2 & LCD_Char_1_DATA_MASK);
 707              		.loc 1 456 0
 708 01ee 45F20413 		movw	r3, #20740
 709 01f2 C4F20003 		movt	r3, 16384
 710 01f6 FA79     		ldrb	r2, [r7, #7]
 711 01f8 42F00F02 		orr	r2, r2, #15
 712 01fc D2B2     		uxtb	r2, r2
 713 01fe 1A70     		strb	r2, [r3, #0]
 457:.\Generated_Source\PSoC5/LCD_Char_1.c ****     
 458:.\Generated_Source\PSoC5/LCD_Char_1.c ****     #endif /* CY_PSOC4 */
 459:.\Generated_Source\PSoC5/LCD_Char_1.c **** }
 714              		.loc 1 459 0
 715 0200 07F10807 		add	r7, r7, #8
 716 0204 BD46     		mov	sp, r7
 717 0206 80BD     		pop	{r7, pc}
 718              		.cfi_endproc
 719              	.LFE9:
 720              		.size	LCD_Char_1_IsReady, .-LCD_Char_1_IsReady
 721              		.section	.text.LCD_Char_1_WrDatNib,"ax",%progbits
 722              		.align	2
 723              		.thumb
 724              		.thumb_func
 725              		.type	LCD_Char_1_WrDatNib, %function
 726              	LCD_Char_1_WrDatNib:
 727              	.LFB10:
 460:.\Generated_Source\PSoC5/LCD_Char_1.c **** 
 461:.\Generated_Source\PSoC5/LCD_Char_1.c **** 
 462:.\Generated_Source\PSoC5/LCD_Char_1.c **** /*******************************************************************************
 463:.\Generated_Source\PSoC5/LCD_Char_1.c **** *  Function Name: LCD_Char_1_WrDatNib
 464:.\Generated_Source\PSoC5/LCD_Char_1.c **** ********************************************************************************
 465:.\Generated_Source\PSoC5/LCD_Char_1.c **** *
 466:.\Generated_Source\PSoC5/LCD_Char_1.c **** * Summary:
 467:.\Generated_Source\PSoC5/LCD_Char_1.c **** *  Writes a data nibble to the LCD module.
 468:.\Generated_Source\PSoC5/LCD_Char_1.c **** *
 469:.\Generated_Source\PSoC5/LCD_Char_1.c **** * Parameters:
ARM GAS  C:\Users\VICTOR~1\AppData\Local\Temp\ccRgJZPP.s 			page 22


 470:.\Generated_Source\PSoC5/LCD_Char_1.c **** *  nibble:  Byte containing nibble in least significant nibble to be written
 471:.\Generated_Source\PSoC5/LCD_Char_1.c **** *           to LCD module.
 472:.\Generated_Source\PSoC5/LCD_Char_1.c **** *
 473:.\Generated_Source\PSoC5/LCD_Char_1.c **** * Return:
 474:.\Generated_Source\PSoC5/LCD_Char_1.c **** *  None.
 475:.\Generated_Source\PSoC5/LCD_Char_1.c **** *
 476:.\Generated_Source\PSoC5/LCD_Char_1.c **** *******************************************************************************/
 477:.\Generated_Source\PSoC5/LCD_Char_1.c **** static void LCD_Char_1_WrDatNib(uint8 nibble) 
 478:.\Generated_Source\PSoC5/LCD_Char_1.c **** {
 728              		.loc 1 478 0
 729              		.cfi_startproc
 730              		@ args = 0, pretend = 0, frame = 8
 731              		@ frame_needed = 1, uses_anonymous_args = 0
 732 0000 80B5     		push	{r7, lr}
 733              	.LCFI26:
 734              		.cfi_def_cfa_offset 8
 735              		.cfi_offset 7, -8
 736              		.cfi_offset 14, -4
 737 0002 82B0     		sub	sp, sp, #8
 738              	.LCFI27:
 739              		.cfi_def_cfa_offset 16
 740 0004 00AF     		add	r7, sp, #0
 741              	.LCFI28:
 742              		.cfi_def_cfa_register 7
 743 0006 0346     		mov	r3, r0
 744 0008 FB71     		strb	r3, [r7, #7]
 479:.\Generated_Source\PSoC5/LCD_Char_1.c ****     /* RS should be low to select data register */
 480:.\Generated_Source\PSoC5/LCD_Char_1.c ****     LCD_Char_1_PORT_DR_REG |= LCD_Char_1_RS;
 745              		.loc 1 480 0
 746 000a 4FF4A243 		mov	r3, #20736
 747 000e C4F20003 		movt	r3, 16384
 748 0012 4FF4A242 		mov	r2, #20736
 749 0016 C4F20002 		movt	r2, 16384
 750 001a 1278     		ldrb	r2, [r2, #0]
 751 001c D2B2     		uxtb	r2, r2
 752 001e 42F02002 		orr	r2, r2, #32
 753 0022 D2B2     		uxtb	r2, r2
 754 0024 1A70     		strb	r2, [r3, #0]
 481:.\Generated_Source\PSoC5/LCD_Char_1.c ****     /* Reset RW for write operation */
 482:.\Generated_Source\PSoC5/LCD_Char_1.c ****     LCD_Char_1_PORT_DR_REG &= ((uint8)(~LCD_Char_1_RW));
 755              		.loc 1 482 0
 756 0026 4FF4A243 		mov	r3, #20736
 757 002a C4F20003 		movt	r3, 16384
 758 002e 4FF4A242 		mov	r2, #20736
 759 0032 C4F20002 		movt	r2, 16384
 760 0036 1278     		ldrb	r2, [r2, #0]
 761 0038 D2B2     		uxtb	r2, r2
 762 003a 22F04002 		bic	r2, r2, #64
 763 003e D2B2     		uxtb	r2, r2
 764 0040 1A70     		strb	r2, [r3, #0]
 483:.\Generated_Source\PSoC5/LCD_Char_1.c **** 
 484:.\Generated_Source\PSoC5/LCD_Char_1.c ****     /* Guaranteed delay between Setting RS and RW and setting E bits */
 485:.\Generated_Source\PSoC5/LCD_Char_1.c ****     CyDelayUs(0u);
 765              		.loc 1 485 0
 766 0042 4FF00000 		mov	r0, #0
 767 0046 FFF7FEFF 		bl	CyDelayUs
 486:.\Generated_Source\PSoC5/LCD_Char_1.c ****     
ARM GAS  C:\Users\VICTOR~1\AppData\Local\Temp\ccRgJZPP.s 			page 23


 487:.\Generated_Source\PSoC5/LCD_Char_1.c ****     /* Clear data pins */
 488:.\Generated_Source\PSoC5/LCD_Char_1.c ****     LCD_Char_1_PORT_DR_REG &= ((uint8)(~LCD_Char_1_DATA_MASK));
 768              		.loc 1 488 0
 769 004a 4FF4A243 		mov	r3, #20736
 770 004e C4F20003 		movt	r3, 16384
 771 0052 4FF4A242 		mov	r2, #20736
 772 0056 C4F20002 		movt	r2, 16384
 773 005a 1278     		ldrb	r2, [r2, #0]
 774 005c D2B2     		uxtb	r2, r2
 775 005e 22F00F02 		bic	r2, r2, #15
 776 0062 D2B2     		uxtb	r2, r2
 777 0064 1A70     		strb	r2, [r3, #0]
 489:.\Generated_Source\PSoC5/LCD_Char_1.c **** 
 490:.\Generated_Source\PSoC5/LCD_Char_1.c ****     /* Write data, bring E high */
 491:.\Generated_Source\PSoC5/LCD_Char_1.c ****     #if(0u != LCD_Char_1_PORT_SHIFT) /* MISRA forbids shift by 0 so need to handle that */
 492:.\Generated_Source\PSoC5/LCD_Char_1.c ****         LCD_Char_1_PORT_DR_REG |= 
 493:.\Generated_Source\PSoC5/LCD_Char_1.c ****             (LCD_Char_1_E | ((uint8)(((uint8) nibble) << LCD_Char_1_PORT_SHIFT)));
 494:.\Generated_Source\PSoC5/LCD_Char_1.c ****     #else
 495:.\Generated_Source\PSoC5/LCD_Char_1.c ****         LCD_Char_1_PORT_DR_REG |= (LCD_Char_1_E | nibble);
 778              		.loc 1 495 0
 779 0066 4FF4A243 		mov	r3, #20736
 780 006a C4F20003 		movt	r3, 16384
 781 006e 4FF4A242 		mov	r2, #20736
 782 0072 C4F20002 		movt	r2, 16384
 783 0076 1278     		ldrb	r2, [r2, #0]
 784 0078 D1B2     		uxtb	r1, r2
 785 007a FA79     		ldrb	r2, [r7, #7]
 786 007c 0A43     		orrs	r2, r2, r1
 787 007e D2B2     		uxtb	r2, r2
 788 0080 42F01002 		orr	r2, r2, #16
 789 0084 D2B2     		uxtb	r2, r2
 790 0086 1A70     		strb	r2, [r3, #0]
 496:.\Generated_Source\PSoC5/LCD_Char_1.c ****     #endif /* (0u != LCD_Char_1_PORT_SHIFT) */
 497:.\Generated_Source\PSoC5/LCD_Char_1.c **** 
 498:.\Generated_Source\PSoC5/LCD_Char_1.c ****     /* Minimum of 230 ns delay */
 499:.\Generated_Source\PSoC5/LCD_Char_1.c ****     CyDelayUs(1u);
 791              		.loc 1 499 0
 792 0088 4FF00100 		mov	r0, #1
 793 008c FFF7FEFF 		bl	CyDelayUs
 500:.\Generated_Source\PSoC5/LCD_Char_1.c **** 
 501:.\Generated_Source\PSoC5/LCD_Char_1.c ****     LCD_Char_1_PORT_DR_REG &= ((uint8)(~LCD_Char_1_E));
 794              		.loc 1 501 0
 795 0090 4FF4A243 		mov	r3, #20736
 796 0094 C4F20003 		movt	r3, 16384
 797 0098 4FF4A242 		mov	r2, #20736
 798 009c C4F20002 		movt	r2, 16384
 799 00a0 1278     		ldrb	r2, [r2, #0]
 800 00a2 D2B2     		uxtb	r2, r2
 801 00a4 22F01002 		bic	r2, r2, #16
 802 00a8 D2B2     		uxtb	r2, r2
 803 00aa 1A70     		strb	r2, [r3, #0]
 502:.\Generated_Source\PSoC5/LCD_Char_1.c **** }
 804              		.loc 1 502 0
 805 00ac 07F10807 		add	r7, r7, #8
 806 00b0 BD46     		mov	sp, r7
 807 00b2 80BD     		pop	{r7, pc}
 808              		.cfi_endproc
ARM GAS  C:\Users\VICTOR~1\AppData\Local\Temp\ccRgJZPP.s 			page 24


 809              	.LFE10:
 810              		.size	LCD_Char_1_WrDatNib, .-LCD_Char_1_WrDatNib
 811              		.section	.text.LCD_Char_1_WrCntrlNib,"ax",%progbits
 812              		.align	2
 813              		.thumb
 814              		.thumb_func
 815              		.type	LCD_Char_1_WrCntrlNib, %function
 816              	LCD_Char_1_WrCntrlNib:
 817              	.LFB11:
 503:.\Generated_Source\PSoC5/LCD_Char_1.c **** 
 504:.\Generated_Source\PSoC5/LCD_Char_1.c **** 
 505:.\Generated_Source\PSoC5/LCD_Char_1.c **** /*******************************************************************************
 506:.\Generated_Source\PSoC5/LCD_Char_1.c **** *  Function Name: LCD_Char_1_WrCntrlNib
 507:.\Generated_Source\PSoC5/LCD_Char_1.c **** ********************************************************************************
 508:.\Generated_Source\PSoC5/LCD_Char_1.c **** *
 509:.\Generated_Source\PSoC5/LCD_Char_1.c **** * Summary:
 510:.\Generated_Source\PSoC5/LCD_Char_1.c **** *  Writes a control nibble to the LCD module.
 511:.\Generated_Source\PSoC5/LCD_Char_1.c **** *
 512:.\Generated_Source\PSoC5/LCD_Char_1.c **** * Parameters:
 513:.\Generated_Source\PSoC5/LCD_Char_1.c **** *  nibble: The byte containing a nibble in the four least significant bits.????
 514:.\Generated_Source\PSoC5/LCD_Char_1.c **** *
 515:.\Generated_Source\PSoC5/LCD_Char_1.c **** * Return:
 516:.\Generated_Source\PSoC5/LCD_Char_1.c **** *  None.
 517:.\Generated_Source\PSoC5/LCD_Char_1.c **** *
 518:.\Generated_Source\PSoC5/LCD_Char_1.c **** *******************************************************************************/
 519:.\Generated_Source\PSoC5/LCD_Char_1.c **** static void LCD_Char_1_WrCntrlNib(uint8 nibble) 
 520:.\Generated_Source\PSoC5/LCD_Char_1.c **** {
 818              		.loc 1 520 0
 819              		.cfi_startproc
 820              		@ args = 0, pretend = 0, frame = 8
 821              		@ frame_needed = 1, uses_anonymous_args = 0
 822 0000 80B5     		push	{r7, lr}
 823              	.LCFI29:
 824              		.cfi_def_cfa_offset 8
 825              		.cfi_offset 7, -8
 826              		.cfi_offset 14, -4
 827 0002 82B0     		sub	sp, sp, #8
 828              	.LCFI30:
 829              		.cfi_def_cfa_offset 16
 830 0004 00AF     		add	r7, sp, #0
 831              	.LCFI31:
 832              		.cfi_def_cfa_register 7
 833 0006 0346     		mov	r3, r0
 834 0008 FB71     		strb	r3, [r7, #7]
 521:.\Generated_Source\PSoC5/LCD_Char_1.c ****     /* RS and RW should be low to select instruction register and  write operation respectively */
 522:.\Generated_Source\PSoC5/LCD_Char_1.c ****     LCD_Char_1_PORT_DR_REG &= ((uint8)(~(LCD_Char_1_RS | LCD_Char_1_RW)));
 835              		.loc 1 522 0
 836 000a 4FF4A243 		mov	r3, #20736
 837 000e C4F20003 		movt	r3, 16384
 838 0012 4FF4A242 		mov	r2, #20736
 839 0016 C4F20002 		movt	r2, 16384
 840 001a 1278     		ldrb	r2, [r2, #0]
 841 001c D2B2     		uxtb	r2, r2
 842 001e 22F06002 		bic	r2, r2, #96
 843 0022 D2B2     		uxtb	r2, r2
 844 0024 1A70     		strb	r2, [r3, #0]
 523:.\Generated_Source\PSoC5/LCD_Char_1.c **** 
ARM GAS  C:\Users\VICTOR~1\AppData\Local\Temp\ccRgJZPP.s 			page 25


 524:.\Generated_Source\PSoC5/LCD_Char_1.c ****     /* Two following lines of code will give 40ns delay */
 525:.\Generated_Source\PSoC5/LCD_Char_1.c ****     /* Clear data pins */
 526:.\Generated_Source\PSoC5/LCD_Char_1.c ****     LCD_Char_1_PORT_DR_REG &= ((uint8)(~LCD_Char_1_DATA_MASK));
 845              		.loc 1 526 0
 846 0026 4FF4A243 		mov	r3, #20736
 847 002a C4F20003 		movt	r3, 16384
 848 002e 4FF4A242 		mov	r2, #20736
 849 0032 C4F20002 		movt	r2, 16384
 850 0036 1278     		ldrb	r2, [r2, #0]
 851 0038 D2B2     		uxtb	r2, r2
 852 003a 22F00F02 		bic	r2, r2, #15
 853 003e D2B2     		uxtb	r2, r2
 854 0040 1A70     		strb	r2, [r3, #0]
 527:.\Generated_Source\PSoC5/LCD_Char_1.c **** 
 528:.\Generated_Source\PSoC5/LCD_Char_1.c ****     /* Write control data and set enable signal */
 529:.\Generated_Source\PSoC5/LCD_Char_1.c ****     #if(0u != LCD_Char_1_PORT_SHIFT) /* MISRA forbids shift by 0 so need to handle that */
 530:.\Generated_Source\PSoC5/LCD_Char_1.c ****         LCD_Char_1_PORT_DR_REG |= 
 531:.\Generated_Source\PSoC5/LCD_Char_1.c ****             (LCD_Char_1_E | ((uint8)(((uint8) nibble) << LCD_Char_1_PORT_SHIFT)));
 532:.\Generated_Source\PSoC5/LCD_Char_1.c ****     #else
 533:.\Generated_Source\PSoC5/LCD_Char_1.c ****         LCD_Char_1_PORT_DR_REG |= (LCD_Char_1_E | nibble);
 855              		.loc 1 533 0
 856 0042 4FF4A243 		mov	r3, #20736
 857 0046 C4F20003 		movt	r3, 16384
 858 004a 4FF4A242 		mov	r2, #20736
 859 004e C4F20002 		movt	r2, 16384
 860 0052 1278     		ldrb	r2, [r2, #0]
 861 0054 D1B2     		uxtb	r1, r2
 862 0056 FA79     		ldrb	r2, [r7, #7]
 863 0058 0A43     		orrs	r2, r2, r1
 864 005a D2B2     		uxtb	r2, r2
 865 005c 42F01002 		orr	r2, r2, #16
 866 0060 D2B2     		uxtb	r2, r2
 867 0062 1A70     		strb	r2, [r3, #0]
 534:.\Generated_Source\PSoC5/LCD_Char_1.c ****     #endif /* (0u != LCD_Char_1_PORT_SHIFT) */
 535:.\Generated_Source\PSoC5/LCD_Char_1.c **** 
 536:.\Generated_Source\PSoC5/LCD_Char_1.c ****     /* Minimum of 230 ns delay */
 537:.\Generated_Source\PSoC5/LCD_Char_1.c ****     CyDelayUs(1u);
 868              		.loc 1 537 0
 869 0064 4FF00100 		mov	r0, #1
 870 0068 FFF7FEFF 		bl	CyDelayUs
 538:.\Generated_Source\PSoC5/LCD_Char_1.c **** 
 539:.\Generated_Source\PSoC5/LCD_Char_1.c ****     LCD_Char_1_PORT_DR_REG &= ((uint8)(~LCD_Char_1_E));
 871              		.loc 1 539 0
 872 006c 4FF4A243 		mov	r3, #20736
 873 0070 C4F20003 		movt	r3, 16384
 874 0074 4FF4A242 		mov	r2, #20736
 875 0078 C4F20002 		movt	r2, 16384
 876 007c 1278     		ldrb	r2, [r2, #0]
 877 007e D2B2     		uxtb	r2, r2
 878 0080 22F01002 		bic	r2, r2, #16
 879 0084 D2B2     		uxtb	r2, r2
 880 0086 1A70     		strb	r2, [r3, #0]
 540:.\Generated_Source\PSoC5/LCD_Char_1.c **** }
 881              		.loc 1 540 0
 882 0088 07F10807 		add	r7, r7, #8
 883 008c BD46     		mov	sp, r7
 884 008e 80BD     		pop	{r7, pc}
ARM GAS  C:\Users\VICTOR~1\AppData\Local\Temp\ccRgJZPP.s 			page 26


 885              		.cfi_endproc
 886              	.LFE11:
 887              		.size	LCD_Char_1_WrCntrlNib, .-LCD_Char_1_WrCntrlNib
 888              		.section	.text.LCD_Char_1_PrintInt8,"ax",%progbits
 889              		.align	2
 890              		.global	LCD_Char_1_PrintInt8
 891              		.thumb
 892              		.thumb_func
 893              		.type	LCD_Char_1_PrintInt8, %function
 894              	LCD_Char_1_PrintInt8:
 895              	.LFB12:
 541:.\Generated_Source\PSoC5/LCD_Char_1.c **** 
 542:.\Generated_Source\PSoC5/LCD_Char_1.c **** 
 543:.\Generated_Source\PSoC5/LCD_Char_1.c **** #if(LCD_Char_1_CONVERSION_ROUTINES == 1u)
 544:.\Generated_Source\PSoC5/LCD_Char_1.c **** 
 545:.\Generated_Source\PSoC5/LCD_Char_1.c ****     /*******************************************************************************
 546:.\Generated_Source\PSoC5/LCD_Char_1.c ****     *  Function Name: LCD_Char_1_PrintInt8
 547:.\Generated_Source\PSoC5/LCD_Char_1.c ****     ********************************************************************************
 548:.\Generated_Source\PSoC5/LCD_Char_1.c ****     *
 549:.\Generated_Source\PSoC5/LCD_Char_1.c ****     * Summary:
 550:.\Generated_Source\PSoC5/LCD_Char_1.c ****     *  Print a byte as two ASCII characters.
 551:.\Generated_Source\PSoC5/LCD_Char_1.c ****     *
 552:.\Generated_Source\PSoC5/LCD_Char_1.c ****     * Parameters:
 553:.\Generated_Source\PSoC5/LCD_Char_1.c ****     *  value: The byte to be printed out as ASCII characters.
 554:.\Generated_Source\PSoC5/LCD_Char_1.c ****     *
 555:.\Generated_Source\PSoC5/LCD_Char_1.c ****     * Return:
 556:.\Generated_Source\PSoC5/LCD_Char_1.c ****     *  None.
 557:.\Generated_Source\PSoC5/LCD_Char_1.c ****     *
 558:.\Generated_Source\PSoC5/LCD_Char_1.c ****     *******************************************************************************/
 559:.\Generated_Source\PSoC5/LCD_Char_1.c ****     void LCD_Char_1_PrintInt8(uint8 value) 
 560:.\Generated_Source\PSoC5/LCD_Char_1.c ****     {
 896              		.loc 1 560 0
 897              		.cfi_startproc
 898              		@ args = 0, pretend = 0, frame = 8
 899              		@ frame_needed = 1, uses_anonymous_args = 0
 900 0000 80B5     		push	{r7, lr}
 901              	.LCFI32:
 902              		.cfi_def_cfa_offset 8
 903              		.cfi_offset 7, -8
 904              		.cfi_offset 14, -4
 905 0002 82B0     		sub	sp, sp, #8
 906              	.LCFI33:
 907              		.cfi_def_cfa_offset 16
 908 0004 00AF     		add	r7, sp, #0
 909              	.LCFI34:
 910              		.cfi_def_cfa_register 7
 911 0006 0346     		mov	r3, r0
 912 0008 FB71     		strb	r3, [r7, #7]
 561:.\Generated_Source\PSoC5/LCD_Char_1.c ****         static char8 const CYCODE LCD_Char_1_hex[16u] = "0123456789ABCDEF";
 562:.\Generated_Source\PSoC5/LCD_Char_1.c ****         
 563:.\Generated_Source\PSoC5/LCD_Char_1.c ****         LCD_Char_1_PutChar((char8) LCD_Char_1_hex[value >> LCD_Char_1_BYTE_UPPER_NIBBLE_SHIFT]);
 913              		.loc 1 563 0
 914 000a FB79     		ldrb	r3, [r7, #7]	@ zero_extendqisi2
 915 000c 4FEA1313 		lsr	r3, r3, #4
 916 0010 DBB2     		uxtb	r3, r3
 917 0012 1A46     		mov	r2, r3
 918 0014 40F20003 		movw	r3, #:lower16:LCD_Char_1_hex.4834
ARM GAS  C:\Users\VICTOR~1\AppData\Local\Temp\ccRgJZPP.s 			page 27


 919 0018 C0F20003 		movt	r3, #:upper16:LCD_Char_1_hex.4834
 920 001c 9B5C     		ldrb	r3, [r3, r2]	@ zero_extendqisi2
 921 001e 1846     		mov	r0, r3
 922 0020 FFF7FEFF 		bl	LCD_Char_1_PutChar
 564:.\Generated_Source\PSoC5/LCD_Char_1.c ****         LCD_Char_1_PutChar((char8) LCD_Char_1_hex[value & LCD_Char_1_BYTE_LOWER_NIBBLE_MASK]);
 923              		.loc 1 564 0
 924 0024 FB79     		ldrb	r3, [r7, #7]	@ zero_extendqisi2
 925 0026 03F00F02 		and	r2, r3, #15
 926 002a 40F20003 		movw	r3, #:lower16:LCD_Char_1_hex.4834
 927 002e C0F20003 		movt	r3, #:upper16:LCD_Char_1_hex.4834
 928 0032 9B5C     		ldrb	r3, [r3, r2]	@ zero_extendqisi2
 929 0034 1846     		mov	r0, r3
 930 0036 FFF7FEFF 		bl	LCD_Char_1_PutChar
 565:.\Generated_Source\PSoC5/LCD_Char_1.c ****     }
 931              		.loc 1 565 0
 932 003a 07F10807 		add	r7, r7, #8
 933 003e BD46     		mov	sp, r7
 934 0040 80BD     		pop	{r7, pc}
 935              		.cfi_endproc
 936              	.LFE12:
 937              		.size	LCD_Char_1_PrintInt8, .-LCD_Char_1_PrintInt8
 938 0042 00BF     		.section	.text.LCD_Char_1_PrintInt16,"ax",%progbits
 939              		.align	2
 940              		.global	LCD_Char_1_PrintInt16
 941              		.thumb
 942              		.thumb_func
 943              		.type	LCD_Char_1_PrintInt16, %function
 944              	LCD_Char_1_PrintInt16:
 945              	.LFB13:
 566:.\Generated_Source\PSoC5/LCD_Char_1.c **** 
 567:.\Generated_Source\PSoC5/LCD_Char_1.c **** 
 568:.\Generated_Source\PSoC5/LCD_Char_1.c ****     /*******************************************************************************
 569:.\Generated_Source\PSoC5/LCD_Char_1.c ****     *  Function Name: LCD_Char_1_PrintInt16
 570:.\Generated_Source\PSoC5/LCD_Char_1.c ****     ********************************************************************************
 571:.\Generated_Source\PSoC5/LCD_Char_1.c ****     *
 572:.\Generated_Source\PSoC5/LCD_Char_1.c ****     * Summary:
 573:.\Generated_Source\PSoC5/LCD_Char_1.c ****     *  Print a uint16 as four ASCII characters.
 574:.\Generated_Source\PSoC5/LCD_Char_1.c ****     *
 575:.\Generated_Source\PSoC5/LCD_Char_1.c ****     * Parameters:
 576:.\Generated_Source\PSoC5/LCD_Char_1.c ****     *  value: The uint16 to be printed out as ASCII characters.
 577:.\Generated_Source\PSoC5/LCD_Char_1.c ****     *
 578:.\Generated_Source\PSoC5/LCD_Char_1.c ****     * Return:
 579:.\Generated_Source\PSoC5/LCD_Char_1.c ****     *  None.
 580:.\Generated_Source\PSoC5/LCD_Char_1.c ****     *
 581:.\Generated_Source\PSoC5/LCD_Char_1.c ****     *******************************************************************************/
 582:.\Generated_Source\PSoC5/LCD_Char_1.c ****     void LCD_Char_1_PrintInt16(uint16 value) 
 583:.\Generated_Source\PSoC5/LCD_Char_1.c ****     {
 946              		.loc 1 583 0
 947              		.cfi_startproc
 948              		@ args = 0, pretend = 0, frame = 8
 949              		@ frame_needed = 1, uses_anonymous_args = 0
 950 0000 80B5     		push	{r7, lr}
 951              	.LCFI35:
 952              		.cfi_def_cfa_offset 8
 953              		.cfi_offset 7, -8
 954              		.cfi_offset 14, -4
 955 0002 82B0     		sub	sp, sp, #8
ARM GAS  C:\Users\VICTOR~1\AppData\Local\Temp\ccRgJZPP.s 			page 28


 956              	.LCFI36:
 957              		.cfi_def_cfa_offset 16
 958 0004 00AF     		add	r7, sp, #0
 959              	.LCFI37:
 960              		.cfi_def_cfa_register 7
 961 0006 0346     		mov	r3, r0
 962 0008 FB80     		strh	r3, [r7, #6]	@ movhi
 584:.\Generated_Source\PSoC5/LCD_Char_1.c ****         LCD_Char_1_PrintInt8((uint8)(value >> LCD_Char_1_U16_UPPER_BYTE_SHIFT));
 963              		.loc 1 584 0
 964 000a FB88     		ldrh	r3, [r7, #6]
 965 000c 4FEA1323 		lsr	r3, r3, #8
 966 0010 9BB2     		uxth	r3, r3
 967 0012 DBB2     		uxtb	r3, r3
 968 0014 1846     		mov	r0, r3
 969 0016 FFF7FEFF 		bl	LCD_Char_1_PrintInt8
 585:.\Generated_Source\PSoC5/LCD_Char_1.c ****         LCD_Char_1_PrintInt8((uint8)(value & LCD_Char_1_U16_LOWER_BYTE_MASK));
 970              		.loc 1 585 0
 971 001a FB88     		ldrh	r3, [r7, #6]	@ movhi
 972 001c DBB2     		uxtb	r3, r3
 973 001e 1846     		mov	r0, r3
 974 0020 FFF7FEFF 		bl	LCD_Char_1_PrintInt8
 586:.\Generated_Source\PSoC5/LCD_Char_1.c ****     }
 975              		.loc 1 586 0
 976 0024 07F10807 		add	r7, r7, #8
 977 0028 BD46     		mov	sp, r7
 978 002a 80BD     		pop	{r7, pc}
 979              		.cfi_endproc
 980              	.LFE13:
 981              		.size	LCD_Char_1_PrintInt16, .-LCD_Char_1_PrintInt16
 982              		.section	.text.LCD_Char_1_PrintInt32,"ax",%progbits
 983              		.align	2
 984              		.global	LCD_Char_1_PrintInt32
 985              		.thumb
 986              		.thumb_func
 987              		.type	LCD_Char_1_PrintInt32, %function
 988              	LCD_Char_1_PrintInt32:
 989              	.LFB14:
 587:.\Generated_Source\PSoC5/LCD_Char_1.c **** 
 588:.\Generated_Source\PSoC5/LCD_Char_1.c ****     
 589:.\Generated_Source\PSoC5/LCD_Char_1.c ****     /*******************************************************************************
 590:.\Generated_Source\PSoC5/LCD_Char_1.c ****     *  Function Name: LCD_Char_1_PrintInt32
 591:.\Generated_Source\PSoC5/LCD_Char_1.c ****     ********************************************************************************
 592:.\Generated_Source\PSoC5/LCD_Char_1.c ****     *
 593:.\Generated_Source\PSoC5/LCD_Char_1.c ****     * Summary:
 594:.\Generated_Source\PSoC5/LCD_Char_1.c ****     *  Print a uint32 hexadecimal number as eight ASCII characters.
 595:.\Generated_Source\PSoC5/LCD_Char_1.c ****     *
 596:.\Generated_Source\PSoC5/LCD_Char_1.c ****     * Parameters:
 597:.\Generated_Source\PSoC5/LCD_Char_1.c ****     *  value: The uint32 to be printed out as ASCII characters.
 598:.\Generated_Source\PSoC5/LCD_Char_1.c ****     *
 599:.\Generated_Source\PSoC5/LCD_Char_1.c ****     * Return:
 600:.\Generated_Source\PSoC5/LCD_Char_1.c ****     *  None.
 601:.\Generated_Source\PSoC5/LCD_Char_1.c ****     *
 602:.\Generated_Source\PSoC5/LCD_Char_1.c ****     *******************************************************************************/
 603:.\Generated_Source\PSoC5/LCD_Char_1.c ****     void LCD_Char_1_PrintInt32(uint32 value) 
 604:.\Generated_Source\PSoC5/LCD_Char_1.c ****     {
 990              		.loc 1 604 0
 991              		.cfi_startproc
ARM GAS  C:\Users\VICTOR~1\AppData\Local\Temp\ccRgJZPP.s 			page 29


 992              		@ args = 0, pretend = 0, frame = 16
 993              		@ frame_needed = 1, uses_anonymous_args = 0
 994 0000 80B5     		push	{r7, lr}
 995              	.LCFI38:
 996              		.cfi_def_cfa_offset 8
 997              		.cfi_offset 7, -8
 998              		.cfi_offset 14, -4
 999 0002 84B0     		sub	sp, sp, #16
 1000              	.LCFI39:
 1001              		.cfi_def_cfa_offset 24
 1002 0004 00AF     		add	r7, sp, #0
 1003              	.LCFI40:
 1004              		.cfi_def_cfa_register 7
 1005 0006 7860     		str	r0, [r7, #4]
 605:.\Generated_Source\PSoC5/LCD_Char_1.c ****         uint8 shift = LCD_Char_1_32_BIT_SHIFT;
 1006              		.loc 1 605 0
 1007 0008 4FF02003 		mov	r3, #32
 1008 000c FB73     		strb	r3, [r7, #15]
 606:.\Generated_Source\PSoC5/LCD_Char_1.c ****         
 607:.\Generated_Source\PSoC5/LCD_Char_1.c ****         while (shift != 0u)
 1009              		.loc 1 607 0
 1010 000e 0BE0     		b	.L28
 1011              	.L29:
 608:.\Generated_Source\PSoC5/LCD_Char_1.c ****         {
 609:.\Generated_Source\PSoC5/LCD_Char_1.c ****             /* "shift" var should be subtracted by 8 prior shifting. This implements 
 610:.\Generated_Source\PSoC5/LCD_Char_1.c ****             * shifting by 24, 16, 8 and 0u. 
 611:.\Generated_Source\PSoC5/LCD_Char_1.c ****             */
 612:.\Generated_Source\PSoC5/LCD_Char_1.c ****             shift -= LCD_Char_1_8_BIT_SHIFT;
 1012              		.loc 1 612 0
 1013 0010 FB7B     		ldrb	r3, [r7, #15]
 1014 0012 A3F10803 		sub	r3, r3, #8
 1015 0016 FB73     		strb	r3, [r7, #15]
 613:.\Generated_Source\PSoC5/LCD_Char_1.c ****             
 614:.\Generated_Source\PSoC5/LCD_Char_1.c ****             /* Print 8 bits of uint32 hex number */
 615:.\Generated_Source\PSoC5/LCD_Char_1.c ****             LCD_Char_1_PrintInt8((uint8) ((uint32) (value >> shift)));
 1016              		.loc 1 615 0
 1017 0018 FB7B     		ldrb	r3, [r7, #15]	@ zero_extendqisi2
 1018 001a 7A68     		ldr	r2, [r7, #4]
 1019 001c 22FA03F3 		lsr	r3, r2, r3
 1020 0020 DBB2     		uxtb	r3, r3
 1021 0022 1846     		mov	r0, r3
 1022 0024 FFF7FEFF 		bl	LCD_Char_1_PrintInt8
 1023              	.L28:
 607:.\Generated_Source\PSoC5/LCD_Char_1.c ****         while (shift != 0u)
 1024              		.loc 1 607 0 discriminator 1
 1025 0028 FB7B     		ldrb	r3, [r7, #15]	@ zero_extendqisi2
 1026 002a 002B     		cmp	r3, #0
 1027 002c F0D1     		bne	.L29
 616:.\Generated_Source\PSoC5/LCD_Char_1.c ****         }
 617:.\Generated_Source\PSoC5/LCD_Char_1.c ****     }
 1028              		.loc 1 617 0
 1029 002e 07F11007 		add	r7, r7, #16
 1030 0032 BD46     		mov	sp, r7
 1031 0034 80BD     		pop	{r7, pc}
 1032              		.cfi_endproc
 1033              	.LFE14:
 1034              		.size	LCD_Char_1_PrintInt32, .-LCD_Char_1_PrintInt32
ARM GAS  C:\Users\VICTOR~1\AppData\Local\Temp\ccRgJZPP.s 			page 30


 1035 0036 00BF     		.section	.text.LCD_Char_1_PrintU32Number,"ax",%progbits
 1036              		.align	2
 1037              		.global	LCD_Char_1_PrintU32Number
 1038              		.thumb
 1039              		.thumb_func
 1040              		.type	LCD_Char_1_PrintU32Number, %function
 1041              	LCD_Char_1_PrintU32Number:
 1042              	.LFB15:
 618:.\Generated_Source\PSoC5/LCD_Char_1.c ****     
 619:.\Generated_Source\PSoC5/LCD_Char_1.c ****     
 620:.\Generated_Source\PSoC5/LCD_Char_1.c ****     /*******************************************************************************
 621:.\Generated_Source\PSoC5/LCD_Char_1.c ****     *  Function Name: LCD_Char_1_PrintNumber
 622:.\Generated_Source\PSoC5/LCD_Char_1.c ****     ********************************************************************************
 623:.\Generated_Source\PSoC5/LCD_Char_1.c ****     *
 624:.\Generated_Source\PSoC5/LCD_Char_1.c ****     * Summary:
 625:.\Generated_Source\PSoC5/LCD_Char_1.c ****     *  Print an uint16 value as a left-justified decimal value.
 626:.\Generated_Source\PSoC5/LCD_Char_1.c ****     *
 627:.\Generated_Source\PSoC5/LCD_Char_1.c ****     * Parameters:
 628:.\Generated_Source\PSoC5/LCD_Char_1.c ****     *  value: A 16-bit value to be printed in ASCII characters as a decimal number
 629:.\Generated_Source\PSoC5/LCD_Char_1.c ****     *
 630:.\Generated_Source\PSoC5/LCD_Char_1.c ****     * Return:
 631:.\Generated_Source\PSoC5/LCD_Char_1.c ****     *  None.
 632:.\Generated_Source\PSoC5/LCD_Char_1.c ****     *
 633:.\Generated_Source\PSoC5/LCD_Char_1.c ****     * Note:
 634:.\Generated_Source\PSoC5/LCD_Char_1.c ****     *  This function is implemented as a macro.
 635:.\Generated_Source\PSoC5/LCD_Char_1.c ****     *
 636:.\Generated_Source\PSoC5/LCD_Char_1.c ****     *******************************************************************************/
 637:.\Generated_Source\PSoC5/LCD_Char_1.c **** 
 638:.\Generated_Source\PSoC5/LCD_Char_1.c ****     
 639:.\Generated_Source\PSoC5/LCD_Char_1.c ****     /*******************************************************************************
 640:.\Generated_Source\PSoC5/LCD_Char_1.c ****     *  Function Name: LCD_Char_1_PrintU32Number
 641:.\Generated_Source\PSoC5/LCD_Char_1.c ****     ********************************************************************************
 642:.\Generated_Source\PSoC5/LCD_Char_1.c ****     *
 643:.\Generated_Source\PSoC5/LCD_Char_1.c ****     * Summary:
 644:.\Generated_Source\PSoC5/LCD_Char_1.c ****     *  Print an uint32 value as a left-justified decimal value.
 645:.\Generated_Source\PSoC5/LCD_Char_1.c ****     *
 646:.\Generated_Source\PSoC5/LCD_Char_1.c ****     * Parameters:
 647:.\Generated_Source\PSoC5/LCD_Char_1.c ****     *  value: A 32-bit value to be printed in ASCII characters as a decimal number
 648:.\Generated_Source\PSoC5/LCD_Char_1.c ****     *
 649:.\Generated_Source\PSoC5/LCD_Char_1.c ****     * Return:
 650:.\Generated_Source\PSoC5/LCD_Char_1.c ****     *  None.
 651:.\Generated_Source\PSoC5/LCD_Char_1.c ****     *
 652:.\Generated_Source\PSoC5/LCD_Char_1.c ****     *******************************************************************************/
 653:.\Generated_Source\PSoC5/LCD_Char_1.c ****     void LCD_Char_1_PrintU32Number(uint32 value) 
 654:.\Generated_Source\PSoC5/LCD_Char_1.c ****     {
 1043              		.loc 1 654 0
 1044              		.cfi_startproc
 1045              		@ args = 0, pretend = 0, frame = 24
 1046              		@ frame_needed = 1, uses_anonymous_args = 0
 1047 0000 80B5     		push	{r7, lr}
 1048              	.LCFI41:
 1049              		.cfi_def_cfa_offset 8
 1050              		.cfi_offset 7, -8
 1051              		.cfi_offset 14, -4
 1052 0002 86B0     		sub	sp, sp, #24
 1053              	.LCFI42:
 1054              		.cfi_def_cfa_offset 32
ARM GAS  C:\Users\VICTOR~1\AppData\Local\Temp\ccRgJZPP.s 			page 31


 1055 0004 00AF     		add	r7, sp, #0
 1056              	.LCFI43:
 1057              		.cfi_def_cfa_register 7
 1058 0006 7860     		str	r0, [r7, #4]
 655:.\Generated_Source\PSoC5/LCD_Char_1.c ****         uint8 tmpDigit;
 656:.\Generated_Source\PSoC5/LCD_Char_1.c ****         char8 number[LCD_Char_1_NUMBER_OF_REMAINDERS_U32 + 1u];
 657:.\Generated_Source\PSoC5/LCD_Char_1.c ****         uint8 digIndex = LCD_Char_1_NUMBER_OF_REMAINDERS_U32;
 1059              		.loc 1 657 0
 1060 0008 4FF00A03 		mov	r3, #10
 1061 000c FB75     		strb	r3, [r7, #23]
 658:.\Generated_Source\PSoC5/LCD_Char_1.c ****         
 659:.\Generated_Source\PSoC5/LCD_Char_1.c ****         /* This API will output a decimal number as a string and that string will be 
 660:.\Generated_Source\PSoC5/LCD_Char_1.c ****         * filled from end to start. Set Null termination character first.
 661:.\Generated_Source\PSoC5/LCD_Char_1.c ****         */
 662:.\Generated_Source\PSoC5/LCD_Char_1.c ****         number[digIndex] = (char8) '\0';
 1062              		.loc 1 662 0
 1063 000e FB7D     		ldrb	r3, [r7, #23]	@ zero_extendqisi2
 1064 0010 07F11801 		add	r1, r7, #24
 1065 0014 CB18     		adds	r3, r1, r3
 1066 0016 4FF00002 		mov	r2, #0
 1067 001a 03F8102C 		strb	r2, [r3, #-16]
 663:.\Generated_Source\PSoC5/LCD_Char_1.c ****         digIndex--;
 1068              		.loc 1 663 0
 1069 001e FB7D     		ldrb	r3, [r7, #23]
 1070 0020 03F1FF33 		add	r3, r3, #-1
 1071 0024 FB75     		strb	r3, [r7, #23]
 664:.\Generated_Source\PSoC5/LCD_Char_1.c ****         
 665:.\Generated_Source\PSoC5/LCD_Char_1.c ****         /* Load these in reverse order */
 666:.\Generated_Source\PSoC5/LCD_Char_1.c ****         while(value >= LCD_Char_1_TEN)
 1072              		.loc 1 666 0
 1073 0026 28E0     		b	.L31
 1074              	.L32:
 667:.\Generated_Source\PSoC5/LCD_Char_1.c ****         {
 668:.\Generated_Source\PSoC5/LCD_Char_1.c ****             /* Extract decimal digit, indexed by 'digIndex', from 'value' and
 669:.\Generated_Source\PSoC5/LCD_Char_1.c ****             * convert it to ASCII character.
 670:.\Generated_Source\PSoC5/LCD_Char_1.c ****             */
 671:.\Generated_Source\PSoC5/LCD_Char_1.c ****             tmpDigit = (uint8) (((uint8) (value % LCD_Char_1_TEN)) + (uint8) LCD_Char_1_ZERO_CHAR_A
 1075              		.loc 1 671 0
 1076 0028 7968     		ldr	r1, [r7, #4]
 1077 002a 4CF6CD43 		movw	r3, #52429
 1078 002e CCF6CC43 		movt	r3, 52428
 1079 0032 A3FB0123 		umull	r2, r3, r3, r1
 1080 0036 4FEAD302 		lsr	r2, r3, #3
 1081 003a 1346     		mov	r3, r2
 1082 003c 4FEA8303 		lsl	r3, r3, #2
 1083 0040 9B18     		adds	r3, r3, r2
 1084 0042 4FEA4303 		lsl	r3, r3, #1
 1085 0046 CA1A     		subs	r2, r1, r3
 1086 0048 D3B2     		uxtb	r3, r2
 1087 004a 03F13003 		add	r3, r3, #48
 1088 004e BB75     		strb	r3, [r7, #22]
 672:.\Generated_Source\PSoC5/LCD_Char_1.c ****             
 673:.\Generated_Source\PSoC5/LCD_Char_1.c ****             /* Temporary variable 'tmpDigit' is used to avoid Violation of MISRA rule 
 674:.\Generated_Source\PSoC5/LCD_Char_1.c ****             * #10.3.
 675:.\Generated_Source\PSoC5/LCD_Char_1.c ****             */
 676:.\Generated_Source\PSoC5/LCD_Char_1.c ****             number[digIndex] = (char8) tmpDigit;
 1089              		.loc 1 676 0
ARM GAS  C:\Users\VICTOR~1\AppData\Local\Temp\ccRgJZPP.s 			page 32


 1090 0050 FB7D     		ldrb	r3, [r7, #23]	@ zero_extendqisi2
 1091 0052 07F11801 		add	r1, r7, #24
 1092 0056 CB18     		adds	r3, r1, r3
 1093 0058 BA7D     		ldrb	r2, [r7, #22]
 1094 005a 03F8102C 		strb	r2, [r3, #-16]
 677:.\Generated_Source\PSoC5/LCD_Char_1.c ****             value /= LCD_Char_1_TEN;
 1095              		.loc 1 677 0
 1096 005e 7A68     		ldr	r2, [r7, #4]
 1097 0060 4CF6CD43 		movw	r3, #52429
 1098 0064 CCF6CC43 		movt	r3, 52428
 1099 0068 A3FB0213 		umull	r1, r3, r3, r2
 1100 006c 4FEAD303 		lsr	r3, r3, #3
 1101 0070 7B60     		str	r3, [r7, #4]
 678:.\Generated_Source\PSoC5/LCD_Char_1.c ****             digIndex--;
 1102              		.loc 1 678 0
 1103 0072 FB7D     		ldrb	r3, [r7, #23]
 1104 0074 03F1FF33 		add	r3, r3, #-1
 1105 0078 FB75     		strb	r3, [r7, #23]
 1106              	.L31:
 666:.\Generated_Source\PSoC5/LCD_Char_1.c ****         while(value >= LCD_Char_1_TEN)
 1107              		.loc 1 666 0 discriminator 1
 1108 007a 7B68     		ldr	r3, [r7, #4]
 1109 007c 092B     		cmp	r3, #9
 1110 007e D3D8     		bhi	.L32
 679:.\Generated_Source\PSoC5/LCD_Char_1.c ****         }
 680:.\Generated_Source\PSoC5/LCD_Char_1.c ****         
 681:.\Generated_Source\PSoC5/LCD_Char_1.c ****         /* Extract last decimal digit 'digIndex', from the 'value' and convert it
 682:.\Generated_Source\PSoC5/LCD_Char_1.c ****         * to ASCII character.
 683:.\Generated_Source\PSoC5/LCD_Char_1.c ****         */
 684:.\Generated_Source\PSoC5/LCD_Char_1.c ****         tmpDigit = (uint8) (((uint8)(value % LCD_Char_1_TEN)) + (uint8) LCD_Char_1_ZERO_CHAR_ASCII)
 1111              		.loc 1 684 0
 1112 0080 7968     		ldr	r1, [r7, #4]
 1113 0082 4CF6CD43 		movw	r3, #52429
 1114 0086 CCF6CC43 		movt	r3, 52428
 1115 008a A3FB0123 		umull	r2, r3, r3, r1
 1116 008e 4FEAD302 		lsr	r2, r3, #3
 1117 0092 1346     		mov	r3, r2
 1118 0094 4FEA8303 		lsl	r3, r3, #2
 1119 0098 9B18     		adds	r3, r3, r2
 1120 009a 4FEA4303 		lsl	r3, r3, #1
 1121 009e CA1A     		subs	r2, r1, r3
 1122 00a0 D3B2     		uxtb	r3, r2
 1123 00a2 03F13003 		add	r3, r3, #48
 1124 00a6 BB75     		strb	r3, [r7, #22]
 685:.\Generated_Source\PSoC5/LCD_Char_1.c ****         number[digIndex] = (char8) tmpDigit;
 1125              		.loc 1 685 0
 1126 00a8 FB7D     		ldrb	r3, [r7, #23]	@ zero_extendqisi2
 1127 00aa 07F11801 		add	r1, r7, #24
 1128 00ae CB18     		adds	r3, r1, r3
 1129 00b0 BA7D     		ldrb	r2, [r7, #22]
 1130 00b2 03F8102C 		strb	r2, [r3, #-16]
 686:.\Generated_Source\PSoC5/LCD_Char_1.c **** 
 687:.\Generated_Source\PSoC5/LCD_Char_1.c ****         /* Print out number */
 688:.\Generated_Source\PSoC5/LCD_Char_1.c ****         LCD_Char_1_PrintString(&number[digIndex]);
 1131              		.loc 1 688 0
 1132 00b6 FB7D     		ldrb	r3, [r7, #23]	@ zero_extendqisi2
 1133 00b8 07F10802 		add	r2, r7, #8
ARM GAS  C:\Users\VICTOR~1\AppData\Local\Temp\ccRgJZPP.s 			page 33


 1134 00bc D318     		adds	r3, r2, r3
 1135 00be 1846     		mov	r0, r3
 1136 00c0 FFF7FEFF 		bl	LCD_Char_1_PrintString
 689:.\Generated_Source\PSoC5/LCD_Char_1.c ****     }
 1137              		.loc 1 689 0
 1138 00c4 07F11807 		add	r7, r7, #24
 1139 00c8 BD46     		mov	sp, r7
 1140 00ca 80BD     		pop	{r7, pc}
 1141              		.cfi_endproc
 1142              	.LFE15:
 1143              		.size	LCD_Char_1_PrintU32Number, .-LCD_Char_1_PrintU32Number
 1144              		.section	.rodata
 1145              		.align	2
 1146              		.type	LCD_Char_1_hex.4834, %object
 1147              		.size	LCD_Char_1_hex.4834, 16
 1148              	LCD_Char_1_hex.4834:
 1149 0000 30313233 		.ascii	"0123456789ABCDEF"
 1149      34353637 
 1149      38394142 
 1149      43444546 
 1150              		.text
 1151              	.Letext0:
 1152              		.file 2 ".\\Generated_Source\\PSoC5\\cytypes.h"
 1153              		.file 3 ".\\Generated_Source\\PSoC5\\LCD_Char_1.h"