ARM GAS  C:\Users\VICTOR~1\AppData\Local\Temp\ccCygrwG.s 			page 1


   1              		.syntax unified
   2              		.cpu cortex-m3
   3              		.fpu softvfp
   4              		.eabi_attribute 20, 1
   5              		.eabi_attribute 21, 1
   6              		.eabi_attribute 23, 3
   7              		.eabi_attribute 24, 1
   8              		.eabi_attribute 25, 1
   9              		.eabi_attribute 26, 1
  10              		.eabi_attribute 30, 6
  11              		.eabi_attribute 34, 1
  12              		.eabi_attribute 18, 4
  13              		.thumb
  14              		.file	"main.c"
  15              		.text
  16              	.Ltext0:
  17              		.cfi_sections	.debug_frame
  18              		.section	.rodata
  19              		.align	2
  20              	.LC0:
  21 0000 54656D70 		.ascii	"Temp = \000"
  21      203D2000 
  22              		.align	2
  23              	.LC1:
  24 0008 2B00     		.ascii	"+\000"
  25 000a 0000     		.align	2
  26              	.LC2:
  27 000c 2000     		.ascii	" \000"
  28 000e 0000     		.align	2
  29              	.LC3:
  30 0010 4300     		.ascii	"C\000"
  31 0012 0000     		.align	2
  32              	.LC4:
  33 0014 25640A00 		.ascii	"%d\012\000"
  34              		.section	.text.main,"ax",%progbits
  35              		.align	2
  36              		.global	main
  37              		.thumb
  38              		.thumb_func
  39              		.type	main, %function
  40              	main:
  41              	.LFB56:
  42              		.file 1 ".\\main.c"
   1:.\main.c      **** /* ========================================
   2:.\main.c      ****  *
   3:.\main.c      ****  * Copyright YOUR COMPANY, THE YEAR
   4:.\main.c      ****  * All Rights Reserved
   5:.\main.c      ****  * UNPUBLISHED, LICENSED SOFTWARE.
   6:.\main.c      ****  *
   7:.\main.c      ****  * CONFIDENTIAL AND PROPRIETARY INFORMATION
   8:.\main.c      ****  * WHICH IS THE PROPERTY OF your company.
   9:.\main.c      ****  *
  10:.\main.c      ****  * ========================================
  11:.\main.c      **** */
  12:.\main.c      **** #include <project.h>
  13:.\main.c      **** #include <stdio.h>
  14:.\main.c      **** 
ARM GAS  C:\Users\VICTOR~1\AppData\Local\Temp\ccCygrwG.s 			page 2


  15:.\main.c      **** 
  16:.\main.c      **** 
  17:.\main.c      **** int main()
  18:.\main.c      **** {
  43              		.loc 1 18 0
  44              		.cfi_startproc
  45              		@ args = 0, pretend = 0, frame = 144
  46              		@ frame_needed = 1, uses_anonymous_args = 0
  47 0000 80B5     		push	{r7, lr}
  48              	.LCFI0:
  49              		.cfi_def_cfa_offset 8
  50              		.cfi_offset 7, -8
  51              		.cfi_offset 14, -4
  52 0002 A4B0     		sub	sp, sp, #144
  53              	.LCFI1:
  54              		.cfi_def_cfa_offset 152
  55 0004 00AF     		add	r7, sp, #0
  56              	.LCFI2:
  57              		.cfi_def_cfa_register 7
  19:.\main.c      ****     /* Place your initialization/startup code here (e.g. MyInst_Start()) */
  20:.\main.c      ****     // Initialize USB
  21:.\main.c      ****     USBUART_Start(0u, USBUART_3V_OPERATION);
  58              		.loc 1 21 0
  59 0006 4FF00000 		mov	r0, #0
  60 000a 4FF00001 		mov	r1, #0
  61 000e FFF7FEFF 		bl	USBUART_Start
  22:.\main.c      **** 
  23:.\main.c      ****     int16 temperature;
  24:.\main.c      ****     cystatus Status;
  25:.\main.c      ****     uint8 count;
  26:.\main.c      **** 
  27:.\main.c      ****     /* Initializing the LCD */
  28:.\main.c      ****     LCD_Char_1_Start();
  62              		.loc 1 28 0
  63 0012 FFF7FEFF 		bl	LCD_Char_1_Start
  29:.\main.c      **** 
  30:.\main.c      ****     
  31:.\main.c      ****     CyGlobalIntEnable; 
  64              		.loc 1 31 0
  65              	@ 31 ".\main.c" 1
  66 0016 62B6     		CPSIE   i
  67              	@ 0 "" 2
  32:.\main.c      ****     
  33:.\main.c      ****     // Wait for USB
  34:.\main.c      ****     while (!USBUART_GetConfiguration());
  68              		.loc 1 34 0
  69              		.thumb
  70 0018 00BF     		nop
  71              	.L2:
  72              		.loc 1 34 0 is_stmt 0 discriminator 1
  73 001a FFF7FEFF 		bl	USBUART_GetConfiguration
  74 001e 0346     		mov	r3, r0
  75 0020 002B     		cmp	r3, #0
  76 0022 FAD0     		beq	.L2
  35:.\main.c      ****     USBUART_CDC_Init();
  77              		.loc 1 35 0 is_stmt 1
  78 0024 FFF7FEFF 		bl	USBUART_CDC_Init
ARM GAS  C:\Users\VICTOR~1\AppData\Local\Temp\ccCygrwG.s 			page 3


  36:.\main.c      **** 
  37:.\main.c      ****     char8 usbBuffer[64] = "";
  79              		.loc 1 37 0
  80 0028 4FF00003 		mov	r3, #0
  81 002c 7B64     		str	r3, [r7, #68]
  82 002e 07F14802 		add	r2, r7, #72
  83 0032 4FF03C03 		mov	r3, #60
  84 0036 1046     		mov	r0, r2
  85 0038 4FF00001 		mov	r1, #0
  86 003c 1A46     		mov	r2, r3
  87 003e FFF7FEFF 		bl	memset
  38:.\main.c      ****     uint8 buffer[64] = "";
  88              		.loc 1 38 0
  89 0042 4FF00003 		mov	r3, #0
  90 0046 7B60     		str	r3, [r7, #4]
  91 0048 07F10802 		add	r2, r7, #8
  92 004c 4FF03C03 		mov	r3, #60
  93 0050 1046     		mov	r0, r2
  94 0052 4FF00001 		mov	r1, #0
  95 0056 1A46     		mov	r2, r3
  96 0058 FFF7FEFF 		bl	memset
  97 005c 00E0     		b	.L5
  98              	.L6:
  39:.\main.c      ****     
  40:.\main.c      ****     for(;;)
  41:.\main.c      ****     {
  42:.\main.c      ****         /* Place your application code here. */
  43:.\main.c      ****     
  44:.\main.c      ****         // Wait for temperature read command
  45:.\main.c      ****         if(USBUART_DataIsReady() != 0u)               /* Check for input data from PC */
  46:.\main.c      ****         {   
  47:.\main.c      ****             count = USBUART_GetAll(buffer);           /* Read received data and re-enable OUT endpo
  48:.\main.c      ****           
  49:.\main.c      ****             // Read data from sensor
  50:.\main.c      ****                 
  51:.\main.c      ****             Status = DieTemp_GetTemp(&temperature);
  52:.\main.c      **** 
  53:.\main.c      ****              /* Displaying the Die Temperature value on the LCD */
  54:.\main.c      ****             LCD_Char_1_Position(0u, 0u);
  55:.\main.c      ****             LCD_Char_1_PrintString("Temp = ");
  56:.\main.c      **** 
  57:.\main.c      ****             if (temperature >=0u )
  58:.\main.c      ****             {
  59:.\main.c      ****                 LCD_Char_1_PrintString("+");
  60:.\main.c      ****             }
  61:.\main.c      ****             else
  62:.\main.c      ****             {
  63:.\main.c      ****                 /* If the temperature value is negative, display "-" sign and make value positive *
  64:.\main.c      ****                 LCD_Char_1_PrintString("-");
  65:.\main.c      ****                 temperature = (uint16)(~temperature + 1u);
  66:.\main.c      ****             }
  67:.\main.c      ****             
  68:.\main.c      ****             LCD_Char_1_PrintNumber((uint16) (temperature));
  69:.\main.c      ****             LCD_Char_1_PrintString(" ");
  70:.\main.c      ****             
  71:.\main.c      ****             LCD_Char_1_PutChar(LCD_Char_1_CUSTOM_7);
  72:.\main.c      ****             LCD_Char_1_PrintString("C");
ARM GAS  C:\Users\VICTOR~1\AppData\Local\Temp\ccCygrwG.s 			page 4


  73:.\main.c      **** 
  74:.\main.c      ****             
  75:.\main.c      ****             sprintf(usbBuffer,"%d\n", temperature);
  76:.\main.c      **** 
  77:.\main.c      ****             // Send the data read
  78:.\main.c      ****             while(USBUART_CDCIsReady() == 0u);
  79:.\main.c      ****             USBUART_PutString(usbBuffer);
  80:.\main.c      ****         }
  81:.\main.c      ****     }
  99              		.loc 1 81 0
 100 005e 00BF     		nop
 101              	.L5:
  45:.\main.c      ****         if(USBUART_DataIsReady() != 0u)               /* Check for input data from PC */
 102              		.loc 1 45 0
 103 0060 FFF7FEFF 		bl	USBUART_DataIsReady
 104 0064 0346     		mov	r3, r0
 105 0066 002B     		cmp	r3, #0
 106 0068 F9D0     		beq	.L6
  47:.\main.c      ****             count = USBUART_GetAll(buffer);           /* Read received data and re-enable OUT endpo
 107              		.loc 1 47 0
 108 006a 07F10403 		add	r3, r7, #4
 109 006e 1846     		mov	r0, r3
 110 0070 FFF7FEFF 		bl	USBUART_GetAll
 111 0074 0346     		mov	r3, r0
 112 0076 87F88F30 		strb	r3, [r7, #143]
  51:.\main.c      ****             Status = DieTemp_GetTemp(&temperature);
 113              		.loc 1 51 0
 114 007a 07F18603 		add	r3, r7, #134
 115 007e 1846     		mov	r0, r3
 116 0080 FFF7FEFF 		bl	DieTemp_GetTemp
 117 0084 C7F88800 		str	r0, [r7, #136]
  54:.\main.c      ****             LCD_Char_1_Position(0u, 0u);
 118              		.loc 1 54 0
 119 0088 4FF00000 		mov	r0, #0
 120 008c 4FF00001 		mov	r1, #0
 121 0090 FFF7FEFF 		bl	LCD_Char_1_Position
  55:.\main.c      ****             LCD_Char_1_PrintString("Temp = ");
 122              		.loc 1 55 0
 123 0094 40F20000 		movw	r0, #:lower16:.LC0
 124 0098 C0F20000 		movt	r0, #:upper16:.LC0
 125 009c FFF7FEFF 		bl	LCD_Char_1_PrintString
  59:.\main.c      ****                 LCD_Char_1_PrintString("+");
 126              		.loc 1 59 0
 127 00a0 40F20000 		movw	r0, #:lower16:.LC1
 128 00a4 C0F20000 		movt	r0, #:upper16:.LC1
 129 00a8 FFF7FEFF 		bl	LCD_Char_1_PrintString
  68:.\main.c      ****             LCD_Char_1_PrintNumber((uint16) (temperature));
 130              		.loc 1 68 0
 131 00ac B7F88630 		ldrh	r3, [r7, #134]
 132 00b0 9BB2     		uxth	r3, r3
 133 00b2 1846     		mov	r0, r3
 134 00b4 FFF7FEFF 		bl	LCD_Char_1_PrintU32Number
  69:.\main.c      ****             LCD_Char_1_PrintString(" ");
 135              		.loc 1 69 0
 136 00b8 40F20000 		movw	r0, #:lower16:.LC2
 137 00bc C0F20000 		movt	r0, #:upper16:.LC2
 138 00c0 FFF7FEFF 		bl	LCD_Char_1_PrintString
ARM GAS  C:\Users\VICTOR~1\AppData\Local\Temp\ccCygrwG.s 			page 5


  71:.\main.c      ****             LCD_Char_1_PutChar(LCD_Char_1_CUSTOM_7);
 139              		.loc 1 71 0
 140 00c4 4FF00700 		mov	r0, #7
 141 00c8 FFF7FEFF 		bl	LCD_Char_1_PutChar
  72:.\main.c      ****             LCD_Char_1_PrintString("C");
 142              		.loc 1 72 0
 143 00cc 40F20000 		movw	r0, #:lower16:.LC3
 144 00d0 C0F20000 		movt	r0, #:upper16:.LC3
 145 00d4 FFF7FEFF 		bl	LCD_Char_1_PrintString
  75:.\main.c      ****             sprintf(usbBuffer,"%d\n", temperature);
 146              		.loc 1 75 0
 147 00d8 B7F88630 		ldrh	r3, [r7, #134]
 148 00dc 1BB2     		sxth	r3, r3
 149 00de 07F14402 		add	r2, r7, #68
 150 00e2 1046     		mov	r0, r2
 151 00e4 40F20001 		movw	r1, #:lower16:.LC4
 152 00e8 C0F20001 		movt	r1, #:upper16:.LC4
 153 00ec 1A46     		mov	r2, r3
 154 00ee FFF7FEFF 		bl	sprintf
  78:.\main.c      ****             while(USBUART_CDCIsReady() == 0u);
 155              		.loc 1 78 0
 156 00f2 00BF     		nop
 157              	.L4:
  78:.\main.c      ****             while(USBUART_CDCIsReady() == 0u);
 158              		.loc 1 78 0 is_stmt 0 discriminator 1
 159 00f4 FFF7FEFF 		bl	USBUART_CDCIsReady
 160 00f8 0346     		mov	r3, r0
 161 00fa 002B     		cmp	r3, #0
 162 00fc FAD0     		beq	.L4
  79:.\main.c      ****             USBUART_PutString(usbBuffer);
 163              		.loc 1 79 0 is_stmt 1
 164 00fe 07F14403 		add	r3, r7, #68
 165 0102 1846     		mov	r0, r3
 166 0104 FFF7FEFF 		bl	USBUART_PutString
 167              		.loc 1 81 0
 168 0108 A9E7     		b	.L6
 169              		.cfi_endproc
 170              	.LFE56:
 171              		.size	main, .-main
 172 010a 00BF     		.text
 173              	.Letext0:
 174              		.file 2 "c:\\program files (x86)\\cypress\\psoc creator\\3.0\\psoc creator\\import\\gnu_cs\\arm\\4
 175              		.file 3 "./Generated_Source/PSoC5/cytypes.h"
 176              		.file 4 "./Generated_Source/PSoC5/core_cm3.h"