ARM GAS  C:\Users\VICTOR~1\AppData\Local\Temp\ccaFFVqu.s 			page 1


   1              		.syntax unified
   2              		.cpu cortex-m3
   3              		.fpu softvfp
   4              		.eabi_attribute 20, 1
   5              		.eabi_attribute 21, 1
   6              		.eabi_attribute 23, 3
   7              		.eabi_attribute 24, 1
   8              		.eabi_attribute 25, 1
   9              		.eabi_attribute 26, 1
  10              		.eabi_attribute 30, 6
  11              		.eabi_attribute 34, 1
  12              		.eabi_attribute 18, 4
  13              		.thumb
  14              		.file	"DieTemp.c"
  15              		.text
  16              	.Ltext0:
  17              		.cfi_sections	.debug_frame
  18              		.section	.text.DieTemp_Start,"ax",%progbits
  19              		.align	2
  20              		.global	DieTemp_Start
  21              		.thumb
  22              		.thumb_func
  23              		.type	DieTemp_Start, %function
  24              	DieTemp_Start:
  25              	.LFB0:
  26              		.file 1 ".\\Generated_Source\\PSoC5\\DieTemp.c"
   1:.\Generated_Source\PSoC5/DieTemp.c **** /*******************************************************************************
   2:.\Generated_Source\PSoC5/DieTemp.c **** * File Name: DieTemp_DieTemp.c
   3:.\Generated_Source\PSoC5/DieTemp.c **** * Version 2.0
   4:.\Generated_Source\PSoC5/DieTemp.c **** *
   5:.\Generated_Source\PSoC5/DieTemp.c **** * Description:
   6:.\Generated_Source\PSoC5/DieTemp.c **** *  Provides the API to acquire the die temperature.
   7:.\Generated_Source\PSoC5/DieTemp.c **** *
   8:.\Generated_Source\PSoC5/DieTemp.c **** ********************************************************************************
   9:.\Generated_Source\PSoC5/DieTemp.c **** * Copyright 2008-2012, Cypress Semiconductor Corporation.  All rights reserved.
  10:.\Generated_Source\PSoC5/DieTemp.c **** * You may use this file only in accordance with the license, terms, conditions,
  11:.\Generated_Source\PSoC5/DieTemp.c **** * disclaimers, and limitations in the end user license agreement accompanying
  12:.\Generated_Source\PSoC5/DieTemp.c **** * the software package with which this file was provided.
  13:.\Generated_Source\PSoC5/DieTemp.c **** *******************************************************************************/
  14:.\Generated_Source\PSoC5/DieTemp.c **** 
  15:.\Generated_Source\PSoC5/DieTemp.c **** 
  16:.\Generated_Source\PSoC5/DieTemp.c **** #include <cydevice_trm.H>
  17:.\Generated_Source\PSoC5/DieTemp.c **** #include <DieTemp.h>
  18:.\Generated_Source\PSoC5/DieTemp.c **** 
  19:.\Generated_Source\PSoC5/DieTemp.c **** 
  20:.\Generated_Source\PSoC5/DieTemp.c **** #define DieTemp_NUMBER_OF_SAMPLES      (0x1u)
  21:.\Generated_Source\PSoC5/DieTemp.c **** #define DieTemp_TIMER_PERIOD           (0xFFFu)
  22:.\Generated_Source\PSoC5/DieTemp.c **** #define DieTemp_CLK_DIV_SELECT         (0x4u)
  23:.\Generated_Source\PSoC5/DieTemp.c **** #define DieTemp_SPC_CLK_PERIOD         (120u) /* In nano seconds. */
  24:.\Generated_Source\PSoC5/DieTemp.c **** #define DieTemp_NANO_TO_MILLI_FACTOR   (1000000u)
  25:.\Generated_Source\PSoC5/DieTemp.c **** #define DieTemp_FRM_EXEC_TIME          (1000u) /* In nano seconds. */
  26:.\Generated_Source\PSoC5/DieTemp.c **** 
  27:.\Generated_Source\PSoC5/DieTemp.c **** #define DieTemp_GET_TEMPR_TIME     (uint32)(((((uint32)1u << (DieTemp_NUMBER_OF_SAMPLES + 1u))) * \
  28:.\Generated_Source\PSoC5/DieTemp.c ****                                                 ((uint32)(DieTemp_SPC_CLK_PERIOD * \
  29:.\Generated_Source\PSoC5/DieTemp.c ****                                                 DieTemp_CLK_DIV_SELECT)) * \
  30:.\Generated_Source\PSoC5/DieTemp.c ****                                                 ((uint32)DieTemp_TIMER_PERIOD)) + \
  31:.\Generated_Source\PSoC5/DieTemp.c ****                                                 (uint32)DieTemp_FRM_EXEC_TIME)
ARM GAS  C:\Users\VICTOR~1\AppData\Local\Temp\ccaFFVqu.s 			page 2


  32:.\Generated_Source\PSoC5/DieTemp.c **** 
  33:.\Generated_Source\PSoC5/DieTemp.c **** #define DieTemp_MAX_WAIT           (uint16)(((DieTemp_GET_TEMPR_TIME + \
  34:.\Generated_Source\PSoC5/DieTemp.c ****                                                 DieTemp_NANO_TO_MILLI_FACTOR) - 1u) / \
  35:.\Generated_Source\PSoC5/DieTemp.c ****                                                 DieTemp_NANO_TO_MILLI_FACTOR)  /* In milli seconds.
  36:.\Generated_Source\PSoC5/DieTemp.c **** 
  37:.\Generated_Source\PSoC5/DieTemp.c **** static cystatus DieTemp_GetTempT(int16 * temperature);
  38:.\Generated_Source\PSoC5/DieTemp.c **** 
  39:.\Generated_Source\PSoC5/DieTemp.c **** 
  40:.\Generated_Source\PSoC5/DieTemp.c **** /*******************************************************************************
  41:.\Generated_Source\PSoC5/DieTemp.c **** * Function Name: DieTemp_Start
  42:.\Generated_Source\PSoC5/DieTemp.c **** ********************************************************************************
  43:.\Generated_Source\PSoC5/DieTemp.c **** *
  44:.\Generated_Source\PSoC5/DieTemp.c **** * Summary:
  45:.\Generated_Source\PSoC5/DieTemp.c **** *  Starts the SPC command to get the die temperature. If this function is
  46:.\Generated_Source\PSoC5/DieTemp.c **** *  called successfuly. The SPC will be locked and DieTemp_QueryDieTemp
  47:.\Generated_Source\PSoC5/DieTemp.c **** *  will have to be successfuly called to unlock it. CySpcUnlock() can also
  48:.\Generated_Source\PSoC5/DieTemp.c **** *  be called if the caller decides not to finish the temperature reading.
  49:.\Generated_Source\PSoC5/DieTemp.c **** *
  50:.\Generated_Source\PSoC5/DieTemp.c **** * Parameters:
  51:.\Generated_Source\PSoC5/DieTemp.c **** *  void.
  52:.\Generated_Source\PSoC5/DieTemp.c **** *
  53:.\Generated_Source\PSoC5/DieTemp.c **** * Return:
  54:.\Generated_Source\PSoC5/DieTemp.c **** *  CYRET_STARTED if the spc command was started sucessfuly.
  55:.\Generated_Source\PSoC5/DieTemp.c **** *  CYRET_UNKNOWN if the spc command failed.
  56:.\Generated_Source\PSoC5/DieTemp.c **** *  CYRET_LOCKED if the spc was busy.
  57:.\Generated_Source\PSoC5/DieTemp.c **** *
  58:.\Generated_Source\PSoC5/DieTemp.c **** *******************************************************************************/
  59:.\Generated_Source\PSoC5/DieTemp.c **** cystatus DieTemp_Start(void) 
  60:.\Generated_Source\PSoC5/DieTemp.c **** {
  27              		.loc 1 60 0
  28              		.cfi_startproc
  29              		@ args = 0, pretend = 0, frame = 8
  30              		@ frame_needed = 1, uses_anonymous_args = 0
  31 0000 80B5     		push	{r7, lr}
  32              		.cfi_def_cfa_offset 8
  33              		.cfi_offset 7, -8
  34              		.cfi_offset 14, -4
  35 0002 82B0     		sub	sp, sp, #8
  36              		.cfi_def_cfa_offset 16
  37 0004 00AF     		add	r7, sp, #0
  38              		.cfi_def_cfa_register 7
  61:.\Generated_Source\PSoC5/DieTemp.c ****     cystatus status;
  62:.\Generated_Source\PSoC5/DieTemp.c **** 
  63:.\Generated_Source\PSoC5/DieTemp.c ****     /* Plan for failure. */
  64:.\Generated_Source\PSoC5/DieTemp.c ****     status = CYRET_UNKNOWN;
  39              		.loc 1 64 0
  40 0006 4FF0FF33 		mov	r3, #-1
  41 000a 7B60     		str	r3, [r7, #4]
  65:.\Generated_Source\PSoC5/DieTemp.c **** 
  66:.\Generated_Source\PSoC5/DieTemp.c ****     /* Power up the SPC. */
  67:.\Generated_Source\PSoC5/DieTemp.c ****     CySpcStart();
  42              		.loc 1 67 0
  43 000c FFF7FEFF 		bl	CySpcStart
  68:.\Generated_Source\PSoC5/DieTemp.c **** 
  69:.\Generated_Source\PSoC5/DieTemp.c ****     if(CySpcLock() == CYRET_SUCCESS)
  44              		.loc 1 69 0
  45 0010 FFF7FEFF 		bl	CySpcLock
ARM GAS  C:\Users\VICTOR~1\AppData\Local\Temp\ccaFFVqu.s 			page 3


  46 0014 0346     		mov	r3, r0
  47 0016 002B     		cmp	r3, #0
  48 0018 0AD1     		bne	.L2
  70:.\Generated_Source\PSoC5/DieTemp.c ****     {
  71:.\Generated_Source\PSoC5/DieTemp.c ****         #if(CY_PSOC5A)
  72:.\Generated_Source\PSoC5/DieTemp.c ****             if(CYRET_STARTED == CySpcGetTemp(DieTemp_NUMBER_OF_SAMPLES,
  73:.\Generated_Source\PSoC5/DieTemp.c ****                                              DieTemp_TIMER_PERIOD,
  74:.\Generated_Source\PSoC5/DieTemp.c ****                                              DieTemp_CLK_DIV_SELECT))
  75:.\Generated_Source\PSoC5/DieTemp.c ****             {
  76:.\Generated_Source\PSoC5/DieTemp.c ****                 status = CYRET_STARTED;
  77:.\Generated_Source\PSoC5/DieTemp.c ****             }
  78:.\Generated_Source\PSoC5/DieTemp.c ****         #else
  79:.\Generated_Source\PSoC5/DieTemp.c ****             if(CYRET_STARTED == CySpcGetTemp(DieTemp_NUMBER_OF_SAMPLES))
  49              		.loc 1 79 0
  50 001a 0120     		movs	r0, #1
  51 001c FFF7FEFF 		bl	CySpcGetTemp
  52 0020 0346     		mov	r3, r0
  53 0022 072B     		cmp	r3, #7
  54 0024 01D1     		bne	.L3
  80:.\Generated_Source\PSoC5/DieTemp.c ****             {
  81:.\Generated_Source\PSoC5/DieTemp.c ****                 status = CYRET_STARTED;
  55              		.loc 1 81 0
  56 0026 0723     		movs	r3, #7
  57 0028 7B60     		str	r3, [r7, #4]
  58              	.L3:
  82:.\Generated_Source\PSoC5/DieTemp.c ****             }
  83:.\Generated_Source\PSoC5/DieTemp.c ****         #endif  /* (CY_PSOC5A) */
  84:.\Generated_Source\PSoC5/DieTemp.c ****         CySpcUnlock();
  59              		.loc 1 84 0
  60 002a FFF7FEFF 		bl	CySpcUnlock
  61 002e 01E0     		b	.L4
  62              	.L2:
  85:.\Generated_Source\PSoC5/DieTemp.c ****     }
  86:.\Generated_Source\PSoC5/DieTemp.c ****     else
  87:.\Generated_Source\PSoC5/DieTemp.c ****     {
  88:.\Generated_Source\PSoC5/DieTemp.c ****         status = CYRET_LOCKED;
  63              		.loc 1 88 0
  64 0030 0423     		movs	r3, #4
  65 0032 7B60     		str	r3, [r7, #4]
  66              	.L4:
  89:.\Generated_Source\PSoC5/DieTemp.c ****     }
  90:.\Generated_Source\PSoC5/DieTemp.c ****     return (status);
  67              		.loc 1 90 0
  68 0034 7B68     		ldr	r3, [r7, #4]
  91:.\Generated_Source\PSoC5/DieTemp.c **** }
  69              		.loc 1 91 0
  70 0036 1846     		mov	r0, r3
  71 0038 0837     		adds	r7, r7, #8
  72 003a BD46     		mov	sp, r7
  73              		@ sp needed
  74 003c 80BD     		pop	{r7, pc}
  75              		.cfi_endproc
  76              	.LFE0:
  77              		.size	DieTemp_Start, .-DieTemp_Start
  78 003e 00BF     		.section	.text.DieTemp_Stop,"ax",%progbits
  79              		.align	2
  80              		.global	DieTemp_Stop
ARM GAS  C:\Users\VICTOR~1\AppData\Local\Temp\ccaFFVqu.s 			page 4


  81              		.thumb
  82              		.thumb_func
  83              		.type	DieTemp_Stop, %function
  84              	DieTemp_Stop:
  85              	.LFB1:
  92:.\Generated_Source\PSoC5/DieTemp.c **** 
  93:.\Generated_Source\PSoC5/DieTemp.c **** 
  94:.\Generated_Source\PSoC5/DieTemp.c **** /*******************************************************************************
  95:.\Generated_Source\PSoC5/DieTemp.c **** * FUNCTION NAME:   DieTemp_Stop
  96:.\Generated_Source\PSoC5/DieTemp.c **** ********************************************************************************
  97:.\Generated_Source\PSoC5/DieTemp.c **** *
  98:.\Generated_Source\PSoC5/DieTemp.c **** * Summary:
  99:.\Generated_Source\PSoC5/DieTemp.c **** *  There is no need to stop or disable this component. This component is
 100:.\Generated_Source\PSoC5/DieTemp.c **** *  naturally a slave that sends request to SPC through SPC API of cy_boot
 101:.\Generated_Source\PSoC5/DieTemp.c **** *  and waits for data to be ready or in case of non-blocking operation it
 102:.\Generated_Source\PSoC5/DieTemp.c **** *  sends request to SPC and user can manually poll the result.
 103:.\Generated_Source\PSoC5/DieTemp.c **** *
 104:.\Generated_Source\PSoC5/DieTemp.c **** * Parameters:
 105:.\Generated_Source\PSoC5/DieTemp.c **** *  void
 106:.\Generated_Source\PSoC5/DieTemp.c **** *
 107:.\Generated_Source\PSoC5/DieTemp.c **** * Return:
 108:.\Generated_Source\PSoC5/DieTemp.c **** *  void
 109:.\Generated_Source\PSoC5/DieTemp.c **** *
 110:.\Generated_Source\PSoC5/DieTemp.c **** *******************************************************************************/
 111:.\Generated_Source\PSoC5/DieTemp.c **** void DieTemp_Stop(void) 
 112:.\Generated_Source\PSoC5/DieTemp.c **** {
  86              		.loc 1 112 0
  87              		.cfi_startproc
  88              		@ args = 0, pretend = 0, frame = 0
  89              		@ frame_needed = 1, uses_anonymous_args = 0
  90              		@ link register save eliminated.
  91 0000 80B4     		push	{r7}
  92              		.cfi_def_cfa_offset 4
  93              		.cfi_offset 7, -4
  94 0002 00AF     		add	r7, sp, #0
  95              		.cfi_def_cfa_register 7
 113:.\Generated_Source\PSoC5/DieTemp.c ****     /* There aren't anything to stop */
 114:.\Generated_Source\PSoC5/DieTemp.c **** }
  96              		.loc 1 114 0
  97 0004 BD46     		mov	sp, r7
  98              		@ sp needed
  99 0006 5DF8047B 		ldr	r7, [sp], #4
 100 000a 7047     		bx	lr
 101              		.cfi_endproc
 102              	.LFE1:
 103              		.size	DieTemp_Stop, .-DieTemp_Stop
 104              		.section	.text.DieTemp_Query,"ax",%progbits
 105              		.align	2
 106              		.global	DieTemp_Query
 107              		.thumb
 108              		.thumb_func
 109              		.type	DieTemp_Query, %function
 110              	DieTemp_Query:
 111              	.LFB2:
 115:.\Generated_Source\PSoC5/DieTemp.c **** 
 116:.\Generated_Source\PSoC5/DieTemp.c **** 
 117:.\Generated_Source\PSoC5/DieTemp.c **** /*******************************************************************************
ARM GAS  C:\Users\VICTOR~1\AppData\Local\Temp\ccaFFVqu.s 			page 5


 118:.\Generated_Source\PSoC5/DieTemp.c **** * Function Name: DieTemp_Query
 119:.\Generated_Source\PSoC5/DieTemp.c **** ********************************************************************************
 120:.\Generated_Source\PSoC5/DieTemp.c **** *
 121:.\Generated_Source\PSoC5/DieTemp.c **** * Summary:
 122:.\Generated_Source\PSoC5/DieTemp.c **** *  Querys the SPC to see if the termperature command is finished.
 123:.\Generated_Source\PSoC5/DieTemp.c **** *
 124:.\Generated_Source\PSoC5/DieTemp.c **** * Parameters:
 125:.\Generated_Source\PSoC5/DieTemp.c **** *  temperature: Address to store the two byte temperature value.
 126:.\Generated_Source\PSoC5/DieTemp.c **** *
 127:.\Generated_Source\PSoC5/DieTemp.c **** * Return:
 128:.\Generated_Source\PSoC5/DieTemp.c **** *  CYRET_SUCCESS if the temperature command completed sucessfully.
 129:.\Generated_Source\PSoC5/DieTemp.c **** *  CYRET_UNKNOWN if the there was an spc failure.
 130:.\Generated_Source\PSoC5/DieTemp.c **** *  CYRET_STARTED if the temperature command has not completed.
 131:.\Generated_Source\PSoC5/DieTemp.c **** *  CYRET_TIMEOUT if waited to long before reading data.
 132:.\Generated_Source\PSoC5/DieTemp.c **** *
 133:.\Generated_Source\PSoC5/DieTemp.c **** *******************************************************************************/
 134:.\Generated_Source\PSoC5/DieTemp.c **** cystatus DieTemp_Query(int16 * temperature) 
 135:.\Generated_Source\PSoC5/DieTemp.c **** {
 112              		.loc 1 135 0
 113              		.cfi_startproc
 114              		@ args = 0, pretend = 0, frame = 16
 115              		@ frame_needed = 1, uses_anonymous_args = 0
 116 0000 80B5     		push	{r7, lr}
 117              		.cfi_def_cfa_offset 8
 118              		.cfi_offset 7, -8
 119              		.cfi_offset 14, -4
 120 0002 84B0     		sub	sp, sp, #16
 121              		.cfi_def_cfa_offset 24
 122 0004 00AF     		add	r7, sp, #0
 123              		.cfi_def_cfa_register 7
 124 0006 7860     		str	r0, [r7, #4]
 136:.\Generated_Source\PSoC5/DieTemp.c ****     uint8 temp[2u];
 137:.\Generated_Source\PSoC5/DieTemp.c ****     cystatus status;
 138:.\Generated_Source\PSoC5/DieTemp.c **** 
 139:.\Generated_Source\PSoC5/DieTemp.c **** 
 140:.\Generated_Source\PSoC5/DieTemp.c ****     if(CY_SPC_BUSY)
 125              		.loc 1 140 0
 126 0008 1D4B     		ldr	r3, .L18
 127 000a 1B78     		ldrb	r3, [r3]
 128 000c DBB2     		uxtb	r3, r3
 129 000e 03F00203 		and	r3, r3, #2
 130 0012 002B     		cmp	r3, #0
 131 0014 27D1     		bne	.L8
 141:.\Generated_Source\PSoC5/DieTemp.c ****     {
 142:.\Generated_Source\PSoC5/DieTemp.c ****         if((CY_SPC_STATUS_REG>>2u) == CYRET_SUCCESS)
 132              		.loc 1 142 0
 133 0016 1A4B     		ldr	r3, .L18
 134 0018 1B78     		ldrb	r3, [r3]
 135 001a DBB2     		uxtb	r3, r3
 136 001c 9B08     		lsrs	r3, r3, #2
 137 001e DBB2     		uxtb	r3, r3
 138 0020 002B     		cmp	r3, #0
 139 0022 1DD1     		bne	.L9
 143:.\Generated_Source\PSoC5/DieTemp.c ****         {
 144:.\Generated_Source\PSoC5/DieTemp.c ****             /* See if any data is ready. */
 145:.\Generated_Source\PSoC5/DieTemp.c ****             if(CySpcReadData(temp, 2u) == 2u)
 140              		.loc 1 145 0
ARM GAS  C:\Users\VICTOR~1\AppData\Local\Temp\ccaFFVqu.s 			page 6


 141 0024 07F10803 		add	r3, r7, #8
 142 0028 1846     		mov	r0, r3
 143 002a 0221     		movs	r1, #2
 144 002c FFF7FEFF 		bl	CySpcReadData
 145 0030 0346     		mov	r3, r0
 146 0032 022B     		cmp	r3, #2
 147 0034 10D1     		bne	.L10
 146:.\Generated_Source\PSoC5/DieTemp.c ****             {
 147:.\Generated_Source\PSoC5/DieTemp.c ****                 if(temp[0u] == 1u)
 148              		.loc 1 147 0
 149 0036 3B7A     		ldrb	r3, [r7, #8]	@ zero_extendqisi2
 150 0038 012B     		cmp	r3, #1
 151 003a 04D1     		bne	.L11
 148:.\Generated_Source\PSoC5/DieTemp.c ****                 {
 149:.\Generated_Source\PSoC5/DieTemp.c ****                     *temperature = (int16) ((uint16) temp[1]);
 152              		.loc 1 149 0
 153 003c 7B7A     		ldrb	r3, [r7, #9]	@ zero_extendqisi2
 154 003e 1A46     		mov	r2, r3
 155 0040 7B68     		ldr	r3, [r7, #4]
 156 0042 1A80     		strh	r2, [r3]	@ movhi
 157 0044 05E0     		b	.L12
 158              	.L11:
 150:.\Generated_Source\PSoC5/DieTemp.c ****                 }
 151:.\Generated_Source\PSoC5/DieTemp.c ****                 else
 152:.\Generated_Source\PSoC5/DieTemp.c ****                 {
 153:.\Generated_Source\PSoC5/DieTemp.c ****                     *temperature = (int16) - ((int16) temp[1]);
 159              		.loc 1 153 0
 160 0046 7B7A     		ldrb	r3, [r7, #9]	@ zero_extendqisi2
 161 0048 5B42     		negs	r3, r3
 162 004a 9BB2     		uxth	r3, r3
 163 004c 9AB2     		uxth	r2, r3
 164 004e 7B68     		ldr	r3, [r7, #4]
 165 0050 1A80     		strh	r2, [r3]	@ movhi
 166              	.L12:
 154:.\Generated_Source\PSoC5/DieTemp.c ****                 }
 155:.\Generated_Source\PSoC5/DieTemp.c ****                 status = CYRET_SUCCESS;
 167              		.loc 1 155 0 discriminator 1
 168 0052 0023     		movs	r3, #0
 169 0054 FB60     		str	r3, [r7, #12]
 170 0056 08E0     		b	.L15
 171              	.L10:
 156:.\Generated_Source\PSoC5/DieTemp.c ****             }
 157:.\Generated_Source\PSoC5/DieTemp.c ****             else
 158:.\Generated_Source\PSoC5/DieTemp.c ****             {
 159:.\Generated_Source\PSoC5/DieTemp.c ****                 status = CYRET_UNKNOWN;
 172              		.loc 1 159 0
 173 0058 4FF0FF33 		mov	r3, #-1
 174 005c FB60     		str	r3, [r7, #12]
 175 005e 04E0     		b	.L15
 176              	.L9:
 160:.\Generated_Source\PSoC5/DieTemp.c ****             }
 161:.\Generated_Source\PSoC5/DieTemp.c ****         }
 162:.\Generated_Source\PSoC5/DieTemp.c ****         else
 163:.\Generated_Source\PSoC5/DieTemp.c ****         {
 164:.\Generated_Source\PSoC5/DieTemp.c ****             status = CYRET_STARTED;
 177              		.loc 1 164 0
 178 0060 0723     		movs	r3, #7
ARM GAS  C:\Users\VICTOR~1\AppData\Local\Temp\ccaFFVqu.s 			page 7


 179 0062 FB60     		str	r3, [r7, #12]
 180 0064 01E0     		b	.L15
 181              	.L8:
 165:.\Generated_Source\PSoC5/DieTemp.c ****         }
 166:.\Generated_Source\PSoC5/DieTemp.c ****     }
 167:.\Generated_Source\PSoC5/DieTemp.c ****     else
 168:.\Generated_Source\PSoC5/DieTemp.c ****     {
 169:.\Generated_Source\PSoC5/DieTemp.c ****         status = CYRET_TIMEOUT;
 182              		.loc 1 169 0
 183 0066 1023     		movs	r3, #16
 184 0068 FB60     		str	r3, [r7, #12]
 185              	.L15:
 170:.\Generated_Source\PSoC5/DieTemp.c ****     }
 171:.\Generated_Source\PSoC5/DieTemp.c **** 
 172:.\Generated_Source\PSoC5/DieTemp.c ****     if(status != CYRET_STARTED)
 186              		.loc 1 172 0
 187 006a FB68     		ldr	r3, [r7, #12]
 188 006c 072B     		cmp	r3, #7
 189 006e 01D0     		beq	.L16
 173:.\Generated_Source\PSoC5/DieTemp.c ****     {
 174:.\Generated_Source\PSoC5/DieTemp.c ****         /* Unlock the SPC so someone else can use it. */
 175:.\Generated_Source\PSoC5/DieTemp.c ****         CySpcUnlock();
 190              		.loc 1 175 0
 191 0070 FFF7FEFF 		bl	CySpcUnlock
 192              	.L16:
 176:.\Generated_Source\PSoC5/DieTemp.c ****     }
 177:.\Generated_Source\PSoC5/DieTemp.c ****     return (status);
 193              		.loc 1 177 0
 194 0074 FB68     		ldr	r3, [r7, #12]
 178:.\Generated_Source\PSoC5/DieTemp.c **** }
 195              		.loc 1 178 0
 196 0076 1846     		mov	r0, r3
 197 0078 1037     		adds	r7, r7, #16
 198 007a BD46     		mov	sp, r7
 199              		@ sp needed
 200 007c 80BD     		pop	{r7, pc}
 201              	.L19:
 202 007e 00BF     		.align	2
 203              	.L18:
 204 0080 22470040 		.word	1073760034
 205              		.cfi_endproc
 206              	.LFE2:
 207              		.size	DieTemp_Query, .-DieTemp_Query
 208              		.section	.text.DieTemp_GetTempT,"ax",%progbits
 209              		.align	2
 210              		.thumb
 211              		.thumb_func
 212              		.type	DieTemp_GetTempT, %function
 213              	DieTemp_GetTempT:
 214              	.LFB3:
 179:.\Generated_Source\PSoC5/DieTemp.c **** 
 180:.\Generated_Source\PSoC5/DieTemp.c **** 
 181:.\Generated_Source\PSoC5/DieTemp.c **** /*******************************************************************************
 182:.\Generated_Source\PSoC5/DieTemp.c **** * Function Name: DieTemp_GetTemp
 183:.\Generated_Source\PSoC5/DieTemp.c **** ********************************************************************************
 184:.\Generated_Source\PSoC5/DieTemp.c **** *
 185:.\Generated_Source\PSoC5/DieTemp.c **** * Summary:
ARM GAS  C:\Users\VICTOR~1\AppData\Local\Temp\ccaFFVqu.s 			page 8


 186:.\Generated_Source\PSoC5/DieTemp.c **** *  Sets up the command to get the temperature and blocks until finished. After
 187:.\Generated_Source\PSoC5/DieTemp.c **** *  DieTemp_MAX_WAIT ticks the function will return even if the
 188:.\Generated_Source\PSoC5/DieTemp.c **** *  SPC has not finished.
 189:.\Generated_Source\PSoC5/DieTemp.c **** *
 190:.\Generated_Source\PSoC5/DieTemp.c **** * Parameters:
 191:.\Generated_Source\PSoC5/DieTemp.c **** *  temperature: Address to store the two byte temperature value.
 192:.\Generated_Source\PSoC5/DieTemp.c **** *
 193:.\Generated_Source\PSoC5/DieTemp.c **** * Return:
 194:.\Generated_Source\PSoC5/DieTemp.c **** *  CYRET_SUCCESS if the command was completed sucessfuly.
 195:.\Generated_Source\PSoC5/DieTemp.c **** *  Status code from DieTemp_Start or DieTemp_Query
 196:.\Generated_Source\PSoC5/DieTemp.c **** *
 197:.\Generated_Source\PSoC5/DieTemp.c **** *******************************************************************************/
 198:.\Generated_Source\PSoC5/DieTemp.c **** static cystatus DieTemp_GetTempT(int16 * temperature) 
 199:.\Generated_Source\PSoC5/DieTemp.c **** {
 215              		.loc 1 199 0
 216              		.cfi_startproc
 217              		@ args = 0, pretend = 0, frame = 16
 218              		@ frame_needed = 1, uses_anonymous_args = 0
 219 0000 80B5     		push	{r7, lr}
 220              		.cfi_def_cfa_offset 8
 221              		.cfi_offset 7, -8
 222              		.cfi_offset 14, -4
 223 0002 84B0     		sub	sp, sp, #16
 224              		.cfi_def_cfa_offset 24
 225 0004 00AF     		add	r7, sp, #0
 226              		.cfi_def_cfa_register 7
 227 0006 7860     		str	r0, [r7, #4]
 200:.\Generated_Source\PSoC5/DieTemp.c ****     uint16 us;
 201:.\Generated_Source\PSoC5/DieTemp.c ****     cystatus status;
 202:.\Generated_Source\PSoC5/DieTemp.c **** 
 203:.\Generated_Source\PSoC5/DieTemp.c ****     /* Start the temp reading */
 204:.\Generated_Source\PSoC5/DieTemp.c ****     status = DieTemp_Start();
 228              		.loc 1 204 0
 229 0008 FFF7FEFF 		bl	DieTemp_Start
 230 000c B860     		str	r0, [r7, #8]
 205:.\Generated_Source\PSoC5/DieTemp.c **** 
 206:.\Generated_Source\PSoC5/DieTemp.c ****     if(status == CYRET_STARTED)
 231              		.loc 1 206 0
 232 000e BB68     		ldr	r3, [r7, #8]
 233 0010 072B     		cmp	r3, #7
 234 0012 1DD1     		bne	.L21
 207:.\Generated_Source\PSoC5/DieTemp.c ****     {
 208:.\Generated_Source\PSoC5/DieTemp.c ****         /**************************************************************************
 209:.\Generated_Source\PSoC5/DieTemp.c ****         * Wait for SPC to finish temperature reading. If state will change and SPC
 210:.\Generated_Source\PSoC5/DieTemp.c ****         * will finish - break cycle.
 211:.\Generated_Source\PSoC5/DieTemp.c ****         * DieTemp_MAX_WAIT is maximum time in ms to wait for SPC.
 212:.\Generated_Source\PSoC5/DieTemp.c ****         **************************************************************************/
 213:.\Generated_Source\PSoC5/DieTemp.c ****         for (us=(DieTemp_MAX_WAIT*1000u); us>0u; us-=10u)
 235              		.loc 1 213 0
 236 0014 4FF4FA53 		mov	r3, #8000
 237 0018 FB81     		strh	r3, [r7, #14]	@ movhi
 238 001a 16E0     		b	.L22
 239              	.L25:
 214:.\Generated_Source\PSoC5/DieTemp.c ****         {
 215:.\Generated_Source\PSoC5/DieTemp.c ****             if((CYRET_STARTED != status)&&(CY_SPC_IDLE))
 240              		.loc 1 215 0
 241 001c BB68     		ldr	r3, [r7, #8]
ARM GAS  C:\Users\VICTOR~1\AppData\Local\Temp\ccaFFVqu.s 			page 9


 242 001e 072B     		cmp	r3, #7
 243 0020 06D0     		beq	.L23
 244              		.loc 1 215 0 is_stmt 0 discriminator 1
 245 0022 0E4B     		ldr	r3, .L27
 246 0024 1B78     		ldrb	r3, [r3]
 247 0026 DBB2     		uxtb	r3, r3
 248 0028 03F00203 		and	r3, r3, #2
 249 002c 002B     		cmp	r3, #0
 250 002e 0FD1     		bne	.L21
 251              	.L23:
 216:.\Generated_Source\PSoC5/DieTemp.c ****             {
 217:.\Generated_Source\PSoC5/DieTemp.c ****                 break;
 218:.\Generated_Source\PSoC5/DieTemp.c ****             }
 219:.\Generated_Source\PSoC5/DieTemp.c ****             else if(CYRET_STARTED == status)
 252              		.loc 1 219 0 is_stmt 1
 253 0030 BB68     		ldr	r3, [r7, #8]
 254 0032 072B     		cmp	r3, #7
 255 0034 03D1     		bne	.L24
 220:.\Generated_Source\PSoC5/DieTemp.c ****             {
 221:.\Generated_Source\PSoC5/DieTemp.c ****                 status = DieTemp_Query(temperature);
 256              		.loc 1 221 0
 257 0036 7868     		ldr	r0, [r7, #4]
 258 0038 FFF7FEFF 		bl	DieTemp_Query
 259 003c B860     		str	r0, [r7, #8]
 260              	.L24:
 222:.\Generated_Source\PSoC5/DieTemp.c ****             }
 223:.\Generated_Source\PSoC5/DieTemp.c ****             else
 224:.\Generated_Source\PSoC5/DieTemp.c ****             {
 225:.\Generated_Source\PSoC5/DieTemp.c ****                 /* SPC has not finished reading or isn't idle */
 226:.\Generated_Source\PSoC5/DieTemp.c ****             }
 227:.\Generated_Source\PSoC5/DieTemp.c ****             CyDelayUs(10u);
 261              		.loc 1 227 0
 262 003e 0A20     		movs	r0, #10
 263 0040 FFF7FEFF 		bl	CyDelayUs
 213:.\Generated_Source\PSoC5/DieTemp.c ****         for (us=(DieTemp_MAX_WAIT*1000u); us>0u; us-=10u)
 264              		.loc 1 213 0
 265 0044 FB89     		ldrh	r3, [r7, #14]	@ movhi
 266 0046 0A3B     		subs	r3, r3, #10
 267 0048 FB81     		strh	r3, [r7, #14]	@ movhi
 268              	.L22:
 213:.\Generated_Source\PSoC5/DieTemp.c ****         for (us=(DieTemp_MAX_WAIT*1000u); us>0u; us-=10u)
 269              		.loc 1 213 0 is_stmt 0 discriminator 1
 270 004a FB89     		ldrh	r3, [r7, #14]
 271 004c 002B     		cmp	r3, #0
 272 004e E5D1     		bne	.L25
 273              	.L21:
 228:.\Generated_Source\PSoC5/DieTemp.c ****         }
 229:.\Generated_Source\PSoC5/DieTemp.c ****     }
 230:.\Generated_Source\PSoC5/DieTemp.c **** 
 231:.\Generated_Source\PSoC5/DieTemp.c ****     return status;
 274              		.loc 1 231 0 is_stmt 1
 275 0050 BB68     		ldr	r3, [r7, #8]
 232:.\Generated_Source\PSoC5/DieTemp.c **** }
 276              		.loc 1 232 0
 277 0052 1846     		mov	r0, r3
 278 0054 1037     		adds	r7, r7, #16
 279 0056 BD46     		mov	sp, r7
ARM GAS  C:\Users\VICTOR~1\AppData\Local\Temp\ccaFFVqu.s 			page 10


 280              		@ sp needed
 281 0058 80BD     		pop	{r7, pc}
 282              	.L28:
 283 005a 00BF     		.align	2
 284              	.L27:
 285 005c 22470040 		.word	1073760034
 286              		.cfi_endproc
 287              	.LFE3:
 288              		.size	DieTemp_GetTempT, .-DieTemp_GetTempT
 289              		.section	.text.DieTemp_GetTemp,"ax",%progbits
 290              		.align	2
 291              		.global	DieTemp_GetTemp
 292              		.thumb
 293              		.thumb_func
 294              		.type	DieTemp_GetTemp, %function
 295              	DieTemp_GetTemp:
 296              	.LFB4:
 233:.\Generated_Source\PSoC5/DieTemp.c **** cystatus DieTemp_GetTemp(int16 * temperature) 
 234:.\Generated_Source\PSoC5/DieTemp.c **** {
 297              		.loc 1 234 0
 298              		.cfi_startproc
 299              		@ args = 0, pretend = 0, frame = 16
 300              		@ frame_needed = 1, uses_anonymous_args = 0
 301 0000 80B5     		push	{r7, lr}
 302              		.cfi_def_cfa_offset 8
 303              		.cfi_offset 7, -8
 304              		.cfi_offset 14, -4
 305 0002 84B0     		sub	sp, sp, #16
 306              		.cfi_def_cfa_offset 24
 307 0004 00AF     		add	r7, sp, #0
 308              		.cfi_def_cfa_register 7
 309 0006 7860     		str	r0, [r7, #4]
 235:.\Generated_Source\PSoC5/DieTemp.c ****     cystatus status;
 236:.\Generated_Source\PSoC5/DieTemp.c ****     uint8 count = 2u;
 310              		.loc 1 236 0
 311 0008 0223     		movs	r3, #2
 312 000a FB72     		strb	r3, [r7, #11]
 237:.\Generated_Source\PSoC5/DieTemp.c ****     while (count != 0u)
 313              		.loc 1 237 0
 314 000c 0AE0     		b	.L30
 315              	.L33:
 238:.\Generated_Source\PSoC5/DieTemp.c ****     {
 239:.\Generated_Source\PSoC5/DieTemp.c ****         status = DieTemp_GetTempT(temperature);
 316              		.loc 1 239 0
 317 000e 7868     		ldr	r0, [r7, #4]
 318 0010 FFF7FEFF 		bl	DieTemp_GetTempT
 319 0014 F860     		str	r0, [r7, #12]
 240:.\Generated_Source\PSoC5/DieTemp.c ****         if (status != CYRET_SUCCESS)
 320              		.loc 1 240 0
 321 0016 FB68     		ldr	r3, [r7, #12]
 322 0018 002B     		cmp	r3, #0
 323 001a 00D0     		beq	.L31
 241:.\Generated_Source\PSoC5/DieTemp.c ****         {
 242:.\Generated_Source\PSoC5/DieTemp.c ****             break;
 324              		.loc 1 242 0
 325 001c 05E0     		b	.L32
 326              	.L31:
ARM GAS  C:\Users\VICTOR~1\AppData\Local\Temp\ccaFFVqu.s 			page 11


 243:.\Generated_Source\PSoC5/DieTemp.c ****         }
 244:.\Generated_Source\PSoC5/DieTemp.c ****         count--;
 327              		.loc 1 244 0
 328 001e FB7A     		ldrb	r3, [r7, #11]	@ zero_extendqisi2
 329 0020 013B     		subs	r3, r3, #1
 330 0022 FB72     		strb	r3, [r7, #11]
 331              	.L30:
 237:.\Generated_Source\PSoC5/DieTemp.c ****     while (count != 0u)
 332              		.loc 1 237 0 discriminator 1
 333 0024 FB7A     		ldrb	r3, [r7, #11]	@ zero_extendqisi2
 334 0026 002B     		cmp	r3, #0
 335 0028 F1D1     		bne	.L33
 336              	.L32:
 245:.\Generated_Source\PSoC5/DieTemp.c ****     }
 246:.\Generated_Source\PSoC5/DieTemp.c ****     return status;
 337              		.loc 1 246 0
 338 002a FB68     		ldr	r3, [r7, #12]
 247:.\Generated_Source\PSoC5/DieTemp.c **** }
 339              		.loc 1 247 0
 340 002c 1846     		mov	r0, r3
 341 002e 1037     		adds	r7, r7, #16
 342 0030 BD46     		mov	sp, r7
 343              		@ sp needed
 344 0032 80BD     		pop	{r7, pc}
 345              		.cfi_endproc
 346              	.LFE4:
 347              		.size	DieTemp_GetTemp, .-DieTemp_GetTemp
 348              		.text
 349              	.Letext0:
 350              		.file 2 ".\\Generated_Source\\PSoC5/cytypes.h"