ARM GAS  C:\Users\VICTOR~1\AppData\Local\Temp\ccB0MfoX.s 			page 1


   1              		.syntax unified
   2              		.cpu cortex-m3
   3              		.fpu softvfp
   4              		.eabi_attribute 20, 1
   5              		.eabi_attribute 21, 1
   6              		.eabi_attribute 23, 3
   7              		.eabi_attribute 24, 1
   8              		.eabi_attribute 25, 1
   9              		.eabi_attribute 26, 1
  10              		.eabi_attribute 30, 6
  11              		.eabi_attribute 34, 1
  12              		.eabi_attribute 18, 4
  13              		.thumb
  14              		.file	"LCD_Char_1.c"
  15              		.text
  16              	.Ltext0:
  17              		.cfi_sections	.debug_frame
  18              		.global	LCD_Char_1_enableState
  19              		.bss
  20              		.type	LCD_Char_1_enableState, %object
  21              		.size	LCD_Char_1_enableState, 1
  22              	LCD_Char_1_enableState:
  23 0000 00       		.space	1
  24              		.global	LCD_Char_1_initVar
  25              		.type	LCD_Char_1_initVar, %object
  26              		.size	LCD_Char_1_initVar, 1
  27              	LCD_Char_1_initVar:
  28 0001 00       		.space	1
  29              		.section	.text.LCD_Char_1_Init,"ax",%progbits
  30              		.align	2
  31              		.global	LCD_Char_1_Init
  32              		.thumb
  33              		.thumb_func
  34              		.type	LCD_Char_1_Init, %function
  35              	LCD_Char_1_Init:
  36              	.LFB0:
  37              		.file 1 ".\\Generated_Source\\PSoC5\\LCD_Char_1.c"
   1:.\Generated_Source\PSoC5/LCD_Char_1.c **** /*******************************************************************************
   2:.\Generated_Source\PSoC5/LCD_Char_1.c **** * File Name: LCD_Char_1.c
   3:.\Generated_Source\PSoC5/LCD_Char_1.c **** * Version 2.0
   4:.\Generated_Source\PSoC5/LCD_Char_1.c **** *
   5:.\Generated_Source\PSoC5/LCD_Char_1.c **** * Description:
   6:.\Generated_Source\PSoC5/LCD_Char_1.c **** *  This file provides source code for the Character LCD component's API.
   7:.\Generated_Source\PSoC5/LCD_Char_1.c **** *
   8:.\Generated_Source\PSoC5/LCD_Char_1.c **** * Note:
   9:.\Generated_Source\PSoC5/LCD_Char_1.c **** *
  10:.\Generated_Source\PSoC5/LCD_Char_1.c **** ********************************************************************************
  11:.\Generated_Source\PSoC5/LCD_Char_1.c **** * Copyright 2008-2014, Cypress Semiconductor Corporation.  All rights reserved.
  12:.\Generated_Source\PSoC5/LCD_Char_1.c **** * You may use this file only in accordance with the license, terms, conditions,
  13:.\Generated_Source\PSoC5/LCD_Char_1.c **** * disclaimers, and limitations in the end user license agreement accompanying
  14:.\Generated_Source\PSoC5/LCD_Char_1.c **** * the software package with which this file was provided.
  15:.\Generated_Source\PSoC5/LCD_Char_1.c **** *******************************************************************************/
  16:.\Generated_Source\PSoC5/LCD_Char_1.c **** 
  17:.\Generated_Source\PSoC5/LCD_Char_1.c **** #include "CyLib.h"
  18:.\Generated_Source\PSoC5/LCD_Char_1.c **** #include "LCD_Char_1.h"
  19:.\Generated_Source\PSoC5/LCD_Char_1.c **** 
  20:.\Generated_Source\PSoC5/LCD_Char_1.c **** 
ARM GAS  C:\Users\VICTOR~1\AppData\Local\Temp\ccB0MfoX.s 			page 2


  21:.\Generated_Source\PSoC5/LCD_Char_1.c **** static void LCD_Char_1_WrDatNib(uint8 nibble) ;
  22:.\Generated_Source\PSoC5/LCD_Char_1.c **** static void LCD_Char_1_WrCntrlNib(uint8 nibble) ;
  23:.\Generated_Source\PSoC5/LCD_Char_1.c **** 
  24:.\Generated_Source\PSoC5/LCD_Char_1.c **** /* Stores state of component. Indicates whether component is or not
  25:.\Generated_Source\PSoC5/LCD_Char_1.c **** * in the enable state.
  26:.\Generated_Source\PSoC5/LCD_Char_1.c **** */
  27:.\Generated_Source\PSoC5/LCD_Char_1.c **** uint8 LCD_Char_1_enableState = 0u;
  28:.\Generated_Source\PSoC5/LCD_Char_1.c **** 
  29:.\Generated_Source\PSoC5/LCD_Char_1.c **** uint8 LCD_Char_1_initVar = 0u;
  30:.\Generated_Source\PSoC5/LCD_Char_1.c **** 
  31:.\Generated_Source\PSoC5/LCD_Char_1.c **** 
  32:.\Generated_Source\PSoC5/LCD_Char_1.c **** /*******************************************************************************
  33:.\Generated_Source\PSoC5/LCD_Char_1.c **** * Function Name: LCD_Char_1_Init
  34:.\Generated_Source\PSoC5/LCD_Char_1.c **** ********************************************************************************
  35:.\Generated_Source\PSoC5/LCD_Char_1.c **** *
  36:.\Generated_Source\PSoC5/LCD_Char_1.c **** * Summary:
  37:.\Generated_Source\PSoC5/LCD_Char_1.c **** *  Perform initialization required for the components normal work.
  38:.\Generated_Source\PSoC5/LCD_Char_1.c **** *  This function initializes the LCD hardware module as follows:
  39:.\Generated_Source\PSoC5/LCD_Char_1.c **** *        Enables a 4-bit interface
  40:.\Generated_Source\PSoC5/LCD_Char_1.c **** *        Clears the display
  41:.\Generated_Source\PSoC5/LCD_Char_1.c **** *        Enables the auto cursor increment
  42:.\Generated_Source\PSoC5/LCD_Char_1.c **** *        Resets the cursor to start position
  43:.\Generated_Source\PSoC5/LCD_Char_1.c **** *  Also, it loads a custom character set to the LCD if it was defined in the customizer.
  44:.\Generated_Source\PSoC5/LCD_Char_1.c **** *
  45:.\Generated_Source\PSoC5/LCD_Char_1.c **** * Parameters:
  46:.\Generated_Source\PSoC5/LCD_Char_1.c **** *  None.
  47:.\Generated_Source\PSoC5/LCD_Char_1.c **** *
  48:.\Generated_Source\PSoC5/LCD_Char_1.c **** * Return:
  49:.\Generated_Source\PSoC5/LCD_Char_1.c **** *  None.
  50:.\Generated_Source\PSoC5/LCD_Char_1.c **** *
  51:.\Generated_Source\PSoC5/LCD_Char_1.c **** * Reentrant:
  52:.\Generated_Source\PSoC5/LCD_Char_1.c **** *  No.
  53:.\Generated_Source\PSoC5/LCD_Char_1.c **** *
  54:.\Generated_Source\PSoC5/LCD_Char_1.c **** *******************************************************************************/
  55:.\Generated_Source\PSoC5/LCD_Char_1.c **** void LCD_Char_1_Init(void) 
  56:.\Generated_Source\PSoC5/LCD_Char_1.c **** {
  38              		.loc 1 56 0
  39              		.cfi_startproc
  40              		@ args = 0, pretend = 0, frame = 0
  41              		@ frame_needed = 1, uses_anonymous_args = 0
  42 0000 80B5     		push	{r7, lr}
  43              		.cfi_def_cfa_offset 8
  44              		.cfi_offset 7, -8
  45              		.cfi_offset 14, -4
  46 0002 00AF     		add	r7, sp, #0
  47              		.cfi_def_cfa_register 7
  57:.\Generated_Source\PSoC5/LCD_Char_1.c ****     /* INIT CODE */
  58:.\Generated_Source\PSoC5/LCD_Char_1.c ****     CyDelay(40u);                                                        /* Delay 40 ms */
  48              		.loc 1 58 0
  49 0004 2820     		movs	r0, #40
  50 0006 FFF7FEFF 		bl	CyDelay
  59:.\Generated_Source\PSoC5/LCD_Char_1.c ****     LCD_Char_1_WrCntrlNib(LCD_Char_1_DISPLAY_8_BIT_INIT);    /* Selects 8-bit mode */
  51              		.loc 1 59 0
  52 000a 0320     		movs	r0, #3
  53 000c FFF7FEFF 		bl	LCD_Char_1_WrCntrlNib
  60:.\Generated_Source\PSoC5/LCD_Char_1.c ****     CyDelay(5u);                                                         /* Delay 5 ms */
  54              		.loc 1 60 0
ARM GAS  C:\Users\VICTOR~1\AppData\Local\Temp\ccB0MfoX.s 			page 3


  55 0010 0520     		movs	r0, #5
  56 0012 FFF7FEFF 		bl	CyDelay
  61:.\Generated_Source\PSoC5/LCD_Char_1.c ****     LCD_Char_1_WrCntrlNib(LCD_Char_1_DISPLAY_8_BIT_INIT);    /* Selects 8-bit mode */
  57              		.loc 1 61 0
  58 0016 0320     		movs	r0, #3
  59 0018 FFF7FEFF 		bl	LCD_Char_1_WrCntrlNib
  62:.\Generated_Source\PSoC5/LCD_Char_1.c ****     CyDelay(15u);                                                        /* Delay 15 ms */
  60              		.loc 1 62 0
  61 001c 0F20     		movs	r0, #15
  62 001e FFF7FEFF 		bl	CyDelay
  63:.\Generated_Source\PSoC5/LCD_Char_1.c ****     LCD_Char_1_WrCntrlNib(LCD_Char_1_DISPLAY_8_BIT_INIT);    /* Selects 8-bit mode */
  63              		.loc 1 63 0
  64 0022 0320     		movs	r0, #3
  65 0024 FFF7FEFF 		bl	LCD_Char_1_WrCntrlNib
  64:.\Generated_Source\PSoC5/LCD_Char_1.c ****     CyDelay(1u);                                                         /* Delay 1 ms */
  66              		.loc 1 64 0
  67 0028 0120     		movs	r0, #1
  68 002a FFF7FEFF 		bl	CyDelay
  65:.\Generated_Source\PSoC5/LCD_Char_1.c ****     LCD_Char_1_WrCntrlNib(LCD_Char_1_DISPLAY_4_BIT_INIT);    /* Selects 4-bit mode */
  69              		.loc 1 65 0
  70 002e 0220     		movs	r0, #2
  71 0030 FFF7FEFF 		bl	LCD_Char_1_WrCntrlNib
  66:.\Generated_Source\PSoC5/LCD_Char_1.c ****     CyDelay(5u);                                                         /* Delay 5 ms */
  72              		.loc 1 66 0
  73 0034 0520     		movs	r0, #5
  74 0036 FFF7FEFF 		bl	CyDelay
  67:.\Generated_Source\PSoC5/LCD_Char_1.c **** 
  68:.\Generated_Source\PSoC5/LCD_Char_1.c ****     LCD_Char_1_WriteControl(LCD_Char_1_CURSOR_AUTO_INCR_ON);    /* Incr Cursor After Writes */
  75              		.loc 1 68 0
  76 003a 0620     		movs	r0, #6
  77 003c FFF7FEFF 		bl	LCD_Char_1_WriteControl
  69:.\Generated_Source\PSoC5/LCD_Char_1.c ****     LCD_Char_1_WriteControl(LCD_Char_1_DISPLAY_CURSOR_ON);      /* Turn Display, Cursor ON */
  78              		.loc 1 69 0
  79 0040 0E20     		movs	r0, #14
  80 0042 FFF7FEFF 		bl	LCD_Char_1_WriteControl
  70:.\Generated_Source\PSoC5/LCD_Char_1.c ****     LCD_Char_1_WriteControl(LCD_Char_1_DISPLAY_2_LINES_5x10);   /* 2 Lines by 5x10 Characters */
  81              		.loc 1 70 0
  82 0046 2C20     		movs	r0, #44
  83 0048 FFF7FEFF 		bl	LCD_Char_1_WriteControl
  71:.\Generated_Source\PSoC5/LCD_Char_1.c ****     LCD_Char_1_WriteControl(LCD_Char_1_DISPLAY_CURSOR_OFF);     /* Turn Display, Cursor OFF */
  84              		.loc 1 71 0
  85 004c 0820     		movs	r0, #8
  86 004e FFF7FEFF 		bl	LCD_Char_1_WriteControl
  72:.\Generated_Source\PSoC5/LCD_Char_1.c ****     LCD_Char_1_WriteControl(LCD_Char_1_CLEAR_DISPLAY);          /* Clear LCD Screen */
  87              		.loc 1 72 0
  88 0052 0120     		movs	r0, #1
  89 0054 FFF7FEFF 		bl	LCD_Char_1_WriteControl
  73:.\Generated_Source\PSoC5/LCD_Char_1.c ****     LCD_Char_1_WriteControl(LCD_Char_1_DISPLAY_ON_CURSOR_OFF);  /* Turn Display ON, Cursor OFF */
  90              		.loc 1 73 0
  91 0058 0C20     		movs	r0, #12
  92 005a FFF7FEFF 		bl	LCD_Char_1_WriteControl
  74:.\Generated_Source\PSoC5/LCD_Char_1.c ****     LCD_Char_1_WriteControl(LCD_Char_1_RESET_CURSOR_POSITION);  /* Set Cursor to 0,0 */
  93              		.loc 1 74 0
  94 005e 0320     		movs	r0, #3
  95 0060 FFF7FEFF 		bl	LCD_Char_1_WriteControl
  75:.\Generated_Source\PSoC5/LCD_Char_1.c ****     CyDelay(5u);
  96              		.loc 1 75 0
ARM GAS  C:\Users\VICTOR~1\AppData\Local\Temp\ccB0MfoX.s 			page 4


  97 0064 0520     		movs	r0, #5
  98 0066 FFF7FEFF 		bl	CyDelay
  76:.\Generated_Source\PSoC5/LCD_Char_1.c **** 
  77:.\Generated_Source\PSoC5/LCD_Char_1.c ****     #if(LCD_Char_1_CUSTOM_CHAR_SET != LCD_Char_1_NONE)
  78:.\Generated_Source\PSoC5/LCD_Char_1.c ****         LCD_Char_1_LoadCustomFonts(LCD_Char_1_customFonts);
  99              		.loc 1 78 0
 100 006a 0248     		ldr	r0, .L2
 101 006c FFF7FEFF 		bl	LCD_Char_1_LoadCustomFonts
  79:.\Generated_Source\PSoC5/LCD_Char_1.c ****     #endif /* LCD_Char_1_CUSTOM_CHAR_SET != LCD_Char_1_NONE */
  80:.\Generated_Source\PSoC5/LCD_Char_1.c **** }
 102              		.loc 1 80 0
 103 0070 80BD     		pop	{r7, pc}
 104              	.L3:
 105 0072 00BF     		.align	2
 106              	.L2:
 107 0074 00000000 		.word	LCD_Char_1_customFonts
 108              		.cfi_endproc
 109              	.LFE0:
 110              		.size	LCD_Char_1_Init, .-LCD_Char_1_Init
 111              		.section	.text.LCD_Char_1_Enable,"ax",%progbits
 112              		.align	2
 113              		.global	LCD_Char_1_Enable
 114              		.thumb
 115              		.thumb_func
 116              		.type	LCD_Char_1_Enable, %function
 117              	LCD_Char_1_Enable:
 118              	.LFB1:
  81:.\Generated_Source\PSoC5/LCD_Char_1.c **** 
  82:.\Generated_Source\PSoC5/LCD_Char_1.c **** 
  83:.\Generated_Source\PSoC5/LCD_Char_1.c **** /*******************************************************************************
  84:.\Generated_Source\PSoC5/LCD_Char_1.c **** * Function Name: LCD_Char_1_Enable
  85:.\Generated_Source\PSoC5/LCD_Char_1.c **** ********************************************************************************
  86:.\Generated_Source\PSoC5/LCD_Char_1.c **** *
  87:.\Generated_Source\PSoC5/LCD_Char_1.c **** * Summary:
  88:.\Generated_Source\PSoC5/LCD_Char_1.c **** *  Turns on the display.
  89:.\Generated_Source\PSoC5/LCD_Char_1.c **** *
  90:.\Generated_Source\PSoC5/LCD_Char_1.c **** * Parameters:
  91:.\Generated_Source\PSoC5/LCD_Char_1.c **** *  None.
  92:.\Generated_Source\PSoC5/LCD_Char_1.c **** *
  93:.\Generated_Source\PSoC5/LCD_Char_1.c **** * Return:
  94:.\Generated_Source\PSoC5/LCD_Char_1.c **** *  None.
  95:.\Generated_Source\PSoC5/LCD_Char_1.c **** *
  96:.\Generated_Source\PSoC5/LCD_Char_1.c **** * Reentrant:
  97:.\Generated_Source\PSoC5/LCD_Char_1.c **** *  No.
  98:.\Generated_Source\PSoC5/LCD_Char_1.c **** *
  99:.\Generated_Source\PSoC5/LCD_Char_1.c **** * Theory:
 100:.\Generated_Source\PSoC5/LCD_Char_1.c **** *  This function has no effect when it is called the first time as
 101:.\Generated_Source\PSoC5/LCD_Char_1.c **** *  LCD_Char_1_Init() turns on the LCD.
 102:.\Generated_Source\PSoC5/LCD_Char_1.c **** *
 103:.\Generated_Source\PSoC5/LCD_Char_1.c **** *******************************************************************************/
 104:.\Generated_Source\PSoC5/LCD_Char_1.c **** void LCD_Char_1_Enable(void) 
 105:.\Generated_Source\PSoC5/LCD_Char_1.c **** {
 119              		.loc 1 105 0
 120              		.cfi_startproc
 121              		@ args = 0, pretend = 0, frame = 0
 122              		@ frame_needed = 1, uses_anonymous_args = 0
 123 0000 80B5     		push	{r7, lr}
ARM GAS  C:\Users\VICTOR~1\AppData\Local\Temp\ccB0MfoX.s 			page 5


 124              		.cfi_def_cfa_offset 8
 125              		.cfi_offset 7, -8
 126              		.cfi_offset 14, -4
 127 0002 00AF     		add	r7, sp, #0
 128              		.cfi_def_cfa_register 7
 106:.\Generated_Source\PSoC5/LCD_Char_1.c ****     LCD_Char_1_DisplayOn();
 129              		.loc 1 106 0
 130 0004 0C20     		movs	r0, #12
 131 0006 FFF7FEFF 		bl	LCD_Char_1_WriteControl
 107:.\Generated_Source\PSoC5/LCD_Char_1.c ****     LCD_Char_1_enableState = 1u;
 132              		.loc 1 107 0
 133 000a 024B     		ldr	r3, .L5
 134 000c 0122     		movs	r2, #1
 135 000e 1A70     		strb	r2, [r3]
 108:.\Generated_Source\PSoC5/LCD_Char_1.c **** }
 136              		.loc 1 108 0
 137 0010 80BD     		pop	{r7, pc}
 138              	.L6:
 139 0012 00BF     		.align	2
 140              	.L5:
 141 0014 00000000 		.word	LCD_Char_1_enableState
 142              		.cfi_endproc
 143              	.LFE1:
 144              		.size	LCD_Char_1_Enable, .-LCD_Char_1_Enable
 145              		.section	.text.LCD_Char_1_Start,"ax",%progbits
 146              		.align	2
 147              		.global	LCD_Char_1_Start
 148              		.thumb
 149              		.thumb_func
 150              		.type	LCD_Char_1_Start, %function
 151              	LCD_Char_1_Start:
 152              	.LFB2:
 109:.\Generated_Source\PSoC5/LCD_Char_1.c **** 
 110:.\Generated_Source\PSoC5/LCD_Char_1.c **** 
 111:.\Generated_Source\PSoC5/LCD_Char_1.c **** /*******************************************************************************
 112:.\Generated_Source\PSoC5/LCD_Char_1.c **** * Function Name: LCD_Char_1_Start
 113:.\Generated_Source\PSoC5/LCD_Char_1.c **** ********************************************************************************
 114:.\Generated_Source\PSoC5/LCD_Char_1.c **** *
 115:.\Generated_Source\PSoC5/LCD_Char_1.c **** * Summary:
 116:.\Generated_Source\PSoC5/LCD_Char_1.c **** *  Perform initialization required for the components normal work.
 117:.\Generated_Source\PSoC5/LCD_Char_1.c **** *  This function initializes the LCD hardware module as follows:
 118:.\Generated_Source\PSoC5/LCD_Char_1.c **** *        Enables 4-bit interface
 119:.\Generated_Source\PSoC5/LCD_Char_1.c **** *        Clears the display
 120:.\Generated_Source\PSoC5/LCD_Char_1.c **** *        Enables auto cursor increment
 121:.\Generated_Source\PSoC5/LCD_Char_1.c **** *        Resets the cursor to start position
 122:.\Generated_Source\PSoC5/LCD_Char_1.c **** *  Also, it loads a custom character set to the LCD if it was defined in the customizer.
 123:.\Generated_Source\PSoC5/LCD_Char_1.c **** *  If it was not the first call in this project, then it just turns on the
 124:.\Generated_Source\PSoC5/LCD_Char_1.c **** *  display
 125:.\Generated_Source\PSoC5/LCD_Char_1.c **** *
 126:.\Generated_Source\PSoC5/LCD_Char_1.c **** *
 127:.\Generated_Source\PSoC5/LCD_Char_1.c **** * Parameters:
 128:.\Generated_Source\PSoC5/LCD_Char_1.c **** *  LCD_Char_1_initVar - global variable.
 129:.\Generated_Source\PSoC5/LCD_Char_1.c **** *
 130:.\Generated_Source\PSoC5/LCD_Char_1.c **** * Return:
 131:.\Generated_Source\PSoC5/LCD_Char_1.c **** *  LCD_Char_1_initVar - global variable.
 132:.\Generated_Source\PSoC5/LCD_Char_1.c **** *
 133:.\Generated_Source\PSoC5/LCD_Char_1.c **** * Reentrant:
ARM GAS  C:\Users\VICTOR~1\AppData\Local\Temp\ccB0MfoX.s 			page 6


 134:.\Generated_Source\PSoC5/LCD_Char_1.c **** *  No.
 135:.\Generated_Source\PSoC5/LCD_Char_1.c **** *
 136:.\Generated_Source\PSoC5/LCD_Char_1.c **** *******************************************************************************/
 137:.\Generated_Source\PSoC5/LCD_Char_1.c **** void LCD_Char_1_Start(void) 
 138:.\Generated_Source\PSoC5/LCD_Char_1.c **** {
 153              		.loc 1 138 0
 154              		.cfi_startproc
 155              		@ args = 0, pretend = 0, frame = 0
 156              		@ frame_needed = 1, uses_anonymous_args = 0
 157 0000 80B5     		push	{r7, lr}
 158              		.cfi_def_cfa_offset 8
 159              		.cfi_offset 7, -8
 160              		.cfi_offset 14, -4
 161 0002 00AF     		add	r7, sp, #0
 162              		.cfi_def_cfa_register 7
 139:.\Generated_Source\PSoC5/LCD_Char_1.c ****     /* If not initialized, perform initialization */
 140:.\Generated_Source\PSoC5/LCD_Char_1.c ****     if(LCD_Char_1_initVar == 0u)
 163              		.loc 1 140 0
 164 0004 054B     		ldr	r3, .L9
 165 0006 1B78     		ldrb	r3, [r3]	@ zero_extendqisi2
 166 0008 002B     		cmp	r3, #0
 167 000a 04D1     		bne	.L8
 141:.\Generated_Source\PSoC5/LCD_Char_1.c ****     {
 142:.\Generated_Source\PSoC5/LCD_Char_1.c ****         LCD_Char_1_Init();
 168              		.loc 1 142 0
 169 000c FFF7FEFF 		bl	LCD_Char_1_Init
 143:.\Generated_Source\PSoC5/LCD_Char_1.c ****         LCD_Char_1_initVar = 1u;
 170              		.loc 1 143 0
 171 0010 024B     		ldr	r3, .L9
 172 0012 0122     		movs	r2, #1
 173 0014 1A70     		strb	r2, [r3]
 174              	.L8:
 144:.\Generated_Source\PSoC5/LCD_Char_1.c ****     }
 145:.\Generated_Source\PSoC5/LCD_Char_1.c **** 
 146:.\Generated_Source\PSoC5/LCD_Char_1.c ****     /* Turn on the LCD */
 147:.\Generated_Source\PSoC5/LCD_Char_1.c ****     LCD_Char_1_Enable();
 175              		.loc 1 147 0
 176 0016 FFF7FEFF 		bl	LCD_Char_1_Enable
 148:.\Generated_Source\PSoC5/LCD_Char_1.c **** }
 177              		.loc 1 148 0
 178 001a 80BD     		pop	{r7, pc}
 179              	.L10:
 180              		.align	2
 181              	.L9:
 182 001c 00000000 		.word	LCD_Char_1_initVar
 183              		.cfi_endproc
 184              	.LFE2:
 185              		.size	LCD_Char_1_Start, .-LCD_Char_1_Start
 186              		.section	.text.LCD_Char_1_Stop,"ax",%progbits
 187              		.align	2
 188              		.global	LCD_Char_1_Stop
 189              		.thumb
 190              		.thumb_func
 191              		.type	LCD_Char_1_Stop, %function
 192              	LCD_Char_1_Stop:
 193              	.LFB3:
 149:.\Generated_Source\PSoC5/LCD_Char_1.c **** 
ARM GAS  C:\Users\VICTOR~1\AppData\Local\Temp\ccB0MfoX.s 			page 7


 150:.\Generated_Source\PSoC5/LCD_Char_1.c **** 
 151:.\Generated_Source\PSoC5/LCD_Char_1.c **** /*******************************************************************************
 152:.\Generated_Source\PSoC5/LCD_Char_1.c **** * Function Name: LCD_Char_1_Stop
 153:.\Generated_Source\PSoC5/LCD_Char_1.c **** ********************************************************************************
 154:.\Generated_Source\PSoC5/LCD_Char_1.c **** *
 155:.\Generated_Source\PSoC5/LCD_Char_1.c **** * Summary:
 156:.\Generated_Source\PSoC5/LCD_Char_1.c **** *  Turns off the display of the LCD screen.
 157:.\Generated_Source\PSoC5/LCD_Char_1.c **** *
 158:.\Generated_Source\PSoC5/LCD_Char_1.c **** * Parameters:
 159:.\Generated_Source\PSoC5/LCD_Char_1.c **** *  None.
 160:.\Generated_Source\PSoC5/LCD_Char_1.c **** *
 161:.\Generated_Source\PSoC5/LCD_Char_1.c **** * Return:
 162:.\Generated_Source\PSoC5/LCD_Char_1.c **** *  None.
 163:.\Generated_Source\PSoC5/LCD_Char_1.c **** *
 164:.\Generated_Source\PSoC5/LCD_Char_1.c **** * Reentrant:
 165:.\Generated_Source\PSoC5/LCD_Char_1.c **** *  No.
 166:.\Generated_Source\PSoC5/LCD_Char_1.c **** *
 167:.\Generated_Source\PSoC5/LCD_Char_1.c **** *******************************************************************************/
 168:.\Generated_Source\PSoC5/LCD_Char_1.c **** void LCD_Char_1_Stop(void) 
 169:.\Generated_Source\PSoC5/LCD_Char_1.c **** {
 194              		.loc 1 169 0
 195              		.cfi_startproc
 196              		@ args = 0, pretend = 0, frame = 0
 197              		@ frame_needed = 1, uses_anonymous_args = 0
 198 0000 80B5     		push	{r7, lr}
 199              		.cfi_def_cfa_offset 8
 200              		.cfi_offset 7, -8
 201              		.cfi_offset 14, -4
 202 0002 00AF     		add	r7, sp, #0
 203              		.cfi_def_cfa_register 7
 170:.\Generated_Source\PSoC5/LCD_Char_1.c ****     /* Calls LCD Off Macro */
 171:.\Generated_Source\PSoC5/LCD_Char_1.c ****     LCD_Char_1_DisplayOff();
 204              		.loc 1 171 0
 205 0004 0820     		movs	r0, #8
 206 0006 FFF7FEFF 		bl	LCD_Char_1_WriteControl
 172:.\Generated_Source\PSoC5/LCD_Char_1.c ****     LCD_Char_1_enableState = 0u;
 207              		.loc 1 172 0
 208 000a 024B     		ldr	r3, .L12
 209 000c 0022     		movs	r2, #0
 210 000e 1A70     		strb	r2, [r3]
 173:.\Generated_Source\PSoC5/LCD_Char_1.c **** }
 211              		.loc 1 173 0
 212 0010 80BD     		pop	{r7, pc}
 213              	.L13:
 214 0012 00BF     		.align	2
 215              	.L12:
 216 0014 00000000 		.word	LCD_Char_1_enableState
 217              		.cfi_endproc
 218              	.LFE3:
 219              		.size	LCD_Char_1_Stop, .-LCD_Char_1_Stop
 220              		.section	.text.LCD_Char_1_Position,"ax",%progbits
 221              		.align	2
 222              		.global	LCD_Char_1_Position
 223              		.thumb
 224              		.thumb_func
 225              		.type	LCD_Char_1_Position, %function
 226              	LCD_Char_1_Position:
ARM GAS  C:\Users\VICTOR~1\AppData\Local\Temp\ccB0MfoX.s 			page 8


 227              	.LFB4:
 174:.\Generated_Source\PSoC5/LCD_Char_1.c **** 
 175:.\Generated_Source\PSoC5/LCD_Char_1.c **** 
 176:.\Generated_Source\PSoC5/LCD_Char_1.c **** /*******************************************************************************
 177:.\Generated_Source\PSoC5/LCD_Char_1.c **** *  Function Name: LCD_Char_1_Position
 178:.\Generated_Source\PSoC5/LCD_Char_1.c **** ********************************************************************************
 179:.\Generated_Source\PSoC5/LCD_Char_1.c **** *
 180:.\Generated_Source\PSoC5/LCD_Char_1.c **** * Summary:
 181:.\Generated_Source\PSoC5/LCD_Char_1.c **** *  Moves the active cursor location to a point specified by the input arguments
 182:.\Generated_Source\PSoC5/LCD_Char_1.c **** *
 183:.\Generated_Source\PSoC5/LCD_Char_1.c **** * Parameters:
 184:.\Generated_Source\PSoC5/LCD_Char_1.c **** *  row:    Specific row of LCD module to be written
 185:.\Generated_Source\PSoC5/LCD_Char_1.c **** *  column: Column of LCD module to be written
 186:.\Generated_Source\PSoC5/LCD_Char_1.c **** *
 187:.\Generated_Source\PSoC5/LCD_Char_1.c **** * Return:
 188:.\Generated_Source\PSoC5/LCD_Char_1.c **** *  None.
 189:.\Generated_Source\PSoC5/LCD_Char_1.c **** *
 190:.\Generated_Source\PSoC5/LCD_Char_1.c **** * Note:
 191:.\Generated_Source\PSoC5/LCD_Char_1.c **** *  This only applies for LCD displays that use the 2X40 address mode.
 192:.\Generated_Source\PSoC5/LCD_Char_1.c **** *  In this case Row 2 starts with 0x28 offset from Row 1.
 193:.\Generated_Source\PSoC5/LCD_Char_1.c **** *  When there are more than 2 rows, each row must be fewer than 20 characters.
 194:.\Generated_Source\PSoC5/LCD_Char_1.c **** *
 195:.\Generated_Source\PSoC5/LCD_Char_1.c **** *******************************************************************************/
 196:.\Generated_Source\PSoC5/LCD_Char_1.c **** void LCD_Char_1_Position(uint8 row, uint8 column) 
 197:.\Generated_Source\PSoC5/LCD_Char_1.c **** {
 228              		.loc 1 197 0
 229              		.cfi_startproc
 230              		@ args = 0, pretend = 0, frame = 8
 231              		@ frame_needed = 1, uses_anonymous_args = 0
 232 0000 80B5     		push	{r7, lr}
 233              		.cfi_def_cfa_offset 8
 234              		.cfi_offset 7, -8
 235              		.cfi_offset 14, -4
 236 0002 82B0     		sub	sp, sp, #8
 237              		.cfi_def_cfa_offset 16
 238 0004 00AF     		add	r7, sp, #0
 239              		.cfi_def_cfa_register 7
 240 0006 0246     		mov	r2, r0
 241 0008 0B46     		mov	r3, r1
 242 000a FA71     		strb	r2, [r7, #7]
 243 000c BB71     		strb	r3, [r7, #6]
 198:.\Generated_Source\PSoC5/LCD_Char_1.c ****     switch (row)
 244              		.loc 1 198 0
 245 000e FB79     		ldrb	r3, [r7, #7]	@ zero_extendqisi2
 246 0010 032B     		cmp	r3, #3
 247 0012 27D8     		bhi	.L22
 248 0014 01A2     		adr	r2, .L17
 249 0016 52F823F0 		ldr	pc, [r2, r3, lsl #2]
 250 001a 00BF     		.p2align 2
 251              	.L17:
 252 001c 2D000000 		.word	.L16+1
 253 0020 3B000000 		.word	.L18+1
 254 0024 49000000 		.word	.L19+1
 255 0028 57000000 		.word	.L20+1
 256              		.p2align 1
 257              	.L16:
 199:.\Generated_Source\PSoC5/LCD_Char_1.c ****     {
ARM GAS  C:\Users\VICTOR~1\AppData\Local\Temp\ccB0MfoX.s 			page 9


 200:.\Generated_Source\PSoC5/LCD_Char_1.c ****         case (uint8)0:
 201:.\Generated_Source\PSoC5/LCD_Char_1.c ****             LCD_Char_1_WriteControl(LCD_Char_1_ROW_0_START + column);
 258              		.loc 1 201 0
 259 002c BB79     		ldrb	r3, [r7, #6]
 260 002e 803B     		subs	r3, r3, #128
 261 0030 DBB2     		uxtb	r3, r3
 262 0032 1846     		mov	r0, r3
 263 0034 FFF7FEFF 		bl	LCD_Char_1_WriteControl
 202:.\Generated_Source\PSoC5/LCD_Char_1.c ****             break;
 264              		.loc 1 202 0
 265 0038 15E0     		b	.L14
 266              	.L18:
 203:.\Generated_Source\PSoC5/LCD_Char_1.c ****         case (uint8) 1:
 204:.\Generated_Source\PSoC5/LCD_Char_1.c ****             LCD_Char_1_WriteControl(LCD_Char_1_ROW_1_START + column);
 267              		.loc 1 204 0
 268 003a BB79     		ldrb	r3, [r7, #6]
 269 003c 403B     		subs	r3, r3, #64
 270 003e DBB2     		uxtb	r3, r3
 271 0040 1846     		mov	r0, r3
 272 0042 FFF7FEFF 		bl	LCD_Char_1_WriteControl
 205:.\Generated_Source\PSoC5/LCD_Char_1.c ****             break;
 273              		.loc 1 205 0
 274 0046 0EE0     		b	.L14
 275              	.L19:
 206:.\Generated_Source\PSoC5/LCD_Char_1.c ****         case (uint8) 2:
 207:.\Generated_Source\PSoC5/LCD_Char_1.c ****             LCD_Char_1_WriteControl(LCD_Char_1_ROW_2_START + column);
 276              		.loc 1 207 0
 277 0048 BB79     		ldrb	r3, [r7, #6]
 278 004a 6C3B     		subs	r3, r3, #108
 279 004c DBB2     		uxtb	r3, r3
 280 004e 1846     		mov	r0, r3
 281 0050 FFF7FEFF 		bl	LCD_Char_1_WriteControl
 208:.\Generated_Source\PSoC5/LCD_Char_1.c ****             break;
 282              		.loc 1 208 0
 283 0054 07E0     		b	.L14
 284              	.L20:
 209:.\Generated_Source\PSoC5/LCD_Char_1.c ****         case (uint8) 3:
 210:.\Generated_Source\PSoC5/LCD_Char_1.c ****             LCD_Char_1_WriteControl(LCD_Char_1_ROW_3_START + column);
 285              		.loc 1 210 0
 286 0056 BB79     		ldrb	r3, [r7, #6]
 287 0058 2C3B     		subs	r3, r3, #44
 288 005a DBB2     		uxtb	r3, r3
 289 005c 1846     		mov	r0, r3
 290 005e FFF7FEFF 		bl	LCD_Char_1_WriteControl
 211:.\Generated_Source\PSoC5/LCD_Char_1.c ****             break;
 291              		.loc 1 211 0
 292 0062 00E0     		b	.L14
 293              	.L22:
 212:.\Generated_Source\PSoC5/LCD_Char_1.c ****         default:
 213:.\Generated_Source\PSoC5/LCD_Char_1.c ****             /* if default case is hit, invalid row argument was passed.*/
 214:.\Generated_Source\PSoC5/LCD_Char_1.c ****             break;
 294              		.loc 1 214 0
 295 0064 00BF     		nop
 296              	.L14:
 215:.\Generated_Source\PSoC5/LCD_Char_1.c ****     }
 216:.\Generated_Source\PSoC5/LCD_Char_1.c **** }
 297              		.loc 1 216 0
ARM GAS  C:\Users\VICTOR~1\AppData\Local\Temp\ccB0MfoX.s 			page 10


 298 0066 0837     		adds	r7, r7, #8
 299 0068 BD46     		mov	sp, r7
 300              		@ sp needed
 301 006a 80BD     		pop	{r7, pc}
 302              		.cfi_endproc
 303              	.LFE4:
 304              		.size	LCD_Char_1_Position, .-LCD_Char_1_Position
 305              		.section	.text.LCD_Char_1_PrintString,"ax",%progbits
 306              		.align	2
 307              		.global	LCD_Char_1_PrintString
 308              		.thumb
 309              		.thumb_func
 310              		.type	LCD_Char_1_PrintString, %function
 311              	LCD_Char_1_PrintString:
 312              	.LFB5:
 217:.\Generated_Source\PSoC5/LCD_Char_1.c **** 
 218:.\Generated_Source\PSoC5/LCD_Char_1.c **** 
 219:.\Generated_Source\PSoC5/LCD_Char_1.c **** /*******************************************************************************
 220:.\Generated_Source\PSoC5/LCD_Char_1.c **** * Function Name: LCD_Char_1_PrintString
 221:.\Generated_Source\PSoC5/LCD_Char_1.c **** ********************************************************************************
 222:.\Generated_Source\PSoC5/LCD_Char_1.c **** *
 223:.\Generated_Source\PSoC5/LCD_Char_1.c **** * Summary:
 224:.\Generated_Source\PSoC5/LCD_Char_1.c **** *  Writes a zero terminated string to the LCD.
 225:.\Generated_Source\PSoC5/LCD_Char_1.c **** *
 226:.\Generated_Source\PSoC5/LCD_Char_1.c **** * Parameters:
 227:.\Generated_Source\PSoC5/LCD_Char_1.c **** *  string: Pointer to head of char8 array to be written to the LCD module
 228:.\Generated_Source\PSoC5/LCD_Char_1.c **** *
 229:.\Generated_Source\PSoC5/LCD_Char_1.c **** * Return:
 230:.\Generated_Source\PSoC5/LCD_Char_1.c **** *  None.
 231:.\Generated_Source\PSoC5/LCD_Char_1.c **** *
 232:.\Generated_Source\PSoC5/LCD_Char_1.c **** *******************************************************************************/
 233:.\Generated_Source\PSoC5/LCD_Char_1.c **** void LCD_Char_1_PrintString(char8 const string[]) 
 234:.\Generated_Source\PSoC5/LCD_Char_1.c **** {
 313              		.loc 1 234 0
 314              		.cfi_startproc
 315              		@ args = 0, pretend = 0, frame = 16
 316              		@ frame_needed = 1, uses_anonymous_args = 0
 317 0000 80B5     		push	{r7, lr}
 318              		.cfi_def_cfa_offset 8
 319              		.cfi_offset 7, -8
 320              		.cfi_offset 14, -4
 321 0002 84B0     		sub	sp, sp, #16
 322              		.cfi_def_cfa_offset 24
 323 0004 00AF     		add	r7, sp, #0
 324              		.cfi_def_cfa_register 7
 325 0006 7860     		str	r0, [r7, #4]
 235:.\Generated_Source\PSoC5/LCD_Char_1.c ****     uint8 indexU8 = 1u;
 326              		.loc 1 235 0
 327 0008 0123     		movs	r3, #1
 328 000a FB73     		strb	r3, [r7, #15]
 236:.\Generated_Source\PSoC5/LCD_Char_1.c ****     char8 current = *string;
 329              		.loc 1 236 0
 330 000c 7B68     		ldr	r3, [r7, #4]
 331 000e 1B78     		ldrb	r3, [r3]
 332 0010 BB73     		strb	r3, [r7, #14]
 237:.\Generated_Source\PSoC5/LCD_Char_1.c **** 
 238:.\Generated_Source\PSoC5/LCD_Char_1.c ****     /* Until null is reached, print next character */
ARM GAS  C:\Users\VICTOR~1\AppData\Local\Temp\ccB0MfoX.s 			page 11


 239:.\Generated_Source\PSoC5/LCD_Char_1.c ****     while((char8) '\0' != current)
 333              		.loc 1 239 0
 334 0012 0BE0     		b	.L24
 335              	.L25:
 240:.\Generated_Source\PSoC5/LCD_Char_1.c ****     {
 241:.\Generated_Source\PSoC5/LCD_Char_1.c ****         LCD_Char_1_WriteData((uint8)current);
 336              		.loc 1 241 0
 337 0014 BB7B     		ldrb	r3, [r7, #14]	@ zero_extendqisi2
 338 0016 1846     		mov	r0, r3
 339 0018 FFF7FEFF 		bl	LCD_Char_1_WriteData
 242:.\Generated_Source\PSoC5/LCD_Char_1.c ****         current = string[indexU8];
 340              		.loc 1 242 0
 341 001c FB7B     		ldrb	r3, [r7, #15]	@ zero_extendqisi2
 342 001e 7A68     		ldr	r2, [r7, #4]
 343 0020 1344     		add	r3, r3, r2
 344 0022 1B78     		ldrb	r3, [r3]
 345 0024 BB73     		strb	r3, [r7, #14]
 243:.\Generated_Source\PSoC5/LCD_Char_1.c ****         indexU8++;
 346              		.loc 1 243 0
 347 0026 FB7B     		ldrb	r3, [r7, #15]	@ zero_extendqisi2
 348 0028 0133     		adds	r3, r3, #1
 349 002a FB73     		strb	r3, [r7, #15]
 350              	.L24:
 239:.\Generated_Source\PSoC5/LCD_Char_1.c ****     while((char8) '\0' != current)
 351              		.loc 1 239 0 discriminator 1
 352 002c BB7B     		ldrb	r3, [r7, #14]	@ zero_extendqisi2
 353 002e 002B     		cmp	r3, #0
 354 0030 F0D1     		bne	.L25
 244:.\Generated_Source\PSoC5/LCD_Char_1.c ****     }
 245:.\Generated_Source\PSoC5/LCD_Char_1.c **** }
 355              		.loc 1 245 0
 356 0032 1037     		adds	r7, r7, #16
 357 0034 BD46     		mov	sp, r7
 358              		@ sp needed
 359 0036 80BD     		pop	{r7, pc}
 360              		.cfi_endproc
 361              	.LFE5:
 362              		.size	LCD_Char_1_PrintString, .-LCD_Char_1_PrintString
 363              		.section	.text.LCD_Char_1_PutChar,"ax",%progbits
 364              		.align	2
 365              		.global	LCD_Char_1_PutChar
 366              		.thumb
 367              		.thumb_func
 368              		.type	LCD_Char_1_PutChar, %function
 369              	LCD_Char_1_PutChar:
 370              	.LFB6:
 246:.\Generated_Source\PSoC5/LCD_Char_1.c **** 
 247:.\Generated_Source\PSoC5/LCD_Char_1.c **** 
 248:.\Generated_Source\PSoC5/LCD_Char_1.c **** /*******************************************************************************
 249:.\Generated_Source\PSoC5/LCD_Char_1.c **** *  Function Name: LCD_Char_1_PutChar
 250:.\Generated_Source\PSoC5/LCD_Char_1.c **** ********************************************************************************
 251:.\Generated_Source\PSoC5/LCD_Char_1.c **** *
 252:.\Generated_Source\PSoC5/LCD_Char_1.c **** * Summary:
 253:.\Generated_Source\PSoC5/LCD_Char_1.c **** *  Writes a single character to the current cursor position of the LCD module.
 254:.\Generated_Source\PSoC5/LCD_Char_1.c **** *  Custom character names (_CUSTOM_0 through
 255:.\Generated_Source\PSoC5/LCD_Char_1.c **** *  _CUSTOM_7) are acceptable as inputs.
 256:.\Generated_Source\PSoC5/LCD_Char_1.c **** *
ARM GAS  C:\Users\VICTOR~1\AppData\Local\Temp\ccB0MfoX.s 			page 12


 257:.\Generated_Source\PSoC5/LCD_Char_1.c **** * Parameters:
 258:.\Generated_Source\PSoC5/LCD_Char_1.c **** *  character: Character to be written to LCD
 259:.\Generated_Source\PSoC5/LCD_Char_1.c **** *
 260:.\Generated_Source\PSoC5/LCD_Char_1.c **** * Return:
 261:.\Generated_Source\PSoC5/LCD_Char_1.c **** *  None.
 262:.\Generated_Source\PSoC5/LCD_Char_1.c **** *
 263:.\Generated_Source\PSoC5/LCD_Char_1.c **** *******************************************************************************/
 264:.\Generated_Source\PSoC5/LCD_Char_1.c **** void LCD_Char_1_PutChar(char8 character) 
 265:.\Generated_Source\PSoC5/LCD_Char_1.c **** {
 371              		.loc 1 265 0
 372              		.cfi_startproc
 373              		@ args = 0, pretend = 0, frame = 8
 374              		@ frame_needed = 1, uses_anonymous_args = 0
 375 0000 80B5     		push	{r7, lr}
 376              		.cfi_def_cfa_offset 8
 377              		.cfi_offset 7, -8
 378              		.cfi_offset 14, -4
 379 0002 82B0     		sub	sp, sp, #8
 380              		.cfi_def_cfa_offset 16
 381 0004 00AF     		add	r7, sp, #0
 382              		.cfi_def_cfa_register 7
 383 0006 0346     		mov	r3, r0
 384 0008 FB71     		strb	r3, [r7, #7]
 266:.\Generated_Source\PSoC5/LCD_Char_1.c ****     LCD_Char_1_WriteData((uint8)character);
 385              		.loc 1 266 0
 386 000a FB79     		ldrb	r3, [r7, #7]	@ zero_extendqisi2
 387 000c 1846     		mov	r0, r3
 388 000e FFF7FEFF 		bl	LCD_Char_1_WriteData
 267:.\Generated_Source\PSoC5/LCD_Char_1.c **** }
 389              		.loc 1 267 0
 390 0012 0837     		adds	r7, r7, #8
 391 0014 BD46     		mov	sp, r7
 392              		@ sp needed
 393 0016 80BD     		pop	{r7, pc}
 394              		.cfi_endproc
 395              	.LFE6:
 396              		.size	LCD_Char_1_PutChar, .-LCD_Char_1_PutChar
 397              		.section	.text.LCD_Char_1_WriteData,"ax",%progbits
 398              		.align	2
 399              		.global	LCD_Char_1_WriteData
 400              		.thumb
 401              		.thumb_func
 402              		.type	LCD_Char_1_WriteData, %function
 403              	LCD_Char_1_WriteData:
 404              	.LFB7:
 268:.\Generated_Source\PSoC5/LCD_Char_1.c **** 
 269:.\Generated_Source\PSoC5/LCD_Char_1.c **** 
 270:.\Generated_Source\PSoC5/LCD_Char_1.c **** /*******************************************************************************
 271:.\Generated_Source\PSoC5/LCD_Char_1.c **** *  Function Name: LCD_Char_1_WriteData
 272:.\Generated_Source\PSoC5/LCD_Char_1.c **** ********************************************************************************
 273:.\Generated_Source\PSoC5/LCD_Char_1.c **** *
 274:.\Generated_Source\PSoC5/LCD_Char_1.c **** * Summary:
 275:.\Generated_Source\PSoC5/LCD_Char_1.c **** *  Writes a data byte to the LCD module's Data Display RAM.
 276:.\Generated_Source\PSoC5/LCD_Char_1.c **** *
 277:.\Generated_Source\PSoC5/LCD_Char_1.c **** * Parameters:
 278:.\Generated_Source\PSoC5/LCD_Char_1.c **** *  dByte: Byte to be written to the LCD module
 279:.\Generated_Source\PSoC5/LCD_Char_1.c **** *
ARM GAS  C:\Users\VICTOR~1\AppData\Local\Temp\ccB0MfoX.s 			page 13


 280:.\Generated_Source\PSoC5/LCD_Char_1.c **** * Return:
 281:.\Generated_Source\PSoC5/LCD_Char_1.c **** *  None.
 282:.\Generated_Source\PSoC5/LCD_Char_1.c **** *
 283:.\Generated_Source\PSoC5/LCD_Char_1.c **** *******************************************************************************/
 284:.\Generated_Source\PSoC5/LCD_Char_1.c **** void LCD_Char_1_WriteData(uint8 dByte) 
 285:.\Generated_Source\PSoC5/LCD_Char_1.c **** {
 405              		.loc 1 285 0
 406              		.cfi_startproc
 407              		@ args = 0, pretend = 0, frame = 16
 408              		@ frame_needed = 1, uses_anonymous_args = 0
 409 0000 80B5     		push	{r7, lr}
 410              		.cfi_def_cfa_offset 8
 411              		.cfi_offset 7, -8
 412              		.cfi_offset 14, -4
 413 0002 84B0     		sub	sp, sp, #16
 414              		.cfi_def_cfa_offset 24
 415 0004 00AF     		add	r7, sp, #0
 416              		.cfi_def_cfa_register 7
 417 0006 0346     		mov	r3, r0
 418 0008 FB71     		strb	r3, [r7, #7]
 286:.\Generated_Source\PSoC5/LCD_Char_1.c ****     uint8 nibble;
 287:.\Generated_Source\PSoC5/LCD_Char_1.c **** 
 288:.\Generated_Source\PSoC5/LCD_Char_1.c ****     LCD_Char_1_IsReady();
 419              		.loc 1 288 0
 420 000a FFF7FEFF 		bl	LCD_Char_1_IsReady
 289:.\Generated_Source\PSoC5/LCD_Char_1.c ****     nibble = dByte >> LCD_Char_1_NIBBLE_SHIFT;
 421              		.loc 1 289 0
 422 000e FB79     		ldrb	r3, [r7, #7]	@ zero_extendqisi2
 423 0010 1B09     		lsrs	r3, r3, #4
 424 0012 FB73     		strb	r3, [r7, #15]
 290:.\Generated_Source\PSoC5/LCD_Char_1.c **** 
 291:.\Generated_Source\PSoC5/LCD_Char_1.c ****     /* Write high nibble */
 292:.\Generated_Source\PSoC5/LCD_Char_1.c ****     LCD_Char_1_WrDatNib(nibble);
 425              		.loc 1 292 0
 426 0014 FB7B     		ldrb	r3, [r7, #15]	@ zero_extendqisi2
 427 0016 1846     		mov	r0, r3
 428 0018 FFF7FEFF 		bl	LCD_Char_1_WrDatNib
 293:.\Generated_Source\PSoC5/LCD_Char_1.c **** 
 294:.\Generated_Source\PSoC5/LCD_Char_1.c ****     nibble = dByte & LCD_Char_1_NIBBLE_MASK;
 429              		.loc 1 294 0
 430 001c FB79     		ldrb	r3, [r7, #7]
 431 001e 03F00F03 		and	r3, r3, #15
 432 0022 FB73     		strb	r3, [r7, #15]
 295:.\Generated_Source\PSoC5/LCD_Char_1.c ****     /* Write low nibble */
 296:.\Generated_Source\PSoC5/LCD_Char_1.c ****     LCD_Char_1_WrDatNib(nibble);
 433              		.loc 1 296 0
 434 0024 FB7B     		ldrb	r3, [r7, #15]	@ zero_extendqisi2
 435 0026 1846     		mov	r0, r3
 436 0028 FFF7FEFF 		bl	LCD_Char_1_WrDatNib
 297:.\Generated_Source\PSoC5/LCD_Char_1.c **** }
 437              		.loc 1 297 0
 438 002c 1037     		adds	r7, r7, #16
 439 002e BD46     		mov	sp, r7
 440              		@ sp needed
 441 0030 80BD     		pop	{r7, pc}
 442              		.cfi_endproc
 443              	.LFE7:
ARM GAS  C:\Users\VICTOR~1\AppData\Local\Temp\ccB0MfoX.s 			page 14


 444              		.size	LCD_Char_1_WriteData, .-LCD_Char_1_WriteData
 445 0032 00BF     		.section	.text.LCD_Char_1_WriteControl,"ax",%progbits
 446              		.align	2
 447              		.global	LCD_Char_1_WriteControl
 448              		.thumb
 449              		.thumb_func
 450              		.type	LCD_Char_1_WriteControl, %function
 451              	LCD_Char_1_WriteControl:
 452              	.LFB8:
 298:.\Generated_Source\PSoC5/LCD_Char_1.c **** 
 299:.\Generated_Source\PSoC5/LCD_Char_1.c **** 
 300:.\Generated_Source\PSoC5/LCD_Char_1.c **** /*******************************************************************************
 301:.\Generated_Source\PSoC5/LCD_Char_1.c **** *  Function Name: LCD_Char_1_WriteControl
 302:.\Generated_Source\PSoC5/LCD_Char_1.c **** ********************************************************************************
 303:.\Generated_Source\PSoC5/LCD_Char_1.c **** *
 304:.\Generated_Source\PSoC5/LCD_Char_1.c **** * Summary:
 305:.\Generated_Source\PSoC5/LCD_Char_1.c **** *  Writes a command byte to the LCD module.
 306:.\Generated_Source\PSoC5/LCD_Char_1.c **** *
 307:.\Generated_Source\PSoC5/LCD_Char_1.c **** * Parameters:
 308:.\Generated_Source\PSoC5/LCD_Char_1.c **** *  cByte:  The byte to be written to theLCD module
 309:.\Generated_Source\PSoC5/LCD_Char_1.c **** * 
 310:.\Generated_Source\PSoC5/LCD_Char_1.c **** * Return:
 311:.\Generated_Source\PSoC5/LCD_Char_1.c **** *  None.
 312:.\Generated_Source\PSoC5/LCD_Char_1.c **** *
 313:.\Generated_Source\PSoC5/LCD_Char_1.c **** *******************************************************************************/
 314:.\Generated_Source\PSoC5/LCD_Char_1.c **** void LCD_Char_1_WriteControl(uint8 cByte) 
 315:.\Generated_Source\PSoC5/LCD_Char_1.c **** {
 453              		.loc 1 315 0
 454              		.cfi_startproc
 455              		@ args = 0, pretend = 0, frame = 16
 456              		@ frame_needed = 1, uses_anonymous_args = 0
 457 0000 80B5     		push	{r7, lr}
 458              		.cfi_def_cfa_offset 8
 459              		.cfi_offset 7, -8
 460              		.cfi_offset 14, -4
 461 0002 84B0     		sub	sp, sp, #16
 462              		.cfi_def_cfa_offset 24
 463 0004 00AF     		add	r7, sp, #0
 464              		.cfi_def_cfa_register 7
 465 0006 0346     		mov	r3, r0
 466 0008 FB71     		strb	r3, [r7, #7]
 316:.\Generated_Source\PSoC5/LCD_Char_1.c ****     uint8 nibble;
 317:.\Generated_Source\PSoC5/LCD_Char_1.c **** 
 318:.\Generated_Source\PSoC5/LCD_Char_1.c ****     LCD_Char_1_IsReady();
 467              		.loc 1 318 0
 468 000a FFF7FEFF 		bl	LCD_Char_1_IsReady
 319:.\Generated_Source\PSoC5/LCD_Char_1.c **** 
 320:.\Generated_Source\PSoC5/LCD_Char_1.c ****     nibble = cByte >> LCD_Char_1_NIBBLE_SHIFT;
 469              		.loc 1 320 0
 470 000e FB79     		ldrb	r3, [r7, #7]	@ zero_extendqisi2
 471 0010 1B09     		lsrs	r3, r3, #4
 472 0012 FB73     		strb	r3, [r7, #15]
 321:.\Generated_Source\PSoC5/LCD_Char_1.c ****     
 322:.\Generated_Source\PSoC5/LCD_Char_1.c ****     /* WrCntrlNib(High Nibble) */
 323:.\Generated_Source\PSoC5/LCD_Char_1.c ****     LCD_Char_1_WrCntrlNib(nibble);
 473              		.loc 1 323 0
 474 0014 FB7B     		ldrb	r3, [r7, #15]	@ zero_extendqisi2
ARM GAS  C:\Users\VICTOR~1\AppData\Local\Temp\ccB0MfoX.s 			page 15


 475 0016 1846     		mov	r0, r3
 476 0018 FFF7FEFF 		bl	LCD_Char_1_WrCntrlNib
 324:.\Generated_Source\PSoC5/LCD_Char_1.c ****     nibble = cByte & LCD_Char_1_NIBBLE_MASK;
 477              		.loc 1 324 0
 478 001c FB79     		ldrb	r3, [r7, #7]
 479 001e 03F00F03 		and	r3, r3, #15
 480 0022 FB73     		strb	r3, [r7, #15]
 325:.\Generated_Source\PSoC5/LCD_Char_1.c **** 
 326:.\Generated_Source\PSoC5/LCD_Char_1.c ****     /* WrCntrlNib(Low Nibble) */
 327:.\Generated_Source\PSoC5/LCD_Char_1.c ****     LCD_Char_1_WrCntrlNib(nibble);
 481              		.loc 1 327 0
 482 0024 FB7B     		ldrb	r3, [r7, #15]	@ zero_extendqisi2
 483 0026 1846     		mov	r0, r3
 484 0028 FFF7FEFF 		bl	LCD_Char_1_WrCntrlNib
 328:.\Generated_Source\PSoC5/LCD_Char_1.c **** }
 485              		.loc 1 328 0
 486 002c 1037     		adds	r7, r7, #16
 487 002e BD46     		mov	sp, r7
 488              		@ sp needed
 489 0030 80BD     		pop	{r7, pc}
 490              		.cfi_endproc
 491              	.LFE8:
 492              		.size	LCD_Char_1_WriteControl, .-LCD_Char_1_WriteControl
 493 0032 00BF     		.section	.text.LCD_Char_1_IsReady,"ax",%progbits
 494              		.align	2
 495              		.global	LCD_Char_1_IsReady
 496              		.thumb
 497              		.thumb_func
 498              		.type	LCD_Char_1_IsReady, %function
 499              	LCD_Char_1_IsReady:
 500              	.LFB9:
 329:.\Generated_Source\PSoC5/LCD_Char_1.c **** 
 330:.\Generated_Source\PSoC5/LCD_Char_1.c **** 
 331:.\Generated_Source\PSoC5/LCD_Char_1.c **** /*******************************************************************************
 332:.\Generated_Source\PSoC5/LCD_Char_1.c **** * Function Name: LCD_Char_1_IsReady
 333:.\Generated_Source\PSoC5/LCD_Char_1.c **** ********************************************************************************
 334:.\Generated_Source\PSoC5/LCD_Char_1.c **** *
 335:.\Generated_Source\PSoC5/LCD_Char_1.c **** * Summary:
 336:.\Generated_Source\PSoC5/LCD_Char_1.c **** *  Polls the LCD until the ready bit is set.
 337:.\Generated_Source\PSoC5/LCD_Char_1.c **** *
 338:.\Generated_Source\PSoC5/LCD_Char_1.c **** * Parameters:
 339:.\Generated_Source\PSoC5/LCD_Char_1.c **** *  None.
 340:.\Generated_Source\PSoC5/LCD_Char_1.c **** *
 341:.\Generated_Source\PSoC5/LCD_Char_1.c **** * Return:
 342:.\Generated_Source\PSoC5/LCD_Char_1.c **** *  None.
 343:.\Generated_Source\PSoC5/LCD_Char_1.c **** *
 344:.\Generated_Source\PSoC5/LCD_Char_1.c **** * Note:
 345:.\Generated_Source\PSoC5/LCD_Char_1.c **** *  Changes the pins to High-Z.
 346:.\Generated_Source\PSoC5/LCD_Char_1.c **** *
 347:.\Generated_Source\PSoC5/LCD_Char_1.c **** *******************************************************************************/
 348:.\Generated_Source\PSoC5/LCD_Char_1.c **** void LCD_Char_1_IsReady(void) 
 349:.\Generated_Source\PSoC5/LCD_Char_1.c **** {
 501              		.loc 1 349 0
 502              		.cfi_startproc
 503              		@ args = 0, pretend = 0, frame = 8
 504              		@ frame_needed = 1, uses_anonymous_args = 0
 505 0000 80B5     		push	{r7, lr}
ARM GAS  C:\Users\VICTOR~1\AppData\Local\Temp\ccB0MfoX.s 			page 16


 506              		.cfi_def_cfa_offset 8
 507              		.cfi_offset 7, -8
 508              		.cfi_offset 14, -4
 509 0002 82B0     		sub	sp, sp, #8
 510              		.cfi_def_cfa_offset 16
 511 0004 00AF     		add	r7, sp, #0
 512              		.cfi_def_cfa_register 7
 350:.\Generated_Source\PSoC5/LCD_Char_1.c ****     uint8 value;
 351:.\Generated_Source\PSoC5/LCD_Char_1.c **** 
 352:.\Generated_Source\PSoC5/LCD_Char_1.c ****     /* Clear LCD port*/
 353:.\Generated_Source\PSoC5/LCD_Char_1.c ****     LCD_Char_1_PORT_DR_REG &= ((uint8)(~LCD_Char_1_PORT_MASK));
 513              		.loc 1 353 0
 514 0006 4F4B     		ldr	r3, .L31
 515 0008 4E4A     		ldr	r2, .L31
 516 000a 1278     		ldrb	r2, [r2]
 517 000c D2B2     		uxtb	r2, r2
 518 000e 22F07F02 		bic	r2, r2, #127
 519 0012 D2B2     		uxtb	r2, r2
 520 0014 1A70     		strb	r2, [r3]
 354:.\Generated_Source\PSoC5/LCD_Char_1.c **** 
 355:.\Generated_Source\PSoC5/LCD_Char_1.c ****     /* PSoC4 has a little different from PSoC3/5 port/pin organization for setting Drive Modes.
 356:.\Generated_Source\PSoC5/LCD_Char_1.c ****   
 357:.\Generated_Source\PSoC5/LCD_Char_1.c ****     */
 358:.\Generated_Source\PSoC5/LCD_Char_1.c ****     #if (CY_PSOC4)
 359:.\Generated_Source\PSoC5/LCD_Char_1.c ****         
 360:.\Generated_Source\PSoC5/LCD_Char_1.c ****         /* Mask off data pins to clear old values out */
 361:.\Generated_Source\PSoC5/LCD_Char_1.c ****         value = LCD_Char_1_PORT_PC_REG & ((uint32) (~ LCD_Char_1_DM_DATA_MASK));
 362:.\Generated_Source\PSoC5/LCD_Char_1.c ****         /* Load in high Z values for data pins, others unchanged */
 363:.\Generated_Source\PSoC5/LCD_Char_1.c ****         LCD_Char_1_PORT_PC_REG = value | LCD_Char_1_HIGH_Z_DATA_DM;
 364:.\Generated_Source\PSoC5/LCD_Char_1.c **** 
 365:.\Generated_Source\PSoC5/LCD_Char_1.c ****     #else
 366:.\Generated_Source\PSoC5/LCD_Char_1.c ****     
 367:.\Generated_Source\PSoC5/LCD_Char_1.c ****         /* Change Port to High-Z Status on data pins */
 368:.\Generated_Source\PSoC5/LCD_Char_1.c **** 
 369:.\Generated_Source\PSoC5/LCD_Char_1.c ****         /* Mask off data pins to clear old values out */
 370:.\Generated_Source\PSoC5/LCD_Char_1.c ****         value = LCD_Char_1_PORT_DM0_REG & ((uint8)(~LCD_Char_1_DATA_MASK));
 521              		.loc 1 370 0
 522 0016 4C4B     		ldr	r3, .L31+4
 523 0018 1B78     		ldrb	r3, [r3]
 524 001a DBB2     		uxtb	r3, r3
 525 001c 23F00F03 		bic	r3, r3, #15
 526 0020 FB71     		strb	r3, [r7, #7]
 371:.\Generated_Source\PSoC5/LCD_Char_1.c ****         /* Load in high Z values for data pins, others unchanged */
 372:.\Generated_Source\PSoC5/LCD_Char_1.c ****         LCD_Char_1_PORT_DM0_REG = value | (LCD_Char_1_HIGH_Z_DM0 & LCD_Char_1_DATA_MASK);
 527              		.loc 1 372 0
 528 0022 494B     		ldr	r3, .L31+4
 529 0024 FA79     		ldrb	r2, [r7, #7]
 530 0026 42F00F02 		orr	r2, r2, #15
 531 002a D2B2     		uxtb	r2, r2
 532 002c 1A70     		strb	r2, [r3]
 373:.\Generated_Source\PSoC5/LCD_Char_1.c **** 
 374:.\Generated_Source\PSoC5/LCD_Char_1.c ****         /* Mask off data pins to clear old values out */
 375:.\Generated_Source\PSoC5/LCD_Char_1.c ****         value = LCD_Char_1_PORT_DM1_REG & ((uint8)(~LCD_Char_1_DATA_MASK));
 533              		.loc 1 375 0
 534 002e 474B     		ldr	r3, .L31+8
 535 0030 1B78     		ldrb	r3, [r3]
 536 0032 DBB2     		uxtb	r3, r3
ARM GAS  C:\Users\VICTOR~1\AppData\Local\Temp\ccB0MfoX.s 			page 17


 537 0034 23F00F03 		bic	r3, r3, #15
 538 0038 FB71     		strb	r3, [r7, #7]
 376:.\Generated_Source\PSoC5/LCD_Char_1.c ****         /* Load in high Z values for data pins, others unchanged */
 377:.\Generated_Source\PSoC5/LCD_Char_1.c ****         LCD_Char_1_PORT_DM1_REG = value;
 539              		.loc 1 377 0
 540 003a 444B     		ldr	r3, .L31+8
 541 003c FA79     		ldrb	r2, [r7, #7]
 542 003e 1A70     		strb	r2, [r3]
 378:.\Generated_Source\PSoC5/LCD_Char_1.c **** 
 379:.\Generated_Source\PSoC5/LCD_Char_1.c ****         /* Mask off data pins to clear old values out */
 380:.\Generated_Source\PSoC5/LCD_Char_1.c ****         value = LCD_Char_1_PORT_DM2_REG & ((uint8)(~LCD_Char_1_DATA_MASK));
 543              		.loc 1 380 0
 544 0040 434B     		ldr	r3, .L31+12
 545 0042 1B78     		ldrb	r3, [r3]
 546 0044 DBB2     		uxtb	r3, r3
 547 0046 23F00F03 		bic	r3, r3, #15
 548 004a FB71     		strb	r3, [r7, #7]
 381:.\Generated_Source\PSoC5/LCD_Char_1.c ****         /* Load in high Z values for data pins, others unchanged */
 382:.\Generated_Source\PSoC5/LCD_Char_1.c ****         LCD_Char_1_PORT_DM2_REG = value;
 549              		.loc 1 382 0
 550 004c 404B     		ldr	r3, .L31+12
 551 004e FA79     		ldrb	r2, [r7, #7]
 552 0050 1A70     		strb	r2, [r3]
 383:.\Generated_Source\PSoC5/LCD_Char_1.c ****     
 384:.\Generated_Source\PSoC5/LCD_Char_1.c ****     #endif /* CY_PSOC4 */
 385:.\Generated_Source\PSoC5/LCD_Char_1.c ****     
 386:.\Generated_Source\PSoC5/LCD_Char_1.c ****     /* Make sure RS is low */
 387:.\Generated_Source\PSoC5/LCD_Char_1.c ****     LCD_Char_1_PORT_DR_REG &= ((uint8)(~LCD_Char_1_RS));
 553              		.loc 1 387 0
 554 0052 3C4B     		ldr	r3, .L31
 555 0054 3B4A     		ldr	r2, .L31
 556 0056 1278     		ldrb	r2, [r2]
 557 0058 D2B2     		uxtb	r2, r2
 558 005a 22F02002 		bic	r2, r2, #32
 559 005e D2B2     		uxtb	r2, r2
 560 0060 1A70     		strb	r2, [r3]
 388:.\Generated_Source\PSoC5/LCD_Char_1.c **** 
 389:.\Generated_Source\PSoC5/LCD_Char_1.c ****     /* Set R/W high to read */
 390:.\Generated_Source\PSoC5/LCD_Char_1.c ****     LCD_Char_1_PORT_DR_REG |= LCD_Char_1_RW;
 561              		.loc 1 390 0
 562 0062 384B     		ldr	r3, .L31
 563 0064 374A     		ldr	r2, .L31
 564 0066 1278     		ldrb	r2, [r2]
 565 0068 D2B2     		uxtb	r2, r2
 566 006a 42F04002 		orr	r2, r2, #64
 567 006e D2B2     		uxtb	r2, r2
 568 0070 1A70     		strb	r2, [r3]
 569              	.L30:
 391:.\Generated_Source\PSoC5/LCD_Char_1.c **** 
 392:.\Generated_Source\PSoC5/LCD_Char_1.c ****     do
 393:.\Generated_Source\PSoC5/LCD_Char_1.c ****     {
 394:.\Generated_Source\PSoC5/LCD_Char_1.c ****         /* 40 ns delay required before rising Enable and 500ns between neighbour Enables */
 395:.\Generated_Source\PSoC5/LCD_Char_1.c ****         CyDelayUs(0u);
 570              		.loc 1 395 0 discriminator 1
 571 0072 0020     		movs	r0, #0
 572 0074 FFF7FEFF 		bl	CyDelayUs
 396:.\Generated_Source\PSoC5/LCD_Char_1.c **** 
ARM GAS  C:\Users\VICTOR~1\AppData\Local\Temp\ccB0MfoX.s 			page 18


 397:.\Generated_Source\PSoC5/LCD_Char_1.c ****         /* Set E high */
 398:.\Generated_Source\PSoC5/LCD_Char_1.c ****         LCD_Char_1_PORT_DR_REG |= LCD_Char_1_E;
 573              		.loc 1 398 0 discriminator 1
 574 0078 324B     		ldr	r3, .L31
 575 007a 324A     		ldr	r2, .L31
 576 007c 1278     		ldrb	r2, [r2]
 577 007e D2B2     		uxtb	r2, r2
 578 0080 42F01002 		orr	r2, r2, #16
 579 0084 D2B2     		uxtb	r2, r2
 580 0086 1A70     		strb	r2, [r3]
 399:.\Generated_Source\PSoC5/LCD_Char_1.c **** 
 400:.\Generated_Source\PSoC5/LCD_Char_1.c ****         /* 360 ns delay setup time for data pins */
 401:.\Generated_Source\PSoC5/LCD_Char_1.c ****         CyDelayUs(1u);
 581              		.loc 1 401 0 discriminator 1
 582 0088 0120     		movs	r0, #1
 583 008a FFF7FEFF 		bl	CyDelayUs
 402:.\Generated_Source\PSoC5/LCD_Char_1.c **** 
 403:.\Generated_Source\PSoC5/LCD_Char_1.c ****         /* Get port state */
 404:.\Generated_Source\PSoC5/LCD_Char_1.c ****         value = LCD_Char_1_PORT_PS_REG;
 584              		.loc 1 404 0 discriminator 1
 585 008e 314B     		ldr	r3, .L31+16
 586 0090 1B78     		ldrb	r3, [r3]
 587 0092 FB71     		strb	r3, [r7, #7]
 405:.\Generated_Source\PSoC5/LCD_Char_1.c **** 
 406:.\Generated_Source\PSoC5/LCD_Char_1.c ****         /* Set enable low */
 407:.\Generated_Source\PSoC5/LCD_Char_1.c ****         LCD_Char_1_PORT_DR_REG &= ((uint8)(~LCD_Char_1_E));
 588              		.loc 1 407 0 discriminator 1
 589 0094 2B4B     		ldr	r3, .L31
 590 0096 2B4A     		ldr	r2, .L31
 591 0098 1278     		ldrb	r2, [r2]
 592 009a D2B2     		uxtb	r2, r2
 593 009c 22F01002 		bic	r2, r2, #16
 594 00a0 D2B2     		uxtb	r2, r2
 595 00a2 1A70     		strb	r2, [r3]
 408:.\Generated_Source\PSoC5/LCD_Char_1.c **** 
 409:.\Generated_Source\PSoC5/LCD_Char_1.c ****         /* This gives true delay between disabling Enable bit and polling Ready bit */
 410:.\Generated_Source\PSoC5/LCD_Char_1.c ****         CyDelayUs(0u);
 596              		.loc 1 410 0 discriminator 1
 597 00a4 0020     		movs	r0, #0
 598 00a6 FFF7FEFF 		bl	CyDelayUs
 411:.\Generated_Source\PSoC5/LCD_Char_1.c **** 
 412:.\Generated_Source\PSoC5/LCD_Char_1.c ****         /* Extract ready bit */
 413:.\Generated_Source\PSoC5/LCD_Char_1.c ****         value &= LCD_Char_1_READY_BIT;
 599              		.loc 1 413 0 discriminator 1
 600 00aa FB79     		ldrb	r3, [r7, #7]
 601 00ac 03F00803 		and	r3, r3, #8
 602 00b0 FB71     		strb	r3, [r7, #7]
 414:.\Generated_Source\PSoC5/LCD_Char_1.c **** 
 415:.\Generated_Source\PSoC5/LCD_Char_1.c ****         /* Set E high as we in 4-bit interface we need extra operation */
 416:.\Generated_Source\PSoC5/LCD_Char_1.c ****         LCD_Char_1_PORT_DR_REG |= LCD_Char_1_E;
 603              		.loc 1 416 0 discriminator 1
 604 00b2 244B     		ldr	r3, .L31
 605 00b4 234A     		ldr	r2, .L31
 606 00b6 1278     		ldrb	r2, [r2]
 607 00b8 D2B2     		uxtb	r2, r2
 608 00ba 42F01002 		orr	r2, r2, #16
 609 00be D2B2     		uxtb	r2, r2
ARM GAS  C:\Users\VICTOR~1\AppData\Local\Temp\ccB0MfoX.s 			page 19


 610 00c0 1A70     		strb	r2, [r3]
 417:.\Generated_Source\PSoC5/LCD_Char_1.c **** 
 418:.\Generated_Source\PSoC5/LCD_Char_1.c ****         /* 360 ns delay the setup time for data pins */
 419:.\Generated_Source\PSoC5/LCD_Char_1.c ****         CyDelayUs(1u);
 611              		.loc 1 419 0 discriminator 1
 612 00c2 0120     		movs	r0, #1
 613 00c4 FFF7FEFF 		bl	CyDelayUs
 420:.\Generated_Source\PSoC5/LCD_Char_1.c **** 
 421:.\Generated_Source\PSoC5/LCD_Char_1.c ****         /* Set enable low */
 422:.\Generated_Source\PSoC5/LCD_Char_1.c ****         LCD_Char_1_PORT_DR_REG &= ((uint8)(~LCD_Char_1_E));
 614              		.loc 1 422 0 discriminator 1
 615 00c8 1E4B     		ldr	r3, .L31
 616 00ca 1E4A     		ldr	r2, .L31
 617 00cc 1278     		ldrb	r2, [r2]
 618 00ce D2B2     		uxtb	r2, r2
 619 00d0 22F01002 		bic	r2, r2, #16
 620 00d4 D2B2     		uxtb	r2, r2
 621 00d6 1A70     		strb	r2, [r3]
 423:.\Generated_Source\PSoC5/LCD_Char_1.c **** 
 424:.\Generated_Source\PSoC5/LCD_Char_1.c ****         /* Repeat until bit 4 is not zero. */
 425:.\Generated_Source\PSoC5/LCD_Char_1.c **** 
 426:.\Generated_Source\PSoC5/LCD_Char_1.c ****     } while (value != 0u);
 622              		.loc 1 426 0 discriminator 1
 623 00d8 FB79     		ldrb	r3, [r7, #7]	@ zero_extendqisi2
 624 00da 002B     		cmp	r3, #0
 625 00dc C9D1     		bne	.L30
 427:.\Generated_Source\PSoC5/LCD_Char_1.c **** 
 428:.\Generated_Source\PSoC5/LCD_Char_1.c ****     /* Set R/W low to write */
 429:.\Generated_Source\PSoC5/LCD_Char_1.c ****     LCD_Char_1_PORT_DR_REG &= ((uint8)(~LCD_Char_1_RW));
 626              		.loc 1 429 0
 627 00de 194B     		ldr	r3, .L31
 628 00e0 184A     		ldr	r2, .L31
 629 00e2 1278     		ldrb	r2, [r2]
 630 00e4 D2B2     		uxtb	r2, r2
 631 00e6 22F04002 		bic	r2, r2, #64
 632 00ea D2B2     		uxtb	r2, r2
 633 00ec 1A70     		strb	r2, [r3]
 430:.\Generated_Source\PSoC5/LCD_Char_1.c **** 
 431:.\Generated_Source\PSoC5/LCD_Char_1.c ****     /* Clear LCD port*/
 432:.\Generated_Source\PSoC5/LCD_Char_1.c ****     LCD_Char_1_PORT_DR_REG &= ((uint8)(~LCD_Char_1_PORT_MASK));
 634              		.loc 1 432 0
 635 00ee 154B     		ldr	r3, .L31
 636 00f0 144A     		ldr	r2, .L31
 637 00f2 1278     		ldrb	r2, [r2]
 638 00f4 D2B2     		uxtb	r2, r2
 639 00f6 22F07F02 		bic	r2, r2, #127
 640 00fa D2B2     		uxtb	r2, r2
 641 00fc 1A70     		strb	r2, [r3]
 433:.\Generated_Source\PSoC5/LCD_Char_1.c **** 
 434:.\Generated_Source\PSoC5/LCD_Char_1.c ****     #if (CY_PSOC4)
 435:.\Generated_Source\PSoC5/LCD_Char_1.c ****         
 436:.\Generated_Source\PSoC5/LCD_Char_1.c ****         /* Mask off data pins to clear old values out */
 437:.\Generated_Source\PSoC5/LCD_Char_1.c ****         value = LCD_Char_1_PORT_PC_REG & ((uint32)(~ LCD_Char_1_DM_DATA_MASK));
 438:.\Generated_Source\PSoC5/LCD_Char_1.c ****         /* Load in high Z values for data pins, others unchanged */
 439:.\Generated_Source\PSoC5/LCD_Char_1.c ****         LCD_Char_1_PORT_PC_REG = value | LCD_Char_1_STRONG_DATA_DM;
 440:.\Generated_Source\PSoC5/LCD_Char_1.c **** 
 441:.\Generated_Source\PSoC5/LCD_Char_1.c ****     #else
ARM GAS  C:\Users\VICTOR~1\AppData\Local\Temp\ccB0MfoX.s 			page 20


 442:.\Generated_Source\PSoC5/LCD_Char_1.c **** 
 443:.\Generated_Source\PSoC5/LCD_Char_1.c ****         /* Change Port to Output (Strong) on data pins */
 444:.\Generated_Source\PSoC5/LCD_Char_1.c ****         /* Mask off data pins to clear high z values out. Configure data pins 
 445:.\Generated_Source\PSoC5/LCD_Char_1.c ****         * to Strong Drive, others unchanged.
 446:.\Generated_Source\PSoC5/LCD_Char_1.c ****         */
 447:.\Generated_Source\PSoC5/LCD_Char_1.c ****         LCD_Char_1_PORT_DM0_REG &= ((uint8)(~LCD_Char_1_DATA_MASK));
 642              		.loc 1 447 0
 643 00fe 124B     		ldr	r3, .L31+4
 644 0100 114A     		ldr	r2, .L31+4
 645 0102 1278     		ldrb	r2, [r2]
 646 0104 D2B2     		uxtb	r2, r2
 647 0106 22F00F02 		bic	r2, r2, #15
 648 010a D2B2     		uxtb	r2, r2
 649 010c 1A70     		strb	r2, [r3]
 448:.\Generated_Source\PSoC5/LCD_Char_1.c ****         /* Mask off data pins to clear high z values out */
 449:.\Generated_Source\PSoC5/LCD_Char_1.c ****         value = LCD_Char_1_PORT_DM1_REG & ((uint8)(~LCD_Char_1_DATA_MASK));
 650              		.loc 1 449 0
 651 010e 0F4B     		ldr	r3, .L31+8
 652 0110 1B78     		ldrb	r3, [r3]
 653 0112 DBB2     		uxtb	r3, r3
 654 0114 23F00F03 		bic	r3, r3, #15
 655 0118 FB71     		strb	r3, [r7, #7]
 450:.\Generated_Source\PSoC5/LCD_Char_1.c ****         /* Configure data pins to Strong Drive, others unchanged */
 451:.\Generated_Source\PSoC5/LCD_Char_1.c ****         LCD_Char_1_PORT_DM1_REG = value | (LCD_Char_1_STRONG_DM1 & LCD_Char_1_DATA_MASK);
 656              		.loc 1 451 0
 657 011a 0C4B     		ldr	r3, .L31+8
 658 011c FA79     		ldrb	r2, [r7, #7]
 659 011e 42F00F02 		orr	r2, r2, #15
 660 0122 D2B2     		uxtb	r2, r2
 661 0124 1A70     		strb	r2, [r3]
 452:.\Generated_Source\PSoC5/LCD_Char_1.c **** 
 453:.\Generated_Source\PSoC5/LCD_Char_1.c ****         /* Mask off data pins to clear high z values out */
 454:.\Generated_Source\PSoC5/LCD_Char_1.c ****         value = LCD_Char_1_PORT_DM2_REG & ((uint8)(~LCD_Char_1_DATA_MASK));
 662              		.loc 1 454 0
 663 0126 0A4B     		ldr	r3, .L31+12
 664 0128 1B78     		ldrb	r3, [r3]
 665 012a DBB2     		uxtb	r3, r3
 666 012c 23F00F03 		bic	r3, r3, #15
 667 0130 FB71     		strb	r3, [r7, #7]
 455:.\Generated_Source\PSoC5/LCD_Char_1.c ****         /* Configure data pins to Strong Drive, others unchanged */
 456:.\Generated_Source\PSoC5/LCD_Char_1.c ****         LCD_Char_1_PORT_DM2_REG = value | (LCD_Char_1_STRONG_DM2 & LCD_Char_1_DATA_MASK);
 668              		.loc 1 456 0
 669 0132 074B     		ldr	r3, .L31+12
 670 0134 FA79     		ldrb	r2, [r7, #7]
 671 0136 42F00F02 		orr	r2, r2, #15
 672 013a D2B2     		uxtb	r2, r2
 673 013c 1A70     		strb	r2, [r3]
 457:.\Generated_Source\PSoC5/LCD_Char_1.c ****     
 458:.\Generated_Source\PSoC5/LCD_Char_1.c ****     #endif /* CY_PSOC4 */
 459:.\Generated_Source\PSoC5/LCD_Char_1.c **** }
 674              		.loc 1 459 0
 675 013e 0837     		adds	r7, r7, #8
 676 0140 BD46     		mov	sp, r7
 677              		@ sp needed
 678 0142 80BD     		pop	{r7, pc}
 679              	.L32:
 680              		.align	2
ARM GAS  C:\Users\VICTOR~1\AppData\Local\Temp\ccB0MfoX.s 			page 21


 681              	.L31:
 682 0144 00510040 		.word	1073762560
 683 0148 02510040 		.word	1073762562
 684 014c 03510040 		.word	1073762563
 685 0150 04510040 		.word	1073762564
 686 0154 01510040 		.word	1073762561
 687              		.cfi_endproc
 688              	.LFE9:
 689              		.size	LCD_Char_1_IsReady, .-LCD_Char_1_IsReady
 690              		.section	.text.LCD_Char_1_WrDatNib,"ax",%progbits
 691              		.align	2
 692              		.thumb
 693              		.thumb_func
 694              		.type	LCD_Char_1_WrDatNib, %function
 695              	LCD_Char_1_WrDatNib:
 696              	.LFB10:
 460:.\Generated_Source\PSoC5/LCD_Char_1.c **** 
 461:.\Generated_Source\PSoC5/LCD_Char_1.c **** 
 462:.\Generated_Source\PSoC5/LCD_Char_1.c **** /*******************************************************************************
 463:.\Generated_Source\PSoC5/LCD_Char_1.c **** *  Function Name: LCD_Char_1_WrDatNib
 464:.\Generated_Source\PSoC5/LCD_Char_1.c **** ********************************************************************************
 465:.\Generated_Source\PSoC5/LCD_Char_1.c **** *
 466:.\Generated_Source\PSoC5/LCD_Char_1.c **** * Summary:
 467:.\Generated_Source\PSoC5/LCD_Char_1.c **** *  Writes a data nibble to the LCD module.
 468:.\Generated_Source\PSoC5/LCD_Char_1.c **** *
 469:.\Generated_Source\PSoC5/LCD_Char_1.c **** * Parameters:
 470:.\Generated_Source\PSoC5/LCD_Char_1.c **** *  nibble:  Byte containing nibble in least significant nibble to be written
 471:.\Generated_Source\PSoC5/LCD_Char_1.c **** *           to LCD module.
 472:.\Generated_Source\PSoC5/LCD_Char_1.c **** *
 473:.\Generated_Source\PSoC5/LCD_Char_1.c **** * Return:
 474:.\Generated_Source\PSoC5/LCD_Char_1.c **** *  None.
 475:.\Generated_Source\PSoC5/LCD_Char_1.c **** *
 476:.\Generated_Source\PSoC5/LCD_Char_1.c **** *******************************************************************************/
 477:.\Generated_Source\PSoC5/LCD_Char_1.c **** static void LCD_Char_1_WrDatNib(uint8 nibble) 
 478:.\Generated_Source\PSoC5/LCD_Char_1.c **** {
 697              		.loc 1 478 0
 698              		.cfi_startproc
 699              		@ args = 0, pretend = 0, frame = 8
 700              		@ frame_needed = 1, uses_anonymous_args = 0
 701 0000 80B5     		push	{r7, lr}
 702              		.cfi_def_cfa_offset 8
 703              		.cfi_offset 7, -8
 704              		.cfi_offset 14, -4
 705 0002 82B0     		sub	sp, sp, #8
 706              		.cfi_def_cfa_offset 16
 707 0004 00AF     		add	r7, sp, #0
 708              		.cfi_def_cfa_register 7
 709 0006 0346     		mov	r3, r0
 710 0008 FB71     		strb	r3, [r7, #7]
 479:.\Generated_Source\PSoC5/LCD_Char_1.c ****     /* RS should be low to select data register */
 480:.\Generated_Source\PSoC5/LCD_Char_1.c ****     LCD_Char_1_PORT_DR_REG |= LCD_Char_1_RS;
 711              		.loc 1 480 0
 712 000a 1A4B     		ldr	r3, .L34
 713 000c 194A     		ldr	r2, .L34
 714 000e 1278     		ldrb	r2, [r2]
 715 0010 D2B2     		uxtb	r2, r2
 716 0012 42F02002 		orr	r2, r2, #32
ARM GAS  C:\Users\VICTOR~1\AppData\Local\Temp\ccB0MfoX.s 			page 22


 717 0016 D2B2     		uxtb	r2, r2
 718 0018 1A70     		strb	r2, [r3]
 481:.\Generated_Source\PSoC5/LCD_Char_1.c ****     /* Reset RW for write operation */
 482:.\Generated_Source\PSoC5/LCD_Char_1.c ****     LCD_Char_1_PORT_DR_REG &= ((uint8)(~LCD_Char_1_RW));
 719              		.loc 1 482 0
 720 001a 164B     		ldr	r3, .L34
 721 001c 154A     		ldr	r2, .L34
 722 001e 1278     		ldrb	r2, [r2]
 723 0020 D2B2     		uxtb	r2, r2
 724 0022 22F04002 		bic	r2, r2, #64
 725 0026 D2B2     		uxtb	r2, r2
 726 0028 1A70     		strb	r2, [r3]
 483:.\Generated_Source\PSoC5/LCD_Char_1.c **** 
 484:.\Generated_Source\PSoC5/LCD_Char_1.c ****     /* Guaranteed delay between Setting RS and RW and setting E bits */
 485:.\Generated_Source\PSoC5/LCD_Char_1.c ****     CyDelayUs(0u);
 727              		.loc 1 485 0
 728 002a 0020     		movs	r0, #0
 729 002c FFF7FEFF 		bl	CyDelayUs
 486:.\Generated_Source\PSoC5/LCD_Char_1.c ****     
 487:.\Generated_Source\PSoC5/LCD_Char_1.c ****     /* Clear data pins */
 488:.\Generated_Source\PSoC5/LCD_Char_1.c ****     LCD_Char_1_PORT_DR_REG &= ((uint8)(~LCD_Char_1_DATA_MASK));
 730              		.loc 1 488 0
 731 0030 104B     		ldr	r3, .L34
 732 0032 104A     		ldr	r2, .L34
 733 0034 1278     		ldrb	r2, [r2]
 734 0036 D2B2     		uxtb	r2, r2
 735 0038 22F00F02 		bic	r2, r2, #15
 736 003c D2B2     		uxtb	r2, r2
 737 003e 1A70     		strb	r2, [r3]
 489:.\Generated_Source\PSoC5/LCD_Char_1.c **** 
 490:.\Generated_Source\PSoC5/LCD_Char_1.c ****     /* Write data, bring E high */
 491:.\Generated_Source\PSoC5/LCD_Char_1.c ****     #if(0u != LCD_Char_1_PORT_SHIFT) /* MISRA forbids shift by 0 so need to handle that */
 492:.\Generated_Source\PSoC5/LCD_Char_1.c ****         LCD_Char_1_PORT_DR_REG |= 
 493:.\Generated_Source\PSoC5/LCD_Char_1.c ****             (LCD_Char_1_E | ((uint8)(((uint8) nibble) << LCD_Char_1_PORT_SHIFT)));
 494:.\Generated_Source\PSoC5/LCD_Char_1.c ****     #else
 495:.\Generated_Source\PSoC5/LCD_Char_1.c ****         LCD_Char_1_PORT_DR_REG |= (LCD_Char_1_E | nibble);
 738              		.loc 1 495 0
 739 0040 0C4B     		ldr	r3, .L34
 740 0042 0C4A     		ldr	r2, .L34
 741 0044 1278     		ldrb	r2, [r2]
 742 0046 D1B2     		uxtb	r1, r2
 743 0048 FA79     		ldrb	r2, [r7, #7]
 744 004a 0A43     		orrs	r2, r2, r1
 745 004c D2B2     		uxtb	r2, r2
 746 004e 42F01002 		orr	r2, r2, #16
 747 0052 D2B2     		uxtb	r2, r2
 748 0054 1A70     		strb	r2, [r3]
 496:.\Generated_Source\PSoC5/LCD_Char_1.c ****     #endif /* (0u != LCD_Char_1_PORT_SHIFT) */
 497:.\Generated_Source\PSoC5/LCD_Char_1.c **** 
 498:.\Generated_Source\PSoC5/LCD_Char_1.c ****     /* Minimum of 230 ns delay */
 499:.\Generated_Source\PSoC5/LCD_Char_1.c ****     CyDelayUs(1u);
 749              		.loc 1 499 0
 750 0056 0120     		movs	r0, #1
 751 0058 FFF7FEFF 		bl	CyDelayUs
 500:.\Generated_Source\PSoC5/LCD_Char_1.c **** 
 501:.\Generated_Source\PSoC5/LCD_Char_1.c ****     LCD_Char_1_PORT_DR_REG &= ((uint8)(~LCD_Char_1_E));
 752              		.loc 1 501 0
ARM GAS  C:\Users\VICTOR~1\AppData\Local\Temp\ccB0MfoX.s 			page 23


 753 005c 054B     		ldr	r3, .L34
 754 005e 054A     		ldr	r2, .L34
 755 0060 1278     		ldrb	r2, [r2]
 756 0062 D2B2     		uxtb	r2, r2
 757 0064 22F01002 		bic	r2, r2, #16
 758 0068 D2B2     		uxtb	r2, r2
 759 006a 1A70     		strb	r2, [r3]
 502:.\Generated_Source\PSoC5/LCD_Char_1.c **** }
 760              		.loc 1 502 0
 761 006c 0837     		adds	r7, r7, #8
 762 006e BD46     		mov	sp, r7
 763              		@ sp needed
 764 0070 80BD     		pop	{r7, pc}
 765              	.L35:
 766 0072 00BF     		.align	2
 767              	.L34:
 768 0074 00510040 		.word	1073762560
 769              		.cfi_endproc
 770              	.LFE10:
 771              		.size	LCD_Char_1_WrDatNib, .-LCD_Char_1_WrDatNib
 772              		.section	.text.LCD_Char_1_WrCntrlNib,"ax",%progbits
 773              		.align	2
 774              		.thumb
 775              		.thumb_func
 776              		.type	LCD_Char_1_WrCntrlNib, %function
 777              	LCD_Char_1_WrCntrlNib:
 778              	.LFB11:
 503:.\Generated_Source\PSoC5/LCD_Char_1.c **** 
 504:.\Generated_Source\PSoC5/LCD_Char_1.c **** 
 505:.\Generated_Source\PSoC5/LCD_Char_1.c **** /*******************************************************************************
 506:.\Generated_Source\PSoC5/LCD_Char_1.c **** *  Function Name: LCD_Char_1_WrCntrlNib
 507:.\Generated_Source\PSoC5/LCD_Char_1.c **** ********************************************************************************
 508:.\Generated_Source\PSoC5/LCD_Char_1.c **** *
 509:.\Generated_Source\PSoC5/LCD_Char_1.c **** * Summary:
 510:.\Generated_Source\PSoC5/LCD_Char_1.c **** *  Writes a control nibble to the LCD module.
 511:.\Generated_Source\PSoC5/LCD_Char_1.c **** *
 512:.\Generated_Source\PSoC5/LCD_Char_1.c **** * Parameters:
 513:.\Generated_Source\PSoC5/LCD_Char_1.c **** *  nibble: The byte containing a nibble in the four least significant bits.????
 514:.\Generated_Source\PSoC5/LCD_Char_1.c **** *
 515:.\Generated_Source\PSoC5/LCD_Char_1.c **** * Return:
 516:.\Generated_Source\PSoC5/LCD_Char_1.c **** *  None.
 517:.\Generated_Source\PSoC5/LCD_Char_1.c **** *
 518:.\Generated_Source\PSoC5/LCD_Char_1.c **** *******************************************************************************/
 519:.\Generated_Source\PSoC5/LCD_Char_1.c **** static void LCD_Char_1_WrCntrlNib(uint8 nibble) 
 520:.\Generated_Source\PSoC5/LCD_Char_1.c **** {
 779              		.loc 1 520 0
 780              		.cfi_startproc
 781              		@ args = 0, pretend = 0, frame = 8
 782              		@ frame_needed = 1, uses_anonymous_args = 0
 783 0000 80B5     		push	{r7, lr}
 784              		.cfi_def_cfa_offset 8
 785              		.cfi_offset 7, -8
 786              		.cfi_offset 14, -4
 787 0002 82B0     		sub	sp, sp, #8
 788              		.cfi_def_cfa_offset 16
 789 0004 00AF     		add	r7, sp, #0
 790              		.cfi_def_cfa_register 7
ARM GAS  C:\Users\VICTOR~1\AppData\Local\Temp\ccB0MfoX.s 			page 24


 791 0006 0346     		mov	r3, r0
 792 0008 FB71     		strb	r3, [r7, #7]
 521:.\Generated_Source\PSoC5/LCD_Char_1.c ****     /* RS and RW should be low to select instruction register and  write operation respectively */
 522:.\Generated_Source\PSoC5/LCD_Char_1.c ****     LCD_Char_1_PORT_DR_REG &= ((uint8)(~(LCD_Char_1_RS | LCD_Char_1_RW)));
 793              		.loc 1 522 0
 794 000a 144B     		ldr	r3, .L37
 795 000c 134A     		ldr	r2, .L37
 796 000e 1278     		ldrb	r2, [r2]
 797 0010 D2B2     		uxtb	r2, r2
 798 0012 22F06002 		bic	r2, r2, #96
 799 0016 D2B2     		uxtb	r2, r2
 800 0018 1A70     		strb	r2, [r3]
 523:.\Generated_Source\PSoC5/LCD_Char_1.c **** 
 524:.\Generated_Source\PSoC5/LCD_Char_1.c ****     /* Two following lines of code will give 40ns delay */
 525:.\Generated_Source\PSoC5/LCD_Char_1.c ****     /* Clear data pins */
 526:.\Generated_Source\PSoC5/LCD_Char_1.c ****     LCD_Char_1_PORT_DR_REG &= ((uint8)(~LCD_Char_1_DATA_MASK));
 801              		.loc 1 526 0
 802 001a 104B     		ldr	r3, .L37
 803 001c 0F4A     		ldr	r2, .L37
 804 001e 1278     		ldrb	r2, [r2]
 805 0020 D2B2     		uxtb	r2, r2
 806 0022 22F00F02 		bic	r2, r2, #15
 807 0026 D2B2     		uxtb	r2, r2
 808 0028 1A70     		strb	r2, [r3]
 527:.\Generated_Source\PSoC5/LCD_Char_1.c **** 
 528:.\Generated_Source\PSoC5/LCD_Char_1.c ****     /* Write control data and set enable signal */
 529:.\Generated_Source\PSoC5/LCD_Char_1.c ****     #if(0u != LCD_Char_1_PORT_SHIFT) /* MISRA forbids shift by 0 so need to handle that */
 530:.\Generated_Source\PSoC5/LCD_Char_1.c ****         LCD_Char_1_PORT_DR_REG |= 
 531:.\Generated_Source\PSoC5/LCD_Char_1.c ****             (LCD_Char_1_E | ((uint8)(((uint8) nibble) << LCD_Char_1_PORT_SHIFT)));
 532:.\Generated_Source\PSoC5/LCD_Char_1.c ****     #else
 533:.\Generated_Source\PSoC5/LCD_Char_1.c ****         LCD_Char_1_PORT_DR_REG |= (LCD_Char_1_E | nibble);
 809              		.loc 1 533 0
 810 002a 0C4B     		ldr	r3, .L37
 811 002c 0B4A     		ldr	r2, .L37
 812 002e 1278     		ldrb	r2, [r2]
 813 0030 D1B2     		uxtb	r1, r2
 814 0032 FA79     		ldrb	r2, [r7, #7]
 815 0034 0A43     		orrs	r2, r2, r1
 816 0036 D2B2     		uxtb	r2, r2
 817 0038 42F01002 		orr	r2, r2, #16
 818 003c D2B2     		uxtb	r2, r2
 819 003e 1A70     		strb	r2, [r3]
 534:.\Generated_Source\PSoC5/LCD_Char_1.c ****     #endif /* (0u != LCD_Char_1_PORT_SHIFT) */
 535:.\Generated_Source\PSoC5/LCD_Char_1.c **** 
 536:.\Generated_Source\PSoC5/LCD_Char_1.c ****     /* Minimum of 230 ns delay */
 537:.\Generated_Source\PSoC5/LCD_Char_1.c ****     CyDelayUs(1u);
 820              		.loc 1 537 0
 821 0040 0120     		movs	r0, #1
 822 0042 FFF7FEFF 		bl	CyDelayUs
 538:.\Generated_Source\PSoC5/LCD_Char_1.c **** 
 539:.\Generated_Source\PSoC5/LCD_Char_1.c ****     LCD_Char_1_PORT_DR_REG &= ((uint8)(~LCD_Char_1_E));
 823              		.loc 1 539 0
 824 0046 054B     		ldr	r3, .L37
 825 0048 044A     		ldr	r2, .L37
 826 004a 1278     		ldrb	r2, [r2]
 827 004c D2B2     		uxtb	r2, r2
 828 004e 22F01002 		bic	r2, r2, #16
ARM GAS  C:\Users\VICTOR~1\AppData\Local\Temp\ccB0MfoX.s 			page 25


 829 0052 D2B2     		uxtb	r2, r2
 830 0054 1A70     		strb	r2, [r3]
 540:.\Generated_Source\PSoC5/LCD_Char_1.c **** }
 831              		.loc 1 540 0
 832 0056 0837     		adds	r7, r7, #8
 833 0058 BD46     		mov	sp, r7
 834              		@ sp needed
 835 005a 80BD     		pop	{r7, pc}
 836              	.L38:
 837              		.align	2
 838              	.L37:
 839 005c 00510040 		.word	1073762560
 840              		.cfi_endproc
 841              	.LFE11:
 842              		.size	LCD_Char_1_WrCntrlNib, .-LCD_Char_1_WrCntrlNib
 843              		.section	.text.LCD_Char_1_PrintInt8,"ax",%progbits
 844              		.align	2
 845              		.global	LCD_Char_1_PrintInt8
 846              		.thumb
 847              		.thumb_func
 848              		.type	LCD_Char_1_PrintInt8, %function
 849              	LCD_Char_1_PrintInt8:
 850              	.LFB12:
 541:.\Generated_Source\PSoC5/LCD_Char_1.c **** 
 542:.\Generated_Source\PSoC5/LCD_Char_1.c **** 
 543:.\Generated_Source\PSoC5/LCD_Char_1.c **** #if(LCD_Char_1_CONVERSION_ROUTINES == 1u)
 544:.\Generated_Source\PSoC5/LCD_Char_1.c **** 
 545:.\Generated_Source\PSoC5/LCD_Char_1.c ****     /*******************************************************************************
 546:.\Generated_Source\PSoC5/LCD_Char_1.c ****     *  Function Name: LCD_Char_1_PrintInt8
 547:.\Generated_Source\PSoC5/LCD_Char_1.c ****     ********************************************************************************
 548:.\Generated_Source\PSoC5/LCD_Char_1.c ****     *
 549:.\Generated_Source\PSoC5/LCD_Char_1.c ****     * Summary:
 550:.\Generated_Source\PSoC5/LCD_Char_1.c ****     *  Print a byte as two ASCII characters.
 551:.\Generated_Source\PSoC5/LCD_Char_1.c ****     *
 552:.\Generated_Source\PSoC5/LCD_Char_1.c ****     * Parameters:
 553:.\Generated_Source\PSoC5/LCD_Char_1.c ****     *  value: The byte to be printed out as ASCII characters.
 554:.\Generated_Source\PSoC5/LCD_Char_1.c ****     *
 555:.\Generated_Source\PSoC5/LCD_Char_1.c ****     * Return:
 556:.\Generated_Source\PSoC5/LCD_Char_1.c ****     *  None.
 557:.\Generated_Source\PSoC5/LCD_Char_1.c ****     *
 558:.\Generated_Source\PSoC5/LCD_Char_1.c ****     *******************************************************************************/
 559:.\Generated_Source\PSoC5/LCD_Char_1.c ****     void LCD_Char_1_PrintInt8(uint8 value) 
 560:.\Generated_Source\PSoC5/LCD_Char_1.c ****     {
 851              		.loc 1 560 0
 852              		.cfi_startproc
 853              		@ args = 0, pretend = 0, frame = 8
 854              		@ frame_needed = 1, uses_anonymous_args = 0
 855 0000 80B5     		push	{r7, lr}
 856              		.cfi_def_cfa_offset 8
 857              		.cfi_offset 7, -8
 858              		.cfi_offset 14, -4
 859 0002 82B0     		sub	sp, sp, #8
 860              		.cfi_def_cfa_offset 16
 861 0004 00AF     		add	r7, sp, #0
 862              		.cfi_def_cfa_register 7
 863 0006 0346     		mov	r3, r0
 864 0008 FB71     		strb	r3, [r7, #7]
ARM GAS  C:\Users\VICTOR~1\AppData\Local\Temp\ccB0MfoX.s 			page 26


 561:.\Generated_Source\PSoC5/LCD_Char_1.c ****         static char8 const CYCODE LCD_Char_1_hex[16u] = "0123456789ABCDEF";
 562:.\Generated_Source\PSoC5/LCD_Char_1.c ****         
 563:.\Generated_Source\PSoC5/LCD_Char_1.c ****         LCD_Char_1_PutChar((char8) LCD_Char_1_hex[value >> LCD_Char_1_BYTE_UPPER_NIBBLE_SHIFT]);
 865              		.loc 1 563 0
 866 000a FB79     		ldrb	r3, [r7, #7]	@ zero_extendqisi2
 867 000c 1B09     		lsrs	r3, r3, #4
 868 000e DBB2     		uxtb	r3, r3
 869 0010 074A     		ldr	r2, .L40
 870 0012 D35C     		ldrb	r3, [r2, r3]	@ zero_extendqisi2
 871 0014 1846     		mov	r0, r3
 872 0016 FFF7FEFF 		bl	LCD_Char_1_PutChar
 564:.\Generated_Source\PSoC5/LCD_Char_1.c ****         LCD_Char_1_PutChar((char8) LCD_Char_1_hex[value & LCD_Char_1_BYTE_LOWER_NIBBLE_MASK]);
 873              		.loc 1 564 0
 874 001a FB79     		ldrb	r3, [r7, #7]	@ zero_extendqisi2
 875 001c 03F00F03 		and	r3, r3, #15
 876 0020 034A     		ldr	r2, .L40
 877 0022 D35C     		ldrb	r3, [r2, r3]	@ zero_extendqisi2
 878 0024 1846     		mov	r0, r3
 879 0026 FFF7FEFF 		bl	LCD_Char_1_PutChar
 565:.\Generated_Source\PSoC5/LCD_Char_1.c ****     }
 880              		.loc 1 565 0
 881 002a 0837     		adds	r7, r7, #8
 882 002c BD46     		mov	sp, r7
 883              		@ sp needed
 884 002e 80BD     		pop	{r7, pc}
 885              	.L41:
 886              		.align	2
 887              	.L40:
 888 0030 00000000 		.word	LCD_Char_1_hex.4865
 889              		.cfi_endproc
 890              	.LFE12:
 891              		.size	LCD_Char_1_PrintInt8, .-LCD_Char_1_PrintInt8
 892              		.section	.text.LCD_Char_1_PrintInt16,"ax",%progbits
 893              		.align	2
 894              		.global	LCD_Char_1_PrintInt16
 895              		.thumb
 896              		.thumb_func
 897              		.type	LCD_Char_1_PrintInt16, %function
 898              	LCD_Char_1_PrintInt16:
 899              	.LFB13:
 566:.\Generated_Source\PSoC5/LCD_Char_1.c **** 
 567:.\Generated_Source\PSoC5/LCD_Char_1.c **** 
 568:.\Generated_Source\PSoC5/LCD_Char_1.c ****     /*******************************************************************************
 569:.\Generated_Source\PSoC5/LCD_Char_1.c ****     *  Function Name: LCD_Char_1_PrintInt16
 570:.\Generated_Source\PSoC5/LCD_Char_1.c ****     ********************************************************************************
 571:.\Generated_Source\PSoC5/LCD_Char_1.c ****     *
 572:.\Generated_Source\PSoC5/LCD_Char_1.c ****     * Summary:
 573:.\Generated_Source\PSoC5/LCD_Char_1.c ****     *  Print a uint16 as four ASCII characters.
 574:.\Generated_Source\PSoC5/LCD_Char_1.c ****     *
 575:.\Generated_Source\PSoC5/LCD_Char_1.c ****     * Parameters:
 576:.\Generated_Source\PSoC5/LCD_Char_1.c ****     *  value: The uint16 to be printed out as ASCII characters.
 577:.\Generated_Source\PSoC5/LCD_Char_1.c ****     *
 578:.\Generated_Source\PSoC5/LCD_Char_1.c ****     * Return:
 579:.\Generated_Source\PSoC5/LCD_Char_1.c ****     *  None.
 580:.\Generated_Source\PSoC5/LCD_Char_1.c ****     *
 581:.\Generated_Source\PSoC5/LCD_Char_1.c ****     *******************************************************************************/
 582:.\Generated_Source\PSoC5/LCD_Char_1.c ****     void LCD_Char_1_PrintInt16(uint16 value) 
ARM GAS  C:\Users\VICTOR~1\AppData\Local\Temp\ccB0MfoX.s 			page 27


 583:.\Generated_Source\PSoC5/LCD_Char_1.c ****     {
 900              		.loc 1 583 0
 901              		.cfi_startproc
 902              		@ args = 0, pretend = 0, frame = 8
 903              		@ frame_needed = 1, uses_anonymous_args = 0
 904 0000 80B5     		push	{r7, lr}
 905              		.cfi_def_cfa_offset 8
 906              		.cfi_offset 7, -8
 907              		.cfi_offset 14, -4
 908 0002 82B0     		sub	sp, sp, #8
 909              		.cfi_def_cfa_offset 16
 910 0004 00AF     		add	r7, sp, #0
 911              		.cfi_def_cfa_register 7
 912 0006 0346     		mov	r3, r0
 913 0008 FB80     		strh	r3, [r7, #6]	@ movhi
 584:.\Generated_Source\PSoC5/LCD_Char_1.c ****         LCD_Char_1_PrintInt8((uint8)(value >> LCD_Char_1_U16_UPPER_BYTE_SHIFT));
 914              		.loc 1 584 0
 915 000a FB88     		ldrh	r3, [r7, #6]
 916 000c 1B0A     		lsrs	r3, r3, #8
 917 000e 9BB2     		uxth	r3, r3
 918 0010 DBB2     		uxtb	r3, r3
 919 0012 1846     		mov	r0, r3
 920 0014 FFF7FEFF 		bl	LCD_Char_1_PrintInt8
 585:.\Generated_Source\PSoC5/LCD_Char_1.c ****         LCD_Char_1_PrintInt8((uint8)(value & LCD_Char_1_U16_LOWER_BYTE_MASK));
 921              		.loc 1 585 0
 922 0018 FB88     		ldrh	r3, [r7, #6]	@ movhi
 923 001a DBB2     		uxtb	r3, r3
 924 001c 1846     		mov	r0, r3
 925 001e FFF7FEFF 		bl	LCD_Char_1_PrintInt8
 586:.\Generated_Source\PSoC5/LCD_Char_1.c ****     }
 926              		.loc 1 586 0
 927 0022 0837     		adds	r7, r7, #8
 928 0024 BD46     		mov	sp, r7
 929              		@ sp needed
 930 0026 80BD     		pop	{r7, pc}
 931              		.cfi_endproc
 932              	.LFE13:
 933              		.size	LCD_Char_1_PrintInt16, .-LCD_Char_1_PrintInt16
 934              		.section	.text.LCD_Char_1_PrintInt32,"ax",%progbits
 935              		.align	2
 936              		.global	LCD_Char_1_PrintInt32
 937              		.thumb
 938              		.thumb_func
 939              		.type	LCD_Char_1_PrintInt32, %function
 940              	LCD_Char_1_PrintInt32:
 941              	.LFB14:
 587:.\Generated_Source\PSoC5/LCD_Char_1.c **** 
 588:.\Generated_Source\PSoC5/LCD_Char_1.c ****     
 589:.\Generated_Source\PSoC5/LCD_Char_1.c ****     /*******************************************************************************
 590:.\Generated_Source\PSoC5/LCD_Char_1.c ****     *  Function Name: LCD_Char_1_PrintInt32
 591:.\Generated_Source\PSoC5/LCD_Char_1.c ****     ********************************************************************************
 592:.\Generated_Source\PSoC5/LCD_Char_1.c ****     *
 593:.\Generated_Source\PSoC5/LCD_Char_1.c ****     * Summary:
 594:.\Generated_Source\PSoC5/LCD_Char_1.c ****     *  Print a uint32 hexadecimal number as eight ASCII characters.
 595:.\Generated_Source\PSoC5/LCD_Char_1.c ****     *
 596:.\Generated_Source\PSoC5/LCD_Char_1.c ****     * Parameters:
 597:.\Generated_Source\PSoC5/LCD_Char_1.c ****     *  value: The uint32 to be printed out as ASCII characters.
ARM GAS  C:\Users\VICTOR~1\AppData\Local\Temp\ccB0MfoX.s 			page 28


 598:.\Generated_Source\PSoC5/LCD_Char_1.c ****     *
 599:.\Generated_Source\PSoC5/LCD_Char_1.c ****     * Return:
 600:.\Generated_Source\PSoC5/LCD_Char_1.c ****     *  None.
 601:.\Generated_Source\PSoC5/LCD_Char_1.c ****     *
 602:.\Generated_Source\PSoC5/LCD_Char_1.c ****     *******************************************************************************/
 603:.\Generated_Source\PSoC5/LCD_Char_1.c ****     void LCD_Char_1_PrintInt32(uint32 value) 
 604:.\Generated_Source\PSoC5/LCD_Char_1.c ****     {
 942              		.loc 1 604 0
 943              		.cfi_startproc
 944              		@ args = 0, pretend = 0, frame = 16
 945              		@ frame_needed = 1, uses_anonymous_args = 0
 946 0000 80B5     		push	{r7, lr}
 947              		.cfi_def_cfa_offset 8
 948              		.cfi_offset 7, -8
 949              		.cfi_offset 14, -4
 950 0002 84B0     		sub	sp, sp, #16
 951              		.cfi_def_cfa_offset 24
 952 0004 00AF     		add	r7, sp, #0
 953              		.cfi_def_cfa_register 7
 954 0006 7860     		str	r0, [r7, #4]
 605:.\Generated_Source\PSoC5/LCD_Char_1.c ****         uint8 shift = LCD_Char_1_32_BIT_SHIFT;
 955              		.loc 1 605 0
 956 0008 2023     		movs	r3, #32
 957 000a FB73     		strb	r3, [r7, #15]
 606:.\Generated_Source\PSoC5/LCD_Char_1.c ****         
 607:.\Generated_Source\PSoC5/LCD_Char_1.c ****         while (shift != 0u)
 958              		.loc 1 607 0
 959 000c 0AE0     		b	.L44
 960              	.L45:
 608:.\Generated_Source\PSoC5/LCD_Char_1.c ****         {
 609:.\Generated_Source\PSoC5/LCD_Char_1.c ****             /* "shift" var should be subtracted by 8 prior shifting. This implements 
 610:.\Generated_Source\PSoC5/LCD_Char_1.c ****             * shifting by 24, 16, 8 and 0u. 
 611:.\Generated_Source\PSoC5/LCD_Char_1.c ****             */
 612:.\Generated_Source\PSoC5/LCD_Char_1.c ****             shift -= LCD_Char_1_8_BIT_SHIFT;
 961              		.loc 1 612 0
 962 000e FB7B     		ldrb	r3, [r7, #15]
 963 0010 083B     		subs	r3, r3, #8
 964 0012 FB73     		strb	r3, [r7, #15]
 613:.\Generated_Source\PSoC5/LCD_Char_1.c ****             
 614:.\Generated_Source\PSoC5/LCD_Char_1.c ****             /* Print 8 bits of uint32 hex number */
 615:.\Generated_Source\PSoC5/LCD_Char_1.c ****             LCD_Char_1_PrintInt8((uint8) ((uint32) (value >> shift)));
 965              		.loc 1 615 0
 966 0014 FB7B     		ldrb	r3, [r7, #15]	@ zero_extendqisi2
 967 0016 7A68     		ldr	r2, [r7, #4]
 968 0018 22FA03F3 		lsr	r3, r2, r3
 969 001c DBB2     		uxtb	r3, r3
 970 001e 1846     		mov	r0, r3
 971 0020 FFF7FEFF 		bl	LCD_Char_1_PrintInt8
 972              	.L44:
 607:.\Generated_Source\PSoC5/LCD_Char_1.c ****         while (shift != 0u)
 973              		.loc 1 607 0 discriminator 1
 974 0024 FB7B     		ldrb	r3, [r7, #15]	@ zero_extendqisi2
 975 0026 002B     		cmp	r3, #0
 976 0028 F1D1     		bne	.L45
 616:.\Generated_Source\PSoC5/LCD_Char_1.c ****         }
 617:.\Generated_Source\PSoC5/LCD_Char_1.c ****     }
 977              		.loc 1 617 0
ARM GAS  C:\Users\VICTOR~1\AppData\Local\Temp\ccB0MfoX.s 			page 29


 978 002a 1037     		adds	r7, r7, #16
 979 002c BD46     		mov	sp, r7
 980              		@ sp needed
 981 002e 80BD     		pop	{r7, pc}
 982              		.cfi_endproc
 983              	.LFE14:
 984              		.size	LCD_Char_1_PrintInt32, .-LCD_Char_1_PrintInt32
 985              		.section	.text.LCD_Char_1_PrintU32Number,"ax",%progbits
 986              		.align	2
 987              		.global	LCD_Char_1_PrintU32Number
 988              		.thumb
 989              		.thumb_func
 990              		.type	LCD_Char_1_PrintU32Number, %function
 991              	LCD_Char_1_PrintU32Number:
 992              	.LFB15:
 618:.\Generated_Source\PSoC5/LCD_Char_1.c ****     
 619:.\Generated_Source\PSoC5/LCD_Char_1.c ****     
 620:.\Generated_Source\PSoC5/LCD_Char_1.c ****     /*******************************************************************************
 621:.\Generated_Source\PSoC5/LCD_Char_1.c ****     *  Function Name: LCD_Char_1_PrintNumber
 622:.\Generated_Source\PSoC5/LCD_Char_1.c ****     ********************************************************************************
 623:.\Generated_Source\PSoC5/LCD_Char_1.c ****     *
 624:.\Generated_Source\PSoC5/LCD_Char_1.c ****     * Summary:
 625:.\Generated_Source\PSoC5/LCD_Char_1.c ****     *  Print an uint16 value as a left-justified decimal value.
 626:.\Generated_Source\PSoC5/LCD_Char_1.c ****     *
 627:.\Generated_Source\PSoC5/LCD_Char_1.c ****     * Parameters:
 628:.\Generated_Source\PSoC5/LCD_Char_1.c ****     *  value: A 16-bit value to be printed in ASCII characters as a decimal number
 629:.\Generated_Source\PSoC5/LCD_Char_1.c ****     *
 630:.\Generated_Source\PSoC5/LCD_Char_1.c ****     * Return:
 631:.\Generated_Source\PSoC5/LCD_Char_1.c ****     *  None.
 632:.\Generated_Source\PSoC5/LCD_Char_1.c ****     *
 633:.\Generated_Source\PSoC5/LCD_Char_1.c ****     * Note:
 634:.\Generated_Source\PSoC5/LCD_Char_1.c ****     *  This function is implemented as a macro.
 635:.\Generated_Source\PSoC5/LCD_Char_1.c ****     *
 636:.\Generated_Source\PSoC5/LCD_Char_1.c ****     *******************************************************************************/
 637:.\Generated_Source\PSoC5/LCD_Char_1.c **** 
 638:.\Generated_Source\PSoC5/LCD_Char_1.c ****     
 639:.\Generated_Source\PSoC5/LCD_Char_1.c ****     /*******************************************************************************
 640:.\Generated_Source\PSoC5/LCD_Char_1.c ****     *  Function Name: LCD_Char_1_PrintU32Number
 641:.\Generated_Source\PSoC5/LCD_Char_1.c ****     ********************************************************************************
 642:.\Generated_Source\PSoC5/LCD_Char_1.c ****     *
 643:.\Generated_Source\PSoC5/LCD_Char_1.c ****     * Summary:
 644:.\Generated_Source\PSoC5/LCD_Char_1.c ****     *  Print an uint32 value as a left-justified decimal value.
 645:.\Generated_Source\PSoC5/LCD_Char_1.c ****     *
 646:.\Generated_Source\PSoC5/LCD_Char_1.c ****     * Parameters:
 647:.\Generated_Source\PSoC5/LCD_Char_1.c ****     *  value: A 32-bit value to be printed in ASCII characters as a decimal number
 648:.\Generated_Source\PSoC5/LCD_Char_1.c ****     *
 649:.\Generated_Source\PSoC5/LCD_Char_1.c ****     * Return:
 650:.\Generated_Source\PSoC5/LCD_Char_1.c ****     *  None.
 651:.\Generated_Source\PSoC5/LCD_Char_1.c ****     *
 652:.\Generated_Source\PSoC5/LCD_Char_1.c ****     *******************************************************************************/
 653:.\Generated_Source\PSoC5/LCD_Char_1.c ****     void LCD_Char_1_PrintU32Number(uint32 value) 
 654:.\Generated_Source\PSoC5/LCD_Char_1.c ****     {
 993              		.loc 1 654 0
 994              		.cfi_startproc
 995              		@ args = 0, pretend = 0, frame = 24
 996              		@ frame_needed = 1, uses_anonymous_args = 0
 997 0000 80B5     		push	{r7, lr}
ARM GAS  C:\Users\VICTOR~1\AppData\Local\Temp\ccB0MfoX.s 			page 30


 998              		.cfi_def_cfa_offset 8
 999              		.cfi_offset 7, -8
 1000              		.cfi_offset 14, -4
 1001 0002 86B0     		sub	sp, sp, #24
 1002              		.cfi_def_cfa_offset 32
 1003 0004 00AF     		add	r7, sp, #0
 1004              		.cfi_def_cfa_register 7
 1005 0006 7860     		str	r0, [r7, #4]
 655:.\Generated_Source\PSoC5/LCD_Char_1.c ****         uint8 tmpDigit;
 656:.\Generated_Source\PSoC5/LCD_Char_1.c ****         char8 number[LCD_Char_1_NUMBER_OF_REMAINDERS_U32 + 1u];
 657:.\Generated_Source\PSoC5/LCD_Char_1.c ****         uint8 digIndex = LCD_Char_1_NUMBER_OF_REMAINDERS_U32;
 1006              		.loc 1 657 0
 1007 0008 0A23     		movs	r3, #10
 1008 000a FB75     		strb	r3, [r7, #23]
 658:.\Generated_Source\PSoC5/LCD_Char_1.c ****         
 659:.\Generated_Source\PSoC5/LCD_Char_1.c ****         /* This API will output a decimal number as a string and that string will be 
 660:.\Generated_Source\PSoC5/LCD_Char_1.c ****         * filled from end to start. Set Null termination character first.
 661:.\Generated_Source\PSoC5/LCD_Char_1.c ****         */
 662:.\Generated_Source\PSoC5/LCD_Char_1.c ****         number[digIndex] = (char8) '\0';
 1009              		.loc 1 662 0
 1010 000c FB7D     		ldrb	r3, [r7, #23]	@ zero_extendqisi2
 1011 000e 07F11801 		add	r1, r7, #24
 1012 0012 0B44     		add	r3, r3, r1
 1013 0014 0022     		movs	r2, #0
 1014 0016 03F8102C 		strb	r2, [r3, #-16]
 663:.\Generated_Source\PSoC5/LCD_Char_1.c ****         digIndex--;
 1015              		.loc 1 663 0
 1016 001a FB7D     		ldrb	r3, [r7, #23]	@ zero_extendqisi2
 1017 001c 013B     		subs	r3, r3, #1
 1018 001e FB75     		strb	r3, [r7, #23]
 664:.\Generated_Source\PSoC5/LCD_Char_1.c ****         
 665:.\Generated_Source\PSoC5/LCD_Char_1.c ****         /* Load these in reverse order */
 666:.\Generated_Source\PSoC5/LCD_Char_1.c ****         while(value >= LCD_Char_1_TEN)
 1019              		.loc 1 666 0
 1020 0020 1CE0     		b	.L47
 1021              	.L48:
 667:.\Generated_Source\PSoC5/LCD_Char_1.c ****         {
 668:.\Generated_Source\PSoC5/LCD_Char_1.c ****             /* Extract decimal digit, indexed by 'digIndex', from 'value' and
 669:.\Generated_Source\PSoC5/LCD_Char_1.c ****             * convert it to ASCII character.
 670:.\Generated_Source\PSoC5/LCD_Char_1.c ****             */
 671:.\Generated_Source\PSoC5/LCD_Char_1.c ****             tmpDigit = (uint8) (((uint8) (value % LCD_Char_1_TEN)) + (uint8) LCD_Char_1_ZERO_CHAR_A
 1022              		.loc 1 671 0
 1023 0022 7968     		ldr	r1, [r7, #4]
 1024 0024 1E4B     		ldr	r3, .L49
 1025 0026 A3FB0123 		umull	r2, r3, r3, r1
 1026 002a DA08     		lsrs	r2, r3, #3
 1027 002c 1346     		mov	r3, r2
 1028 002e 9B00     		lsls	r3, r3, #2
 1029 0030 1344     		add	r3, r3, r2
 1030 0032 5B00     		lsls	r3, r3, #1
 1031 0034 CA1A     		subs	r2, r1, r3
 1032 0036 D3B2     		uxtb	r3, r2
 1033 0038 3033     		adds	r3, r3, #48
 1034 003a BB75     		strb	r3, [r7, #22]
 672:.\Generated_Source\PSoC5/LCD_Char_1.c ****             
 673:.\Generated_Source\PSoC5/LCD_Char_1.c ****             /* Temporary variable 'tmpDigit' is used to avoid Violation of MISRA rule 
 674:.\Generated_Source\PSoC5/LCD_Char_1.c ****             * #10.3.
ARM GAS  C:\Users\VICTOR~1\AppData\Local\Temp\ccB0MfoX.s 			page 31


 675:.\Generated_Source\PSoC5/LCD_Char_1.c ****             */
 676:.\Generated_Source\PSoC5/LCD_Char_1.c ****             number[digIndex] = (char8) tmpDigit;
 1035              		.loc 1 676 0
 1036 003c FB7D     		ldrb	r3, [r7, #23]	@ zero_extendqisi2
 1037 003e 07F11801 		add	r1, r7, #24
 1038 0042 0B44     		add	r3, r3, r1
 1039 0044 BA7D     		ldrb	r2, [r7, #22]
 1040 0046 03F8102C 		strb	r2, [r3, #-16]
 677:.\Generated_Source\PSoC5/LCD_Char_1.c ****             value /= LCD_Char_1_TEN;
 1041              		.loc 1 677 0
 1042 004a 7A68     		ldr	r2, [r7, #4]
 1043 004c 144B     		ldr	r3, .L49
 1044 004e A3FB0213 		umull	r1, r3, r3, r2
 1045 0052 DB08     		lsrs	r3, r3, #3
 1046 0054 7B60     		str	r3, [r7, #4]
 678:.\Generated_Source\PSoC5/LCD_Char_1.c ****             digIndex--;
 1047              		.loc 1 678 0
 1048 0056 FB7D     		ldrb	r3, [r7, #23]	@ zero_extendqisi2
 1049 0058 013B     		subs	r3, r3, #1
 1050 005a FB75     		strb	r3, [r7, #23]
 1051              	.L47:
 666:.\Generated_Source\PSoC5/LCD_Char_1.c ****         while(value >= LCD_Char_1_TEN)
 1052              		.loc 1 666 0 discriminator 1
 1053 005c 7B68     		ldr	r3, [r7, #4]
 1054 005e 092B     		cmp	r3, #9
 1055 0060 DFD8     		bhi	.L48
 679:.\Generated_Source\PSoC5/LCD_Char_1.c ****         }
 680:.\Generated_Source\PSoC5/LCD_Char_1.c ****         
 681:.\Generated_Source\PSoC5/LCD_Char_1.c ****         /* Extract last decimal digit 'digIndex', from the 'value' and convert it
 682:.\Generated_Source\PSoC5/LCD_Char_1.c ****         * to ASCII character.
 683:.\Generated_Source\PSoC5/LCD_Char_1.c ****         */
 684:.\Generated_Source\PSoC5/LCD_Char_1.c ****         tmpDigit = (uint8) (((uint8)(value % LCD_Char_1_TEN)) + (uint8) LCD_Char_1_ZERO_CHAR_ASCII)
 1056              		.loc 1 684 0
 1057 0062 7968     		ldr	r1, [r7, #4]
 1058 0064 0E4B     		ldr	r3, .L49
 1059 0066 A3FB0123 		umull	r2, r3, r3, r1
 1060 006a DA08     		lsrs	r2, r3, #3
 1061 006c 1346     		mov	r3, r2
 1062 006e 9B00     		lsls	r3, r3, #2
 1063 0070 1344     		add	r3, r3, r2
 1064 0072 5B00     		lsls	r3, r3, #1
 1065 0074 CA1A     		subs	r2, r1, r3
 1066 0076 D3B2     		uxtb	r3, r2
 1067 0078 3033     		adds	r3, r3, #48
 1068 007a BB75     		strb	r3, [r7, #22]
 685:.\Generated_Source\PSoC5/LCD_Char_1.c ****         number[digIndex] = (char8) tmpDigit;
 1069              		.loc 1 685 0
 1070 007c FB7D     		ldrb	r3, [r7, #23]	@ zero_extendqisi2
 1071 007e 07F11801 		add	r1, r7, #24
 1072 0082 0B44     		add	r3, r3, r1
 1073 0084 BA7D     		ldrb	r2, [r7, #22]
 1074 0086 03F8102C 		strb	r2, [r3, #-16]
 686:.\Generated_Source\PSoC5/LCD_Char_1.c **** 
 687:.\Generated_Source\PSoC5/LCD_Char_1.c ****         /* Print out number */
 688:.\Generated_Source\PSoC5/LCD_Char_1.c ****         LCD_Char_1_PrintString(&number[digIndex]);
 1075              		.loc 1 688 0
 1076 008a FB7D     		ldrb	r3, [r7, #23]	@ zero_extendqisi2
ARM GAS  C:\Users\VICTOR~1\AppData\Local\Temp\ccB0MfoX.s 			page 32


 1077 008c 07F10802 		add	r2, r7, #8
 1078 0090 1344     		add	r3, r3, r2
 1079 0092 1846     		mov	r0, r3
 1080 0094 FFF7FEFF 		bl	LCD_Char_1_PrintString
 689:.\Generated_Source\PSoC5/LCD_Char_1.c ****     }
 1081              		.loc 1 689 0
 1082 0098 1837     		adds	r7, r7, #24
 1083 009a BD46     		mov	sp, r7
 1084              		@ sp needed
 1085 009c 80BD     		pop	{r7, pc}
 1086              	.L50:
 1087 009e 00BF     		.align	2
 1088              	.L49:
 1089 00a0 CDCCCCCC 		.word	-858993459
 1090              		.cfi_endproc
 1091              	.LFE15:
 1092              		.size	LCD_Char_1_PrintU32Number, .-LCD_Char_1_PrintU32Number
 1093              		.section	.rodata
 1094              		.align	2
 1095              		.type	LCD_Char_1_hex.4865, %object
 1096              		.size	LCD_Char_1_hex.4865, 16
 1097              	LCD_Char_1_hex.4865:
 1098 0000 30313233 		.ascii	"0123456789ABCDEF"
 1098      34353637 
 1098      38394142 
 1098      43444546 
 1099              		.text
 1100              	.Letext0:
 1101              		.file 2 ".\\Generated_Source\\PSoC5\\cytypes.h"
 1102              		.file 3 ".\\Generated_Source\\PSoC5\\LCD_Char_1.h"