ARM GAS  C:\Users\VICTOR~1\AppData\Local\Temp\ccRSSt1g.s 			page 1


   1              		.syntax unified
   2              		.cpu cortex-m3
   3              		.fpu softvfp
   4              		.eabi_attribute 20, 1
   5              		.eabi_attribute 21, 1
   6              		.eabi_attribute 23, 3
   7              		.eabi_attribute 24, 1
   8              		.eabi_attribute 25, 1
   9              		.eabi_attribute 26, 1
  10              		.eabi_attribute 30, 6
  11              		.eabi_attribute 34, 1
  12              		.eabi_attribute 18, 4
  13              		.thumb
  14              		.file	"LCD_Char_1_CustChars.c"
  15              		.text
  16              	.Ltext0:
  17              		.cfi_sections	.debug_frame
  18              		.global	LCD_Char_1_customFonts
  19              		.section	.rodata
  20              		.align	2
  21              		.type	LCD_Char_1_customFonts, %object
  22              		.size	LCD_Char_1_customFonts, 64
  23              	LCD_Char_1_customFonts:
  24 0000 00       		.byte	0
  25 0001 0E       		.byte	14
  26 0002 08       		.byte	8
  27 0003 08       		.byte	8
  28 0004 08       		.byte	8
  29 0005 0E       		.byte	14
  30 0006 00       		.byte	0
  31 0007 00       		.byte	0
  32 0008 00       		.byte	0
  33 0009 0A       		.byte	10
  34 000a 0A       		.byte	10
  35 000b 04       		.byte	4
  36 000c 04       		.byte	4
  37 000d 04       		.byte	4
  38 000e 00       		.byte	0
  39 000f 00       		.byte	0
  40 0010 00       		.byte	0
  41 0011 0E       		.byte	14
  42 0012 0A       		.byte	10
  43 0013 0E       		.byte	14
  44 0014 08       		.byte	8
  45 0015 08       		.byte	8
  46 0016 00       		.byte	0
  47 0017 00       		.byte	0
  48 0018 00       		.byte	0
  49 0019 0E       		.byte	14
  50 001a 0A       		.byte	10
  51 001b 0C       		.byte	12
  52 001c 0A       		.byte	10
  53 001d 0A       		.byte	10
  54 001e 00       		.byte	0
  55 001f 00       		.byte	0
  56 0020 00       		.byte	0
  57 0021 0E       		.byte	14
ARM GAS  C:\Users\VICTOR~1\AppData\Local\Temp\ccRSSt1g.s 			page 2


  58 0022 08       		.byte	8
  59 0023 0C       		.byte	12
  60 0024 08       		.byte	8
  61 0025 0E       		.byte	14
  62 0026 00       		.byte	0
  63 0027 00       		.byte	0
  64 0028 00       		.byte	0
  65 0029 0E       		.byte	14
  66 002a 08       		.byte	8
  67 002b 0E       		.byte	14
  68 002c 02       		.byte	2
  69 002d 0E       		.byte	14
  70 002e 00       		.byte	0
  71 002f 00       		.byte	0
  72 0030 00       		.byte	0
  73 0031 0E       		.byte	14
  74 0032 08       		.byte	8
  75 0033 0E       		.byte	14
  76 0034 02       		.byte	2
  77 0035 0E       		.byte	14
  78 0036 00       		.byte	0
  79 0037 00       		.byte	0
  80 0038 0C       		.byte	12
  81 0039 12       		.byte	18
  82 003a 12       		.byte	18
  83 003b 0C       		.byte	12
  84 003c 00       		.byte	0
  85 003d 00       		.byte	0
  86 003e 00       		.byte	0
  87 003f 00       		.byte	0
  88              		.section	.text.LCD_Char_1_LoadCustomFonts,"ax",%progbits
  89              		.align	2
  90              		.global	LCD_Char_1_LoadCustomFonts
  91              		.thumb
  92              		.thumb_func
  93              		.type	LCD_Char_1_LoadCustomFonts, %function
  94              	LCD_Char_1_LoadCustomFonts:
  95              	.LFB0:
  96              		.file 1 ".\\Generated_Source\\PSoC5\\LCD_Char_1_CustChars.c"
   1:.\Generated_Source\PSoC5/LCD_Char_1_CustChars.c **** /*******************************************************************************
   2:.\Generated_Source\PSoC5/LCD_Char_1_CustChars.c **** * File Name: LCD_Char_1_CustChars.c
   3:.\Generated_Source\PSoC5/LCD_Char_1_CustChars.c **** * Version 2.0
   4:.\Generated_Source\PSoC5/LCD_Char_1_CustChars.c **** *
   5:.\Generated_Source\PSoC5/LCD_Char_1_CustChars.c **** * Description:
   6:.\Generated_Source\PSoC5/LCD_Char_1_CustChars.c **** *  This file provides the source code for the Character LCD custom character
   7:.\Generated_Source\PSoC5/LCD_Char_1_CustChars.c **** *  API.
   8:.\Generated_Source\PSoC5/LCD_Char_1_CustChars.c **** *
   9:.\Generated_Source\PSoC5/LCD_Char_1_CustChars.c **** * Note:
  10:.\Generated_Source\PSoC5/LCD_Char_1_CustChars.c **** *
  11:.\Generated_Source\PSoC5/LCD_Char_1_CustChars.c **** ********************************************************************************
  12:.\Generated_Source\PSoC5/LCD_Char_1_CustChars.c **** * Copyright 2008-2014, Cypress Semiconductor Corporation.  All rights reserved.
  13:.\Generated_Source\PSoC5/LCD_Char_1_CustChars.c **** * You may use this file only in accordance with the license, terms, conditions,
  14:.\Generated_Source\PSoC5/LCD_Char_1_CustChars.c **** * disclaimers, and limitations in the end user license agreement accompanying
  15:.\Generated_Source\PSoC5/LCD_Char_1_CustChars.c **** * the software package with which this file was provided.
  16:.\Generated_Source\PSoC5/LCD_Char_1_CustChars.c **** *******************************************************************************/
  17:.\Generated_Source\PSoC5/LCD_Char_1_CustChars.c **** 
  18:.\Generated_Source\PSoC5/LCD_Char_1_CustChars.c **** #include "LCD_Char_1.h"
ARM GAS  C:\Users\VICTOR~1\AppData\Local\Temp\ccRSSt1g.s 			page 3


  19:.\Generated_Source\PSoC5/LCD_Char_1_CustChars.c **** 
  20:.\Generated_Source\PSoC5/LCD_Char_1_CustChars.c **** 
  21:.\Generated_Source\PSoC5/LCD_Char_1_CustChars.c **** uint8 const CYCODE LCD_Char_1_customFonts[] = \
  22:.\Generated_Source\PSoC5/LCD_Char_1_CustChars.c **** {
  23:.\Generated_Source\PSoC5/LCD_Char_1_CustChars.c ****     /* Character LCD_Char_1_CUSTOM_0   */
  24:.\Generated_Source\PSoC5/LCD_Char_1_CustChars.c ****         0x00u,    0x0Eu,    0x08u,    0x08u,    0x08u,    0x0Eu,    0x00u,    0x00u, \
  25:.\Generated_Source\PSoC5/LCD_Char_1_CustChars.c ****     /* Character LCD_Char_1_CUSTOM_1   */
  26:.\Generated_Source\PSoC5/LCD_Char_1_CustChars.c ****         0x00u,    0x0Au,    0x0Au,    0x04u,    0x04u,    0x04u,    0x00u,    0x00u, \
  27:.\Generated_Source\PSoC5/LCD_Char_1_CustChars.c ****     /* Character LCD_Char_1_CUSTOM_2   */
  28:.\Generated_Source\PSoC5/LCD_Char_1_CustChars.c ****         0x00u,    0x0Eu,    0x0Au,    0x0Eu,    0x08u,    0x08u,    0x00u,    0x00u, \
  29:.\Generated_Source\PSoC5/LCD_Char_1_CustChars.c ****     /* Character LCD_Char_1_CUSTOM_3   */
  30:.\Generated_Source\PSoC5/LCD_Char_1_CustChars.c ****         0x00u,    0x0Eu,    0x0Au,    0x0Cu,    0x0Au,    0x0Au,    0x00u,    0x00u, \
  31:.\Generated_Source\PSoC5/LCD_Char_1_CustChars.c ****     /* Character LCD_Char_1_CUSTOM_4   */
  32:.\Generated_Source\PSoC5/LCD_Char_1_CustChars.c ****         0x00u,    0x0Eu,    0x08u,    0x0Cu,    0x08u,    0x0Eu,    0x00u,    0x00u, \
  33:.\Generated_Source\PSoC5/LCD_Char_1_CustChars.c ****     /* Character LCD_Char_1_CUSTOM_5   */
  34:.\Generated_Source\PSoC5/LCD_Char_1_CustChars.c ****         0x00u,    0x0Eu,    0x08u,    0x0Eu,    0x02u,    0x0Eu,    0x00u,    0x00u, \
  35:.\Generated_Source\PSoC5/LCD_Char_1_CustChars.c ****     /* Character LCD_Char_1_CUSTOM_6   */
  36:.\Generated_Source\PSoC5/LCD_Char_1_CustChars.c ****         0x00u,    0x0Eu,    0x08u,    0x0Eu,    0x02u,    0x0Eu,    0x00u,    0x00u, \
  37:.\Generated_Source\PSoC5/LCD_Char_1_CustChars.c ****     /* Character LCD_Char_1_CUSTOM_7   */
  38:.\Generated_Source\PSoC5/LCD_Char_1_CustChars.c ****         0x0Cu,    0x12u,    0x12u,    0x0Cu,    0x00u,    0x00u,    0x00u,    0x00u \
  39:.\Generated_Source\PSoC5/LCD_Char_1_CustChars.c ****  };
  40:.\Generated_Source\PSoC5/LCD_Char_1_CustChars.c **** 
  41:.\Generated_Source\PSoC5/LCD_Char_1_CustChars.c **** 
  42:.\Generated_Source\PSoC5/LCD_Char_1_CustChars.c **** /*******************************************************************************
  43:.\Generated_Source\PSoC5/LCD_Char_1_CustChars.c **** * Function Name: LCD_Char_1_LoadCustomFonts
  44:.\Generated_Source\PSoC5/LCD_Char_1_CustChars.c **** ********************************************************************************
  45:.\Generated_Source\PSoC5/LCD_Char_1_CustChars.c **** *
  46:.\Generated_Source\PSoC5/LCD_Char_1_CustChars.c **** * Summary:
  47:.\Generated_Source\PSoC5/LCD_Char_1_CustChars.c **** *  Loads 8 custom font characters into the LCD Module for use.  Cannot use
  48:.\Generated_Source\PSoC5/LCD_Char_1_CustChars.c **** *  characters from two different font sets at once, but font sets can be
  49:.\Generated_Source\PSoC5/LCD_Char_1_CustChars.c **** *  switched out during runtime.
  50:.\Generated_Source\PSoC5/LCD_Char_1_CustChars.c **** *
  51:.\Generated_Source\PSoC5/LCD_Char_1_CustChars.c **** * Parameters:
  52:.\Generated_Source\PSoC5/LCD_Char_1_CustChars.c **** *  customData:  pointer to a constant array of 64 bytes representing 8 custom
  53:.\Generated_Source\PSoC5/LCD_Char_1_CustChars.c **** *               font characters.
  54:.\Generated_Source\PSoC5/LCD_Char_1_CustChars.c **** * Return:
  55:.\Generated_Source\PSoC5/LCD_Char_1_CustChars.c **** *  None.
  56:.\Generated_Source\PSoC5/LCD_Char_1_CustChars.c **** *
  57:.\Generated_Source\PSoC5/LCD_Char_1_CustChars.c **** * Theory:
  58:.\Generated_Source\PSoC5/LCD_Char_1_CustChars.c **** *  Prior to using this function user need to import the pointer to custom
  59:.\Generated_Source\PSoC5/LCD_Char_1_CustChars.c **** *  font array to your project by writting the following in the source code file
  60:.\Generated_Source\PSoC5/LCD_Char_1_CustChars.c **** *  where custom font will be used:
  61:.\Generated_Source\PSoC5/LCD_Char_1_CustChars.c **** *       extern uint8 const CYCODE LCD_Char_customFonts[];
  62:.\Generated_Source\PSoC5/LCD_Char_1_CustChars.c **** *  This function is not automatically called by the Start() routine and must be
  63:.\Generated_Source\PSoC5/LCD_Char_1_CustChars.c **** *  called manually by the user.
  64:.\Generated_Source\PSoC5/LCD_Char_1_CustChars.c **** *
  65:.\Generated_Source\PSoC5/LCD_Char_1_CustChars.c **** *******************************************************************************/
  66:.\Generated_Source\PSoC5/LCD_Char_1_CustChars.c **** void LCD_Char_1_LoadCustomFonts(uint8 const customData[]) 
  67:.\Generated_Source\PSoC5/LCD_Char_1_CustChars.c **** {
  97              		.loc 1 67 0
  98              		.cfi_startproc
  99              		@ args = 0, pretend = 0, frame = 16
 100              		@ frame_needed = 1, uses_anonymous_args = 0
 101 0000 80B5     		push	{r7, lr}
 102              		.cfi_def_cfa_offset 8
 103              		.cfi_offset 7, -8
 104              		.cfi_offset 14, -4
ARM GAS  C:\Users\VICTOR~1\AppData\Local\Temp\ccRSSt1g.s 			page 4


 105 0002 84B0     		sub	sp, sp, #16
 106              		.cfi_def_cfa_offset 24
 107 0004 00AF     		add	r7, sp, #0
 108              		.cfi_def_cfa_register 7
 109 0006 7860     		str	r0, [r7, #4]
  68:.\Generated_Source\PSoC5/LCD_Char_1_CustChars.c ****     uint8 indexU8;
  69:.\Generated_Source\PSoC5/LCD_Char_1_CustChars.c **** 
  70:.\Generated_Source\PSoC5/LCD_Char_1_CustChars.c ****     LCD_Char_1_IsReady();
 110              		.loc 1 70 0
 111 0008 FFF7FEFF 		bl	LCD_Char_1_IsReady
  71:.\Generated_Source\PSoC5/LCD_Char_1_CustChars.c **** 
  72:.\Generated_Source\PSoC5/LCD_Char_1_CustChars.c ****     /* Set starting address in the LCD Module.
  73:.\Generated_Source\PSoC5/LCD_Char_1_CustChars.c ****     * Optionally: Read the current address to restore at a later time.
  74:.\Generated_Source\PSoC5/LCD_Char_1_CustChars.c ****     */
  75:.\Generated_Source\PSoC5/LCD_Char_1_CustChars.c ****     LCD_Char_1_WriteControl(LCD_Char_1_CGRAM_0);
 112              		.loc 1 75 0
 113 000c 4020     		movs	r0, #64
 114 000e FFF7FEFF 		bl	LCD_Char_1_WriteControl
  76:.\Generated_Source\PSoC5/LCD_Char_1_CustChars.c **** 
  77:.\Generated_Source\PSoC5/LCD_Char_1_CustChars.c ****     /* Load in the 64 bytes of CustomChar Data */
  78:.\Generated_Source\PSoC5/LCD_Char_1_CustChars.c ****     for(indexU8 = 0u; indexU8 < LCD_Char_1_CUSTOM_CHAR_SET_LEN; indexU8++)
 115              		.loc 1 78 0
 116 0012 0023     		movs	r3, #0
 117 0014 FB73     		strb	r3, [r7, #15]
 118 0016 09E0     		b	.L2
 119              	.L3:
  79:.\Generated_Source\PSoC5/LCD_Char_1_CustChars.c ****     {
  80:.\Generated_Source\PSoC5/LCD_Char_1_CustChars.c ****         LCD_Char_1_WriteData(customData[indexU8]);
 120              		.loc 1 80 0 discriminator 2
 121 0018 FB7B     		ldrb	r3, [r7, #15]	@ zero_extendqisi2
 122 001a 7A68     		ldr	r2, [r7, #4]
 123 001c 1344     		add	r3, r3, r2
 124 001e 1B78     		ldrb	r3, [r3]	@ zero_extendqisi2
 125 0020 1846     		mov	r0, r3
 126 0022 FFF7FEFF 		bl	LCD_Char_1_WriteData
  78:.\Generated_Source\PSoC5/LCD_Char_1_CustChars.c ****     for(indexU8 = 0u; indexU8 < LCD_Char_1_CUSTOM_CHAR_SET_LEN; indexU8++)
 127              		.loc 1 78 0 discriminator 2
 128 0026 FB7B     		ldrb	r3, [r7, #15]	@ zero_extendqisi2
 129 0028 0133     		adds	r3, r3, #1
 130 002a FB73     		strb	r3, [r7, #15]
 131              	.L2:
  78:.\Generated_Source\PSoC5/LCD_Char_1_CustChars.c ****     for(indexU8 = 0u; indexU8 < LCD_Char_1_CUSTOM_CHAR_SET_LEN; indexU8++)
 132              		.loc 1 78 0 is_stmt 0 discriminator 1
 133 002c FB7B     		ldrb	r3, [r7, #15]	@ zero_extendqisi2
 134 002e 3F2B     		cmp	r3, #63
 135 0030 F2D9     		bls	.L3
  81:.\Generated_Source\PSoC5/LCD_Char_1_CustChars.c ****     }
  82:.\Generated_Source\PSoC5/LCD_Char_1_CustChars.c **** 
  83:.\Generated_Source\PSoC5/LCD_Char_1_CustChars.c ****     LCD_Char_1_IsReady();
 136              		.loc 1 83 0 is_stmt 1
 137 0032 FFF7FEFF 		bl	LCD_Char_1_IsReady
  84:.\Generated_Source\PSoC5/LCD_Char_1_CustChars.c ****     LCD_Char_1_WriteControl(LCD_Char_1_DDRAM_0);
 138              		.loc 1 84 0
 139 0036 8020     		movs	r0, #128
 140 0038 FFF7FEFF 		bl	LCD_Char_1_WriteControl
  85:.\Generated_Source\PSoC5/LCD_Char_1_CustChars.c **** }
 141              		.loc 1 85 0
ARM GAS  C:\Users\VICTOR~1\AppData\Local\Temp\ccRSSt1g.s 			page 5


 142 003c 1037     		adds	r7, r7, #16
 143 003e BD46     		mov	sp, r7
 144              		@ sp needed
 145 0040 80BD     		pop	{r7, pc}
 146              		.cfi_endproc
 147              	.LFE0:
 148              		.size	LCD_Char_1_LoadCustomFonts, .-LCD_Char_1_LoadCustomFonts
 149 0042 00BF     		.text
 150              	.Letext0:
 151              		.file 2 ".\\Generated_Source\\PSoC5\\cytypes.h"