ARM GAS  C:\Users\VICTOR~1\AppData\Local\Temp\ccNLdkes.s 			page 1


   1              		.syntax unified
   2              		.cpu cortex-m3
   3              		.fpu softvfp
   4              		.eabi_attribute 20, 1
   5              		.eabi_attribute 21, 1
   6              		.eabi_attribute 23, 3
   7              		.eabi_attribute 24, 1
   8              		.eabi_attribute 25, 1
   9              		.eabi_attribute 26, 1
  10              		.eabi_attribute 30, 6
  11              		.eabi_attribute 34, 1
  12              		.eabi_attribute 18, 4
  13              		.thumb
  14              		.file	"main.c"
  15              		.text
  16              	.Ltext0:
  17              		.cfi_sections	.debug_frame
  18              		.section	.rodata
  19              		.align	2
  20              	.LC0:
  21 0000 4F4B4B4B 		.ascii	"OKKK\000"
  21      00
  22 0005 000000   		.align	2
  23              	.LC1:
  24 0008 41677561 		.ascii	"Aguardando\000"
  24      7264616E 
  24      646F00
  25 0013 00       		.align	2
  26              	.LC2:
  27 0014 54656D70 		.ascii	"Temp = \000"
  27      203D2000 
  28              		.align	2
  29              	.LC3:
  30 001c 2B00     		.ascii	"+\000"
  31 001e 0000     		.align	2
  32              	.LC4:
  33 0020 2D00     		.ascii	"-\000"
  34 0022 0000     		.align	2
  35              	.LC5:
  36 0024 2000     		.ascii	" \000"
  37 0026 0000     		.align	2
  38              	.LC6:
  39 0028 4300     		.ascii	"C\000"
  40 002a 0000     		.align	2
  41              	.LC7:
  42 002c 25640A00 		.ascii	"%d\012\000"
  43              		.section	.text.main,"ax",%progbits
  44              		.align	2
  45              		.global	main
  46              		.thumb
  47              		.thumb_func
  48              		.type	main, %function
  49              	main:
  50              	.LFB56:
  51              		.file 1 ".\\main.c"
   1:.\main.c      **** /* ========================================
   2:.\main.c      ****  *
ARM GAS  C:\Users\VICTOR~1\AppData\Local\Temp\ccNLdkes.s 			page 2


   3:.\main.c      ****  * Copyright YOUR COMPANY, THE YEAR
   4:.\main.c      ****  * All Rights Reserved
   5:.\main.c      ****  * UNPUBLISHED, LICENSED SOFTWARE.
   6:.\main.c      ****  *
   7:.\main.c      ****  * CONFIDENTIAL AND PROPRIETARY INFORMATION
   8:.\main.c      ****  * WHICH IS THE PROPERTY OF your company.
   9:.\main.c      ****  *
  10:.\main.c      ****  * ========================================
  11:.\main.c      **** */
  12:.\main.c      **** #include <project.h>
  13:.\main.c      **** #include <stdio.h>
  14:.\main.c      **** 
  15:.\main.c      **** 
  16:.\main.c      **** 
  17:.\main.c      **** int main()
  18:.\main.c      **** {
  52              		.loc 1 18 0
  53              		.cfi_startproc
  54              		@ args = 0, pretend = 0, frame = 144
  55              		@ frame_needed = 1, uses_anonymous_args = 0
  56 0000 80B5     		push	{r7, lr}
  57              		.cfi_def_cfa_offset 8
  58              		.cfi_offset 7, -8
  59              		.cfi_offset 14, -4
  60 0002 A4B0     		sub	sp, sp, #144
  61              		.cfi_def_cfa_offset 152
  62 0004 00AF     		add	r7, sp, #0
  63              		.cfi_def_cfa_register 7
  19:.\main.c      ****     /* Place your initialization/startup code here (e.g. MyInst_Start()) */
  20:.\main.c      ****     // Initialize USB
  21:.\main.c      ****     USBUART_Start(0u, USBUART_3V_OPERATION);
  64              		.loc 1 21 0
  65 0006 0020     		movs	r0, #0
  66 0008 0021     		movs	r1, #0
  67 000a FFF7FEFF 		bl	USBUART_Start
  22:.\main.c      **** 
  23:.\main.c      ****     int16 temperature;
  24:.\main.c      ****     cystatus Status;
  25:.\main.c      ****     uint8 count;
  26:.\main.c      ****     
  27:.\main.c      ****     LCD_Char_1_Start();
  68              		.loc 1 27 0
  69 000e FFF7FEFF 		bl	LCD_Char_1_Start
  28:.\main.c      ****     
  29:.\main.c      ****     LCD_Char_1_Position(1u, 0u);
  70              		.loc 1 29 0
  71 0012 0120     		movs	r0, #1
  72 0014 0021     		movs	r1, #0
  73 0016 FFF7FEFF 		bl	LCD_Char_1_Position
  30:.\main.c      ****     LCD_Char_1_PrintString("OKKK");
  74              		.loc 1 30 0
  75 001a 4348     		ldr	r0, .L8
  76 001c FFF7FEFF 		bl	LCD_Char_1_PrintString
  31:.\main.c      ****     
  32:.\main.c      ****     CyGlobalIntEnable; 
  77              		.loc 1 32 0
  78              	@ 32 ".\main.c" 1
ARM GAS  C:\Users\VICTOR~1\AppData\Local\Temp\ccNLdkes.s 			page 3


  79 0020 62B6     		CPSIE   i
  80              	@ 0 "" 2
  33:.\main.c      ****     
  34:.\main.c      ****     // Wait for USB
  35:.\main.c      ****     while (!USBUART_GetConfiguration());
  81              		.loc 1 35 0
  82              		.thumb
  83 0022 00BF     		nop
  84              	.L2:
  85              		.loc 1 35 0 is_stmt 0 discriminator 1
  86 0024 FFF7FEFF 		bl	USBUART_GetConfiguration
  87 0028 0346     		mov	r3, r0
  88 002a 002B     		cmp	r3, #0
  89 002c FAD0     		beq	.L2
  36:.\main.c      ****     USBUART_CDC_Init();
  90              		.loc 1 36 0 is_stmt 1
  91 002e FFF7FEFF 		bl	USBUART_CDC_Init
  37:.\main.c      **** 
  38:.\main.c      ****     char8 usbBuffer[64] = "";
  92              		.loc 1 38 0
  93 0032 0023     		movs	r3, #0
  94 0034 7B64     		str	r3, [r7, #68]
  95 0036 07F14802 		add	r2, r7, #72
  96 003a 3C23     		movs	r3, #60
  97 003c 1046     		mov	r0, r2
  98 003e 0021     		movs	r1, #0
  99 0040 1A46     		mov	r2, r3
 100 0042 FFF7FEFF 		bl	memset
  39:.\main.c      ****     uint8 buffer[64] = "";
 101              		.loc 1 39 0
 102 0046 0023     		movs	r3, #0
 103 0048 7B60     		str	r3, [r7, #4]
 104 004a 07F10802 		add	r2, r7, #8
 105 004e 3C23     		movs	r3, #60
 106 0050 1046     		mov	r0, r2
 107 0052 0021     		movs	r1, #0
 108 0054 1A46     		mov	r2, r3
 109 0056 FFF7FEFF 		bl	memset
 110              	.L7:
  40:.\main.c      ****     
  41:.\main.c      ****     for(;;)
  42:.\main.c      ****     {
  43:.\main.c      ****         /* Place your application code here. */
  44:.\main.c      ****         
  45:.\main.c      ****          CyDelay(50);
 111              		.loc 1 45 0
 112 005a 3220     		movs	r0, #50
 113 005c FFF7FEFF 		bl	CyDelay
  46:.\main.c      ****          LCD_Char_1_Position(0u, 0u);
 114              		.loc 1 46 0
 115 0060 0020     		movs	r0, #0
 116 0062 0021     		movs	r1, #0
 117 0064 FFF7FEFF 		bl	LCD_Char_1_Position
  47:.\main.c      ****          LCD_Char_1_PrintString("Aguardando");
 118              		.loc 1 47 0
 119 0068 3048     		ldr	r0, .L8+4
 120 006a FFF7FEFF 		bl	LCD_Char_1_PrintString
ARM GAS  C:\Users\VICTOR~1\AppData\Local\Temp\ccNLdkes.s 			page 4


  48:.\main.c      ****        
  49:.\main.c      ****         // Wait for temperature read command
  50:.\main.c      ****         if(USBUART_DataIsReady() != 0u)               /* Check for input data from PC */
 121              		.loc 1 50 0
 122 006e FFF7FEFF 		bl	USBUART_DataIsReady
 123 0072 0346     		mov	r3, r0
 124 0074 002B     		cmp	r3, #0
 125 0076 55D0     		beq	.L3
  51:.\main.c      ****         {   
  52:.\main.c      ****             count = USBUART_GetAll(buffer);           /* Read received data and re-enable OUT endpo
 126              		.loc 1 52 0
 127 0078 3B1D     		adds	r3, r7, #4
 128 007a 1846     		mov	r0, r3
 129 007c FFF7FEFF 		bl	USBUART_GetAll
 130 0080 0346     		mov	r3, r0
 131 0082 87F88F30 		strb	r3, [r7, #143]
  53:.\main.c      ****           
  54:.\main.c      ****             // Read data from sensor
  55:.\main.c      ****             
  56:.\main.c      ****             Status = DieTemp_GetTemp(&temperature);
 132              		.loc 1 56 0
 133 0086 07F18603 		add	r3, r7, #134
 134 008a 1846     		mov	r0, r3
 135 008c FFF7FEFF 		bl	DieTemp_GetTemp
 136 0090 C7F88800 		str	r0, [r7, #136]
  57:.\main.c      **** 
  58:.\main.c      ****              /* Displaying the Die Temperature value on the LCD */
  59:.\main.c      ****             LCD_Char_1_Position(0u, 0u);
 137              		.loc 1 59 0
 138 0094 0020     		movs	r0, #0
 139 0096 0021     		movs	r1, #0
 140 0098 FFF7FEFF 		bl	LCD_Char_1_Position
  60:.\main.c      ****             LCD_Char_1_PrintString("Temp = ");
 141              		.loc 1 60 0
 142 009c 2448     		ldr	r0, .L8+8
 143 009e FFF7FEFF 		bl	LCD_Char_1_PrintString
  61:.\main.c      **** 
  62:.\main.c      ****             if (temperature >= 0 )
 144              		.loc 1 62 0
 145 00a2 B7F88630 		ldrh	r3, [r7, #134]
 146 00a6 1BB2     		sxth	r3, r3
 147 00a8 002B     		cmp	r3, #0
 148 00aa 03DB     		blt	.L4
  63:.\main.c      ****             {
  64:.\main.c      ****                 LCD_Char_1_PrintString("+");
 149              		.loc 1 64 0
 150 00ac 2148     		ldr	r0, .L8+12
 151 00ae FFF7FEFF 		bl	LCD_Char_1_PrintString
 152 00b2 0AE0     		b	.L5
 153              	.L4:
  65:.\main.c      ****             }
  66:.\main.c      ****             else
  67:.\main.c      ****             {
  68:.\main.c      ****                 /* If the temperature value is negative, display "-" sign and make value positive *
  69:.\main.c      ****                 LCD_Char_1_PrintString("-");
 154              		.loc 1 69 0
 155 00b4 2048     		ldr	r0, .L8+16
ARM GAS  C:\Users\VICTOR~1\AppData\Local\Temp\ccNLdkes.s 			page 5


 156 00b6 FFF7FEFF 		bl	LCD_Char_1_PrintString
  70:.\main.c      ****                 temperature = (uint16)(~temperature + 1u);
 157              		.loc 1 70 0
 158 00ba B7F88630 		ldrh	r3, [r7, #134]
 159 00be 9BB2     		uxth	r3, r3
 160 00c0 5B42     		negs	r3, r3
 161 00c2 9BB2     		uxth	r3, r3
 162 00c4 9BB2     		uxth	r3, r3
 163 00c6 A7F88630 		strh	r3, [r7, #134]	@ movhi
 164              	.L5:
  71:.\main.c      ****             }
  72:.\main.c      ****             
  73:.\main.c      ****             LCD_Char_1_PrintNumber((uint16) (temperature));
 165              		.loc 1 73 0
 166 00ca B7F88630 		ldrh	r3, [r7, #134]
 167 00ce 9BB2     		uxth	r3, r3
 168 00d0 1846     		mov	r0, r3
 169 00d2 FFF7FEFF 		bl	LCD_Char_1_PrintU32Number
  74:.\main.c      ****             LCD_Char_1_PrintString(" ");
 170              		.loc 1 74 0
 171 00d6 1948     		ldr	r0, .L8+20
 172 00d8 FFF7FEFF 		bl	LCD_Char_1_PrintString
  75:.\main.c      ****             
  76:.\main.c      ****             LCD_Char_1_PutChar(LCD_Char_1_CUSTOM_7);
 173              		.loc 1 76 0
 174 00dc 0720     		movs	r0, #7
 175 00de FFF7FEFF 		bl	LCD_Char_1_PutChar
  77:.\main.c      ****             LCD_Char_1_PrintString("C");
 176              		.loc 1 77 0
 177 00e2 1748     		ldr	r0, .L8+24
 178 00e4 FFF7FEFF 		bl	LCD_Char_1_PrintString
  78:.\main.c      **** 
  79:.\main.c      ****             LCD_Char_1_Position(1u, 0u);            
 179              		.loc 1 79 0
 180 00e8 0120     		movs	r0, #1
 181 00ea 0021     		movs	r1, #0
 182 00ec FFF7FEFF 		bl	LCD_Char_1_Position
  80:.\main.c      ****             LCD_Char_1_PrintNumber(buffer[0]);
 183              		.loc 1 80 0
 184 00f0 3B79     		ldrb	r3, [r7, #4]	@ zero_extendqisi2
 185 00f2 1846     		mov	r0, r3
 186 00f4 FFF7FEFF 		bl	LCD_Char_1_PrintU32Number
  81:.\main.c      ****             
  82:.\main.c      ****             
  83:.\main.c      ****             sprintf(usbBuffer,"%d\n", temperature);
 187              		.loc 1 83 0
 188 00f8 B7F88630 		ldrh	r3, [r7, #134]
 189 00fc 1BB2     		sxth	r3, r3
 190 00fe 07F14402 		add	r2, r7, #68
 191 0102 1046     		mov	r0, r2
 192 0104 0F49     		ldr	r1, .L8+28
 193 0106 1A46     		mov	r2, r3
 194 0108 FFF7FEFF 		bl	sprintf
  84:.\main.c      **** 
  85:.\main.c      ****             // Send the data read
  86:.\main.c      ****             while(USBUART_CDCIsReady() == 0u);
 195              		.loc 1 86 0
ARM GAS  C:\Users\VICTOR~1\AppData\Local\Temp\ccNLdkes.s 			page 6


 196 010c 00BF     		nop
 197              	.L6:
 198              		.loc 1 86 0 is_stmt 0 discriminator 1
 199 010e FFF7FEFF 		bl	USBUART_CDCIsReady
 200 0112 0346     		mov	r3, r0
 201 0114 002B     		cmp	r3, #0
 202 0116 FAD0     		beq	.L6
  87:.\main.c      ****             USBUART_PutString(usbBuffer);
 203              		.loc 1 87 0 is_stmt 1
 204 0118 07F14403 		add	r3, r7, #68
 205 011c 1846     		mov	r0, r3
 206 011e FFF7FEFF 		bl	USBUART_PutString
  88:.\main.c      ****         }
  89:.\main.c      ****     }
 207              		.loc 1 89 0
 208 0122 9AE7     		b	.L7
 209              	.L3:
 210 0124 99E7     		b	.L7
 211              	.L9:
 212 0126 00BF     		.align	2
 213              	.L8:
 214 0128 00000000 		.word	.LC0
 215 012c 08000000 		.word	.LC1
 216 0130 14000000 		.word	.LC2
 217 0134 1C000000 		.word	.LC3
 218 0138 20000000 		.word	.LC4
 219 013c 24000000 		.word	.LC5
 220 0140 28000000 		.word	.LC6
 221 0144 2C000000 		.word	.LC7
 222              		.cfi_endproc
 223              	.LFE56:
 224              		.size	main, .-main
 225              		.text
 226              	.Letext0:
 227              		.file 2 "c:\\program files (x86)\\cypress\\psoc creator\\3.1\\psoc creator\\import\\gnu_cs\\arm\\4
 228              		.file 3 "c:\\program files (x86)\\cypress\\psoc creator\\3.1\\psoc creator\\import\\gnu_cs\\arm\\4
 229              		.file 4 ".\\Generated_Source\\PSoC5/cytypes.h"
 230              		.file 5 ".\\Generated_Source\\PSoC5/core_cm3.h"