ARM GAS  C:\Users\VICTOR~1\AppData\Local\Temp\ccq3kEDU.s 			page 1


   1              		.syntax unified
   2              		.cpu cortex-m3
   3              		.fpu softvfp
   4              		.eabi_attribute 20, 1
   5              		.eabi_attribute 21, 1
   6              		.eabi_attribute 23, 3
   7              		.eabi_attribute 24, 1
   8              		.eabi_attribute 25, 1
   9              		.eabi_attribute 26, 1
  10              		.eabi_attribute 30, 6
  11              		.eabi_attribute 34, 1
  12              		.eabi_attribute 18, 4
  13              		.thumb
  14              		.file	"USBUART_episr.c"
  15              		.text
  16              	.Ltext0:
  17              		.cfi_sections	.debug_frame
  18              		.section	.text.USBUART_EP_1_ISR,"ax",%progbits
  19              		.align	2
  20              		.global	USBUART_EP_1_ISR
  21              		.thumb
  22              		.thumb_func
  23              		.type	USBUART_EP_1_ISR, %function
  24              	USBUART_EP_1_ISR:
  25              	.LFB0:
  26              		.file 1 ".\\Generated_Source\\PSoC5\\USBUART_episr.c"
   1:.\Generated_Source\PSoC5/USBUART_episr.c **** /*******************************************************************************
   2:.\Generated_Source\PSoC5/USBUART_episr.c **** * File Name: USBUART_episr.c
   3:.\Generated_Source\PSoC5/USBUART_episr.c **** * Version 2.70
   4:.\Generated_Source\PSoC5/USBUART_episr.c **** *
   5:.\Generated_Source\PSoC5/USBUART_episr.c **** * Description:
   6:.\Generated_Source\PSoC5/USBUART_episr.c **** *  Data endpoint Interrupt Service Routines
   7:.\Generated_Source\PSoC5/USBUART_episr.c **** *
   8:.\Generated_Source\PSoC5/USBUART_episr.c **** * Note:
   9:.\Generated_Source\PSoC5/USBUART_episr.c **** *
  10:.\Generated_Source\PSoC5/USBUART_episr.c **** ********************************************************************************
  11:.\Generated_Source\PSoC5/USBUART_episr.c **** * Copyright 2008-2013, Cypress Semiconductor Corporation.  All rights reserved.
  12:.\Generated_Source\PSoC5/USBUART_episr.c **** * You may use this file only in accordance with the license, terms, conditions,
  13:.\Generated_Source\PSoC5/USBUART_episr.c **** * disclaimers, and limitations in the end user license agreement accompanying
  14:.\Generated_Source\PSoC5/USBUART_episr.c **** * the software package with which this file was provided.
  15:.\Generated_Source\PSoC5/USBUART_episr.c **** *******************************************************************************/
  16:.\Generated_Source\PSoC5/USBUART_episr.c **** 
  17:.\Generated_Source\PSoC5/USBUART_episr.c **** #include "USBUART.h"
  18:.\Generated_Source\PSoC5/USBUART_episr.c **** #include "USBUART_pvt.h"
  19:.\Generated_Source\PSoC5/USBUART_episr.c **** #if (defined(USBUART_ENABLE_MIDI_STREAMING) && (USBUART_ENABLE_MIDI_API != 0u))
  20:.\Generated_Source\PSoC5/USBUART_episr.c ****     #include "USBUART_midi.h"
  21:.\Generated_Source\PSoC5/USBUART_episr.c **** #endif /* (defined(USBUART_ENABLE_MIDI_STREAMING) && (USBUART_ENABLE_MIDI_API != 0u)) */
  22:.\Generated_Source\PSoC5/USBUART_episr.c **** #if ((USBUART_EP_MM == USBUART__EP_DMAAUTO) && (USBUART_EP_DMA_AUTO_OPT == 0u))
  23:.\Generated_Source\PSoC5/USBUART_episr.c ****     #include "USBUART_EP8_DMA_Done_SR.h"
  24:.\Generated_Source\PSoC5/USBUART_episr.c ****     #include "USBUART_EP17_DMA_Done_SR.h"
  25:.\Generated_Source\PSoC5/USBUART_episr.c **** #endif /* (USBUART_EP_MM == USBUART__EP_DMAAUTO) && (USBUART_EP_DMA_AUTO_OPT == 0u) */
  26:.\Generated_Source\PSoC5/USBUART_episr.c **** 
  27:.\Generated_Source\PSoC5/USBUART_episr.c **** 
  28:.\Generated_Source\PSoC5/USBUART_episr.c **** /***************************************
  29:.\Generated_Source\PSoC5/USBUART_episr.c **** * Custom Declarations
  30:.\Generated_Source\PSoC5/USBUART_episr.c **** ***************************************/
  31:.\Generated_Source\PSoC5/USBUART_episr.c **** /* `#START CUSTOM_DECLARATIONS` Place your declaration here */
ARM GAS  C:\Users\VICTOR~1\AppData\Local\Temp\ccq3kEDU.s 			page 2


  32:.\Generated_Source\PSoC5/USBUART_episr.c **** 
  33:.\Generated_Source\PSoC5/USBUART_episr.c **** /* `#END` */
  34:.\Generated_Source\PSoC5/USBUART_episr.c **** 
  35:.\Generated_Source\PSoC5/USBUART_episr.c **** 
  36:.\Generated_Source\PSoC5/USBUART_episr.c **** #if(USBUART_EP1_ISR_REMOVE == 0u)
  37:.\Generated_Source\PSoC5/USBUART_episr.c **** 
  38:.\Generated_Source\PSoC5/USBUART_episr.c **** 
  39:.\Generated_Source\PSoC5/USBUART_episr.c ****     /******************************************************************************
  40:.\Generated_Source\PSoC5/USBUART_episr.c ****     * Function Name: USBUART_EP_1_ISR
  41:.\Generated_Source\PSoC5/USBUART_episr.c ****     *******************************************************************************
  42:.\Generated_Source\PSoC5/USBUART_episr.c ****     *
  43:.\Generated_Source\PSoC5/USBUART_episr.c ****     * Summary:
  44:.\Generated_Source\PSoC5/USBUART_episr.c ****     *  Endpoint 1 Interrupt Service Routine
  45:.\Generated_Source\PSoC5/USBUART_episr.c ****     *
  46:.\Generated_Source\PSoC5/USBUART_episr.c ****     * Parameters:
  47:.\Generated_Source\PSoC5/USBUART_episr.c ****     *  None.
  48:.\Generated_Source\PSoC5/USBUART_episr.c ****     *
  49:.\Generated_Source\PSoC5/USBUART_episr.c ****     * Return:
  50:.\Generated_Source\PSoC5/USBUART_episr.c ****     *  None.
  51:.\Generated_Source\PSoC5/USBUART_episr.c ****     *
  52:.\Generated_Source\PSoC5/USBUART_episr.c ****     ******************************************************************************/
  53:.\Generated_Source\PSoC5/USBUART_episr.c ****     CY_ISR(USBUART_EP_1_ISR)
  54:.\Generated_Source\PSoC5/USBUART_episr.c ****     {
  27              		.loc 1 54 0
  28              		.cfi_startproc
  29              		@ args = 0, pretend = 0, frame = 0
  30              		@ frame_needed = 1, uses_anonymous_args = 0
  31              		@ link register save eliminated.
  32 0000 80B4     		push	{r7}
  33              		.cfi_def_cfa_offset 4
  34              		.cfi_offset 7, -4
  35 0002 00AF     		add	r7, sp, #0
  36              		.cfi_def_cfa_register 7
  55:.\Generated_Source\PSoC5/USBUART_episr.c ****         #if (defined(USBUART_ENABLE_MIDI_STREAMING) && !defined(USBUART_MAIN_SERVICE_MIDI_OUT)  && 
  56:.\Generated_Source\PSoC5/USBUART_episr.c ****                      USBUART_ISR_SERVICE_MIDI_OUT && CY_PSOC3)
  57:.\Generated_Source\PSoC5/USBUART_episr.c ****             uint8 int_en;
  58:.\Generated_Source\PSoC5/USBUART_episr.c ****         #endif /* USBUART_ISR_SERVICE_MIDI_OUT && CY_PSOC3 */
  59:.\Generated_Source\PSoC5/USBUART_episr.c **** 
  60:.\Generated_Source\PSoC5/USBUART_episr.c ****         /* `#START EP1_USER_CODE` Place your code here */
  61:.\Generated_Source\PSoC5/USBUART_episr.c **** 
  62:.\Generated_Source\PSoC5/USBUART_episr.c ****         /* `#END` */
  63:.\Generated_Source\PSoC5/USBUART_episr.c **** 
  64:.\Generated_Source\PSoC5/USBUART_episr.c ****         #if (defined(USBUART_ENABLE_MIDI_STREAMING) && !defined(USBUART_MAIN_SERVICE_MIDI_OUT) && \
  65:.\Generated_Source\PSoC5/USBUART_episr.c ****                      USBUART_ISR_SERVICE_MIDI_OUT && CY_PSOC3)
  66:.\Generated_Source\PSoC5/USBUART_episr.c ****             int_en = EA;
  67:.\Generated_Source\PSoC5/USBUART_episr.c ****             CyGlobalIntEnable;  /* Make sure nested interrupt is enabled */
  68:.\Generated_Source\PSoC5/USBUART_episr.c ****         #endif /* USBUART_ISR_SERVICE_MIDI_OUT && CY_PSOC3 */
  69:.\Generated_Source\PSoC5/USBUART_episr.c **** 
  70:.\Generated_Source\PSoC5/USBUART_episr.c ****         CY_GET_REG8(USBUART_SIE_EP1_CR0_PTR); /* Must read the mode reg */
  37              		.loc 1 70 0
  38 0004 104B     		ldr	r3, .L3
  39 0006 1B78     		ldrb	r3, [r3]
  71:.\Generated_Source\PSoC5/USBUART_episr.c ****         /* Do not toggle ISOC endpoint */
  72:.\Generated_Source\PSoC5/USBUART_episr.c ****         if((USBUART_EP[USBUART_EP1].attrib & USBUART_EP_TYPE_MASK) !=
  40              		.loc 1 72 0
  41 0008 104B     		ldr	r3, .L3+4
  42 000a 1B7B     		ldrb	r3, [r3, #12]
ARM GAS  C:\Users\VICTOR~1\AppData\Local\Temp\ccq3kEDU.s 			page 3


  43 000c DBB2     		uxtb	r3, r3
  44 000e 03F00303 		and	r3, r3, #3
  45 0012 012B     		cmp	r3, #1
  46 0014 08D0     		beq	.L2
  73:.\Generated_Source\PSoC5/USBUART_episr.c ****                                                                                     USBUART_EP_TYPE
  74:.\Generated_Source\PSoC5/USBUART_episr.c ****         {
  75:.\Generated_Source\PSoC5/USBUART_episr.c ****             USBUART_EP[USBUART_EP1].epToggle ^= USBUART_EPX_CNT_DATA_TOGGLE;
  47              		.loc 1 75 0
  48 0016 0D4B     		ldr	r3, .L3+4
  49 0018 DB7B     		ldrb	r3, [r3, #15]
  50 001a DBB2     		uxtb	r3, r3
  51 001c 83F07F03 		eor	r3, r3, #127
  52 0020 DB43     		mvns	r3, r3
  53 0022 DAB2     		uxtb	r2, r3
  54 0024 094B     		ldr	r3, .L3+4
  55 0026 DA73     		strb	r2, [r3, #15]
  56              	.L2:
  76:.\Generated_Source\PSoC5/USBUART_episr.c ****         }
  77:.\Generated_Source\PSoC5/USBUART_episr.c ****         USBUART_EP[USBUART_EP1].apiEpState = USBUART_EVENT_PENDING;
  57              		.loc 1 77 0
  58 0028 084B     		ldr	r3, .L3+4
  59 002a 0122     		movs	r2, #1
  60 002c 5A73     		strb	r2, [r3, #13]
  78:.\Generated_Source\PSoC5/USBUART_episr.c ****         CY_SET_REG8(USBUART_SIE_EP_INT_SR_PTR, CY_GET_REG8(USBUART_SIE_EP_INT_SR_PTR) &
  61              		.loc 1 78 0
  62 002e 084B     		ldr	r3, .L3+8
  63 0030 074A     		ldr	r2, .L3+8
  64 0032 1278     		ldrb	r2, [r2]
  65 0034 D2B2     		uxtb	r2, r2
  66 0036 22F00102 		bic	r2, r2, #1
  67 003a D2B2     		uxtb	r2, r2
  68 003c 1A70     		strb	r2, [r3]
  79:.\Generated_Source\PSoC5/USBUART_episr.c ****                                                                     (uint8)~USBUART_SIE_EP_INT_EP1_
  80:.\Generated_Source\PSoC5/USBUART_episr.c **** 
  81:.\Generated_Source\PSoC5/USBUART_episr.c ****         #if (defined(USBUART_ENABLE_MIDI_STREAMING) && !defined(USBUART_MAIN_SERVICE_MIDI_OUT) && \
  82:.\Generated_Source\PSoC5/USBUART_episr.c ****                      USBUART_ISR_SERVICE_MIDI_OUT)
  83:.\Generated_Source\PSoC5/USBUART_episr.c ****             if(USBUART_midi_out_ep == USBUART_EP1)
  84:.\Generated_Source\PSoC5/USBUART_episr.c ****             {
  85:.\Generated_Source\PSoC5/USBUART_episr.c ****                 USBUART_MIDI_OUT_EP_Service();
  86:.\Generated_Source\PSoC5/USBUART_episr.c ****             }
  87:.\Generated_Source\PSoC5/USBUART_episr.c ****         #endif /*  USBUART_ISR_SERVICE_MIDI_OUT */
  88:.\Generated_Source\PSoC5/USBUART_episr.c **** 
  89:.\Generated_Source\PSoC5/USBUART_episr.c ****         /* `#START EP1_END_USER_CODE` Place your code here */
  90:.\Generated_Source\PSoC5/USBUART_episr.c **** 
  91:.\Generated_Source\PSoC5/USBUART_episr.c ****         /* `#END` */
  92:.\Generated_Source\PSoC5/USBUART_episr.c **** 
  93:.\Generated_Source\PSoC5/USBUART_episr.c ****         #if (defined(USBUART_ENABLE_MIDI_STREAMING) && !defined(USBUART_MAIN_SERVICE_MIDI_OUT) && \
  94:.\Generated_Source\PSoC5/USBUART_episr.c ****                      USBUART_ISR_SERVICE_MIDI_OUT && CY_PSOC3)
  95:.\Generated_Source\PSoC5/USBUART_episr.c ****             EA = int_en;
  96:.\Generated_Source\PSoC5/USBUART_episr.c ****         #endif /* USBUART_ISR_SERVICE_MIDI_OUT && CY_PSOC3 */
  97:.\Generated_Source\PSoC5/USBUART_episr.c ****     }
  69              		.loc 1 97 0
  70 003e BD46     		mov	sp, r7
  71              		@ sp needed
  72 0040 5DF8047B 		ldr	r7, [sp], #4
  73 0044 7047     		bx	lr
  74              	.L4:
ARM GAS  C:\Users\VICTOR~1\AppData\Local\Temp\ccq3kEDU.s 			page 4


  75 0046 00BF     		.align	2
  76              	.L3:
  77 0048 0E600040 		.word	1073766414
  78 004c 00000000 		.word	USBUART_EP
  79 0050 0B600040 		.word	1073766411
  80              		.cfi_endproc
  81              	.LFE0:
  82              		.size	USBUART_EP_1_ISR, .-USBUART_EP_1_ISR
  83              		.section	.text.USBUART_EP_2_ISR,"ax",%progbits
  84              		.align	2
  85              		.global	USBUART_EP_2_ISR
  86              		.thumb
  87              		.thumb_func
  88              		.type	USBUART_EP_2_ISR, %function
  89              	USBUART_EP_2_ISR:
  90              	.LFB1:
  98:.\Generated_Source\PSoC5/USBUART_episr.c **** 
  99:.\Generated_Source\PSoC5/USBUART_episr.c **** #endif   /*  USBUART_EP1_ISR_REMOVE */
 100:.\Generated_Source\PSoC5/USBUART_episr.c **** 
 101:.\Generated_Source\PSoC5/USBUART_episr.c **** 
 102:.\Generated_Source\PSoC5/USBUART_episr.c **** #if(USBUART_EP2_ISR_REMOVE == 0u)
 103:.\Generated_Source\PSoC5/USBUART_episr.c **** 
 104:.\Generated_Source\PSoC5/USBUART_episr.c ****     /*******************************************************************************
 105:.\Generated_Source\PSoC5/USBUART_episr.c ****     * Function Name: USBUART_EP_2_ISR
 106:.\Generated_Source\PSoC5/USBUART_episr.c ****     ********************************************************************************
 107:.\Generated_Source\PSoC5/USBUART_episr.c ****     *
 108:.\Generated_Source\PSoC5/USBUART_episr.c ****     * Summary:
 109:.\Generated_Source\PSoC5/USBUART_episr.c ****     *  Endpoint 2 Interrupt Service Routine
 110:.\Generated_Source\PSoC5/USBUART_episr.c ****     *
 111:.\Generated_Source\PSoC5/USBUART_episr.c ****     * Parameters:
 112:.\Generated_Source\PSoC5/USBUART_episr.c ****     *  None.
 113:.\Generated_Source\PSoC5/USBUART_episr.c ****     *
 114:.\Generated_Source\PSoC5/USBUART_episr.c ****     * Return:
 115:.\Generated_Source\PSoC5/USBUART_episr.c ****     *  None.
 116:.\Generated_Source\PSoC5/USBUART_episr.c ****     *
 117:.\Generated_Source\PSoC5/USBUART_episr.c ****     *******************************************************************************/
 118:.\Generated_Source\PSoC5/USBUART_episr.c ****     CY_ISR(USBUART_EP_2_ISR)
 119:.\Generated_Source\PSoC5/USBUART_episr.c ****     {
  91              		.loc 1 119 0
  92              		.cfi_startproc
  93              		@ args = 0, pretend = 0, frame = 0
  94              		@ frame_needed = 1, uses_anonymous_args = 0
  95              		@ link register save eliminated.
  96 0000 80B4     		push	{r7}
  97              		.cfi_def_cfa_offset 4
  98              		.cfi_offset 7, -4
  99 0002 00AF     		add	r7, sp, #0
 100              		.cfi_def_cfa_register 7
 120:.\Generated_Source\PSoC5/USBUART_episr.c ****         #if (defined(USBUART_ENABLE_MIDI_STREAMING) && !defined(USBUART_MAIN_SERVICE_MIDI_OUT) && \
 121:.\Generated_Source\PSoC5/USBUART_episr.c ****                      USBUART_ISR_SERVICE_MIDI_OUT && CY_PSOC3)
 122:.\Generated_Source\PSoC5/USBUART_episr.c ****             uint8 int_en;
 123:.\Generated_Source\PSoC5/USBUART_episr.c ****         #endif /* USBUART_ISR_SERVICE_MIDI_OUT && CY_PSOC3 */
 124:.\Generated_Source\PSoC5/USBUART_episr.c **** 
 125:.\Generated_Source\PSoC5/USBUART_episr.c ****         /* `#START EP2_USER_CODE` Place your code here */
 126:.\Generated_Source\PSoC5/USBUART_episr.c **** 
 127:.\Generated_Source\PSoC5/USBUART_episr.c ****         /* `#END` */
 128:.\Generated_Source\PSoC5/USBUART_episr.c **** 
ARM GAS  C:\Users\VICTOR~1\AppData\Local\Temp\ccq3kEDU.s 			page 5


 129:.\Generated_Source\PSoC5/USBUART_episr.c ****         #if (defined(USBUART_ENABLE_MIDI_STREAMING) && !defined(USBUART_MAIN_SERVICE_MIDI_OUT) && \
 130:.\Generated_Source\PSoC5/USBUART_episr.c ****                      USBUART_ISR_SERVICE_MIDI_OUT && CY_PSOC3)
 131:.\Generated_Source\PSoC5/USBUART_episr.c ****             int_en = EA;
 132:.\Generated_Source\PSoC5/USBUART_episr.c ****             CyGlobalIntEnable;  /* Make sure nested interrupt is enabled */
 133:.\Generated_Source\PSoC5/USBUART_episr.c ****         #endif /* USBUART_ISR_SERVICE_MIDI_OUT && CY_PSOC3 */
 134:.\Generated_Source\PSoC5/USBUART_episr.c **** 
 135:.\Generated_Source\PSoC5/USBUART_episr.c ****         CY_GET_REG8(USBUART_SIE_EP2_CR0_PTR); /* Must read the mode reg */
 101              		.loc 1 135 0
 102 0004 104B     		ldr	r3, .L7
 103 0006 1B78     		ldrb	r3, [r3]
 136:.\Generated_Source\PSoC5/USBUART_episr.c ****         /* Do not toggle ISOC endpoint */
 137:.\Generated_Source\PSoC5/USBUART_episr.c ****         if((USBUART_EP[USBUART_EP2].attrib & USBUART_EP_TYPE_MASK) !=
 104              		.loc 1 137 0
 105 0008 104B     		ldr	r3, .L7+4
 106 000a 1B7E     		ldrb	r3, [r3, #24]
 107 000c DBB2     		uxtb	r3, r3
 108 000e 03F00303 		and	r3, r3, #3
 109 0012 012B     		cmp	r3, #1
 110 0014 08D0     		beq	.L6
 138:.\Generated_Source\PSoC5/USBUART_episr.c ****                                                                                     USBUART_EP_TYPE
 139:.\Generated_Source\PSoC5/USBUART_episr.c ****         {
 140:.\Generated_Source\PSoC5/USBUART_episr.c ****             USBUART_EP[USBUART_EP2].epToggle ^= USBUART_EPX_CNT_DATA_TOGGLE;
 111              		.loc 1 140 0
 112 0016 0D4B     		ldr	r3, .L7+4
 113 0018 DB7E     		ldrb	r3, [r3, #27]
 114 001a DBB2     		uxtb	r3, r3
 115 001c 83F07F03 		eor	r3, r3, #127
 116 0020 DB43     		mvns	r3, r3
 117 0022 DAB2     		uxtb	r2, r3
 118 0024 094B     		ldr	r3, .L7+4
 119 0026 DA76     		strb	r2, [r3, #27]
 120              	.L6:
 141:.\Generated_Source\PSoC5/USBUART_episr.c ****         }
 142:.\Generated_Source\PSoC5/USBUART_episr.c ****         USBUART_EP[USBUART_EP2].apiEpState = USBUART_EVENT_PENDING;
 121              		.loc 1 142 0
 122 0028 084B     		ldr	r3, .L7+4
 123 002a 0122     		movs	r2, #1
 124 002c 5A76     		strb	r2, [r3, #25]
 143:.\Generated_Source\PSoC5/USBUART_episr.c ****         CY_SET_REG8(USBUART_SIE_EP_INT_SR_PTR, CY_GET_REG8(USBUART_SIE_EP_INT_SR_PTR)
 125              		.loc 1 143 0
 126 002e 084B     		ldr	r3, .L7+8
 127 0030 074A     		ldr	r2, .L7+8
 128 0032 1278     		ldrb	r2, [r2]
 129 0034 D2B2     		uxtb	r2, r2
 130 0036 22F00202 		bic	r2, r2, #2
 131 003a D2B2     		uxtb	r2, r2
 132 003c 1A70     		strb	r2, [r3]
 144:.\Generated_Source\PSoC5/USBUART_episr.c ****                                                                         & (uint8)~USBUART_SIE_EP_IN
 145:.\Generated_Source\PSoC5/USBUART_episr.c **** 
 146:.\Generated_Source\PSoC5/USBUART_episr.c ****         #if (defined(USBUART_ENABLE_MIDI_STREAMING) && !defined(USBUART_MAIN_SERVICE_MIDI_OUT) && \
 147:.\Generated_Source\PSoC5/USBUART_episr.c ****                      USBUART_ISR_SERVICE_MIDI_OUT)
 148:.\Generated_Source\PSoC5/USBUART_episr.c ****             if(USBUART_midi_out_ep == USBUART_EP2)
 149:.\Generated_Source\PSoC5/USBUART_episr.c ****             {
 150:.\Generated_Source\PSoC5/USBUART_episr.c ****                 USBUART_MIDI_OUT_EP_Service();
 151:.\Generated_Source\PSoC5/USBUART_episr.c ****             }
 152:.\Generated_Source\PSoC5/USBUART_episr.c ****         #endif /*  USBUART_ISR_SERVICE_MIDI_OUT */
 153:.\Generated_Source\PSoC5/USBUART_episr.c **** 
ARM GAS  C:\Users\VICTOR~1\AppData\Local\Temp\ccq3kEDU.s 			page 6


 154:.\Generated_Source\PSoC5/USBUART_episr.c ****         /* `#START EP2_END_USER_CODE` Place your code here */
 155:.\Generated_Source\PSoC5/USBUART_episr.c **** 
 156:.\Generated_Source\PSoC5/USBUART_episr.c ****         /* `#END` */
 157:.\Generated_Source\PSoC5/USBUART_episr.c **** 
 158:.\Generated_Source\PSoC5/USBUART_episr.c ****         #if (defined(USBUART_ENABLE_MIDI_STREAMING) && !defined(USBUART_MAIN_SERVICE_MIDI_OUT) && \
 159:.\Generated_Source\PSoC5/USBUART_episr.c ****                      USBUART_ISR_SERVICE_MIDI_OUT && CY_PSOC3)
 160:.\Generated_Source\PSoC5/USBUART_episr.c ****             EA = int_en;
 161:.\Generated_Source\PSoC5/USBUART_episr.c ****         #endif /* USBUART_ISR_SERVICE_MIDI_OUT && CY_PSOC3 */
 162:.\Generated_Source\PSoC5/USBUART_episr.c ****     }
 133              		.loc 1 162 0
 134 003e BD46     		mov	sp, r7
 135              		@ sp needed
 136 0040 5DF8047B 		ldr	r7, [sp], #4
 137 0044 7047     		bx	lr
 138              	.L8:
 139 0046 00BF     		.align	2
 140              	.L7:
 141 0048 1E600040 		.word	1073766430
 142 004c 00000000 		.word	USBUART_EP
 143 0050 0B600040 		.word	1073766411
 144              		.cfi_endproc
 145              	.LFE1:
 146              		.size	USBUART_EP_2_ISR, .-USBUART_EP_2_ISR
 147              		.section	.text.USBUART_EP_3_ISR,"ax",%progbits
 148              		.align	2
 149              		.global	USBUART_EP_3_ISR
 150              		.thumb
 151              		.thumb_func
 152              		.type	USBUART_EP_3_ISR, %function
 153              	USBUART_EP_3_ISR:
 154              	.LFB2:
 163:.\Generated_Source\PSoC5/USBUART_episr.c **** 
 164:.\Generated_Source\PSoC5/USBUART_episr.c **** #endif   /*  USBUART_EP2_ISR_REMOVE */
 165:.\Generated_Source\PSoC5/USBUART_episr.c **** 
 166:.\Generated_Source\PSoC5/USBUART_episr.c **** 
 167:.\Generated_Source\PSoC5/USBUART_episr.c **** #if(USBUART_EP3_ISR_REMOVE == 0u)
 168:.\Generated_Source\PSoC5/USBUART_episr.c **** 
 169:.\Generated_Source\PSoC5/USBUART_episr.c ****     /*******************************************************************************
 170:.\Generated_Source\PSoC5/USBUART_episr.c ****     * Function Name: USBUART_EP_3_ISR
 171:.\Generated_Source\PSoC5/USBUART_episr.c ****     ********************************************************************************
 172:.\Generated_Source\PSoC5/USBUART_episr.c ****     *
 173:.\Generated_Source\PSoC5/USBUART_episr.c ****     * Summary:
 174:.\Generated_Source\PSoC5/USBUART_episr.c ****     *  Endpoint 3 Interrupt Service Routine
 175:.\Generated_Source\PSoC5/USBUART_episr.c ****     *
 176:.\Generated_Source\PSoC5/USBUART_episr.c ****     * Parameters:
 177:.\Generated_Source\PSoC5/USBUART_episr.c ****     *  None.
 178:.\Generated_Source\PSoC5/USBUART_episr.c ****     *
 179:.\Generated_Source\PSoC5/USBUART_episr.c ****     * Return:
 180:.\Generated_Source\PSoC5/USBUART_episr.c ****     *  None.
 181:.\Generated_Source\PSoC5/USBUART_episr.c ****     *
 182:.\Generated_Source\PSoC5/USBUART_episr.c ****     *******************************************************************************/
 183:.\Generated_Source\PSoC5/USBUART_episr.c ****     CY_ISR(USBUART_EP_3_ISR)
 184:.\Generated_Source\PSoC5/USBUART_episr.c ****     {
 155              		.loc 1 184 0
 156              		.cfi_startproc
 157              		@ args = 0, pretend = 0, frame = 0
 158              		@ frame_needed = 1, uses_anonymous_args = 0
ARM GAS  C:\Users\VICTOR~1\AppData\Local\Temp\ccq3kEDU.s 			page 7


 159              		@ link register save eliminated.
 160 0000 80B4     		push	{r7}
 161              		.cfi_def_cfa_offset 4
 162              		.cfi_offset 7, -4
 163 0002 00AF     		add	r7, sp, #0
 164              		.cfi_def_cfa_register 7
 185:.\Generated_Source\PSoC5/USBUART_episr.c ****         #if (defined(USBUART_ENABLE_MIDI_STREAMING) && !defined(USBUART_MAIN_SERVICE_MIDI_OUT) && \
 186:.\Generated_Source\PSoC5/USBUART_episr.c ****                      USBUART_ISR_SERVICE_MIDI_OUT && CY_PSOC3)
 187:.\Generated_Source\PSoC5/USBUART_episr.c ****             uint8 int_en;
 188:.\Generated_Source\PSoC5/USBUART_episr.c ****         #endif /* USBUART_ISR_SERVICE_MIDI_OUT && CY_PSOC3 */
 189:.\Generated_Source\PSoC5/USBUART_episr.c **** 
 190:.\Generated_Source\PSoC5/USBUART_episr.c ****         /* `#START EP3_USER_CODE` Place your code here */
 191:.\Generated_Source\PSoC5/USBUART_episr.c **** 
 192:.\Generated_Source\PSoC5/USBUART_episr.c ****         /* `#END` */
 193:.\Generated_Source\PSoC5/USBUART_episr.c **** 
 194:.\Generated_Source\PSoC5/USBUART_episr.c ****         #if (defined(USBUART_ENABLE_MIDI_STREAMING) && !defined(USBUART_MAIN_SERVICE_MIDI_OUT) && \
 195:.\Generated_Source\PSoC5/USBUART_episr.c ****                      USBUART_ISR_SERVICE_MIDI_OUT && CY_PSOC3)
 196:.\Generated_Source\PSoC5/USBUART_episr.c ****             int_en = EA;
 197:.\Generated_Source\PSoC5/USBUART_episr.c ****             CyGlobalIntEnable;  /* Make sure nested interrupt is enabled */
 198:.\Generated_Source\PSoC5/USBUART_episr.c ****         #endif /* CY_PSOC3 & USBUART_ISR_SERVICE_MIDI_OUT  */
 199:.\Generated_Source\PSoC5/USBUART_episr.c **** 
 200:.\Generated_Source\PSoC5/USBUART_episr.c ****         CY_GET_REG8(USBUART_SIE_EP3_CR0_PTR); /* Must read the mode reg */
 165              		.loc 1 200 0
 166 0004 124B     		ldr	r3, .L11
 167 0006 1B78     		ldrb	r3, [r3]
 201:.\Generated_Source\PSoC5/USBUART_episr.c ****         /* Do not toggle ISOC endpoint */
 202:.\Generated_Source\PSoC5/USBUART_episr.c ****         if((USBUART_EP[USBUART_EP3].attrib & USBUART_EP_TYPE_MASK) !=
 168              		.loc 1 202 0
 169 0008 124B     		ldr	r3, .L11+4
 170 000a 93F82430 		ldrb	r3, [r3, #36]
 171 000e DBB2     		uxtb	r3, r3
 172 0010 03F00303 		and	r3, r3, #3
 173 0014 012B     		cmp	r3, #1
 174 0016 0AD0     		beq	.L10
 203:.\Generated_Source\PSoC5/USBUART_episr.c ****                                                                                     USBUART_EP_TYPE
 204:.\Generated_Source\PSoC5/USBUART_episr.c ****         {
 205:.\Generated_Source\PSoC5/USBUART_episr.c ****             USBUART_EP[USBUART_EP3].epToggle ^= USBUART_EPX_CNT_DATA_TOGGLE;
 175              		.loc 1 205 0
 176 0018 0E4B     		ldr	r3, .L11+4
 177 001a 93F82730 		ldrb	r3, [r3, #39]
 178 001e DBB2     		uxtb	r3, r3
 179 0020 83F07F03 		eor	r3, r3, #127
 180 0024 DB43     		mvns	r3, r3
 181 0026 DAB2     		uxtb	r2, r3
 182 0028 0A4B     		ldr	r3, .L11+4
 183 002a 83F82720 		strb	r2, [r3, #39]
 184              	.L10:
 206:.\Generated_Source\PSoC5/USBUART_episr.c ****         }
 207:.\Generated_Source\PSoC5/USBUART_episr.c ****         USBUART_EP[USBUART_EP3].apiEpState = USBUART_EVENT_PENDING;
 185              		.loc 1 207 0
 186 002e 094B     		ldr	r3, .L11+4
 187 0030 0122     		movs	r2, #1
 188 0032 83F82520 		strb	r2, [r3, #37]
 208:.\Generated_Source\PSoC5/USBUART_episr.c ****         CY_SET_REG8(USBUART_SIE_EP_INT_SR_PTR, CY_GET_REG8(USBUART_SIE_EP_INT_SR_PTR)
 189              		.loc 1 208 0
 190 0036 084B     		ldr	r3, .L11+8
 191 0038 074A     		ldr	r2, .L11+8
ARM GAS  C:\Users\VICTOR~1\AppData\Local\Temp\ccq3kEDU.s 			page 8


 192 003a 1278     		ldrb	r2, [r2]
 193 003c D2B2     		uxtb	r2, r2
 194 003e 22F00402 		bic	r2, r2, #4
 195 0042 D2B2     		uxtb	r2, r2
 196 0044 1A70     		strb	r2, [r3]
 209:.\Generated_Source\PSoC5/USBUART_episr.c ****                                                                         & (uint8)~USBUART_SIE_EP_IN
 210:.\Generated_Source\PSoC5/USBUART_episr.c **** 
 211:.\Generated_Source\PSoC5/USBUART_episr.c ****         #if (defined(USBUART_ENABLE_MIDI_STREAMING) && !defined(USBUART_MAIN_SERVICE_MIDI_OUT) && \
 212:.\Generated_Source\PSoC5/USBUART_episr.c ****                      USBUART_ISR_SERVICE_MIDI_OUT)
 213:.\Generated_Source\PSoC5/USBUART_episr.c ****             if(USBUART_midi_out_ep == USBUART_EP3)
 214:.\Generated_Source\PSoC5/USBUART_episr.c ****             {
 215:.\Generated_Source\PSoC5/USBUART_episr.c ****                 USBUART_MIDI_OUT_EP_Service();
 216:.\Generated_Source\PSoC5/USBUART_episr.c ****             }
 217:.\Generated_Source\PSoC5/USBUART_episr.c ****         #endif /*  USBUART_ISR_SERVICE_MIDI_OUT */
 218:.\Generated_Source\PSoC5/USBUART_episr.c **** 
 219:.\Generated_Source\PSoC5/USBUART_episr.c ****         /* `#START EP3_END_USER_CODE` Place your code here */
 220:.\Generated_Source\PSoC5/USBUART_episr.c **** 
 221:.\Generated_Source\PSoC5/USBUART_episr.c ****         /* `#END` */
 222:.\Generated_Source\PSoC5/USBUART_episr.c **** 
 223:.\Generated_Source\PSoC5/USBUART_episr.c ****         #if (defined(USBUART_ENABLE_MIDI_STREAMING) && !defined(USBUART_MAIN_SERVICE_MIDI_OUT) && \
 224:.\Generated_Source\PSoC5/USBUART_episr.c ****                      USBUART_ISR_SERVICE_MIDI_OUT && CY_PSOC3)
 225:.\Generated_Source\PSoC5/USBUART_episr.c ****             EA = int_en;
 226:.\Generated_Source\PSoC5/USBUART_episr.c ****         #endif /* CY_PSOC3 & USBUART_ISR_SERVICE_MIDI_OUT  */
 227:.\Generated_Source\PSoC5/USBUART_episr.c ****     }
 197              		.loc 1 227 0
 198 0046 BD46     		mov	sp, r7
 199              		@ sp needed
 200 0048 5DF8047B 		ldr	r7, [sp], #4
 201 004c 7047     		bx	lr
 202              	.L12:
 203 004e 00BF     		.align	2
 204              	.L11:
 205 0050 2E600040 		.word	1073766446
 206 0054 00000000 		.word	USBUART_EP
 207 0058 0B600040 		.word	1073766411
 208              		.cfi_endproc
 209              	.LFE2:
 210              		.size	USBUART_EP_3_ISR, .-USBUART_EP_3_ISR
 211              		.section	.text.USBUART_SOF_ISR,"ax",%progbits
 212              		.align	2
 213              		.global	USBUART_SOF_ISR
 214              		.thumb
 215              		.thumb_func
 216              		.type	USBUART_SOF_ISR, %function
 217              	USBUART_SOF_ISR:
 218              	.LFB3:
 228:.\Generated_Source\PSoC5/USBUART_episr.c **** 
 229:.\Generated_Source\PSoC5/USBUART_episr.c **** #endif   /*  USBUART_EP3_ISR_REMOVE */
 230:.\Generated_Source\PSoC5/USBUART_episr.c **** 
 231:.\Generated_Source\PSoC5/USBUART_episr.c **** 
 232:.\Generated_Source\PSoC5/USBUART_episr.c **** #if(USBUART_EP4_ISR_REMOVE == 0u)
 233:.\Generated_Source\PSoC5/USBUART_episr.c **** 
 234:.\Generated_Source\PSoC5/USBUART_episr.c ****     /*******************************************************************************
 235:.\Generated_Source\PSoC5/USBUART_episr.c ****     * Function Name: USBUART_EP_4_ISR
 236:.\Generated_Source\PSoC5/USBUART_episr.c ****     ********************************************************************************
 237:.\Generated_Source\PSoC5/USBUART_episr.c ****     *
 238:.\Generated_Source\PSoC5/USBUART_episr.c ****     * Summary:
ARM GAS  C:\Users\VICTOR~1\AppData\Local\Temp\ccq3kEDU.s 			page 9


 239:.\Generated_Source\PSoC5/USBUART_episr.c ****     *  Endpoint 4 Interrupt Service Routine
 240:.\Generated_Source\PSoC5/USBUART_episr.c ****     *
 241:.\Generated_Source\PSoC5/USBUART_episr.c ****     * Parameters:
 242:.\Generated_Source\PSoC5/USBUART_episr.c ****     *  None.
 243:.\Generated_Source\PSoC5/USBUART_episr.c ****     *
 244:.\Generated_Source\PSoC5/USBUART_episr.c ****     * Return:
 245:.\Generated_Source\PSoC5/USBUART_episr.c ****     *  None.
 246:.\Generated_Source\PSoC5/USBUART_episr.c ****     *
 247:.\Generated_Source\PSoC5/USBUART_episr.c ****     *******************************************************************************/
 248:.\Generated_Source\PSoC5/USBUART_episr.c ****     CY_ISR(USBUART_EP_4_ISR)
 249:.\Generated_Source\PSoC5/USBUART_episr.c ****     {
 250:.\Generated_Source\PSoC5/USBUART_episr.c ****         #if (defined(USBUART_ENABLE_MIDI_STREAMING) && !defined(USBUART_MAIN_SERVICE_MIDI_OUT) && \
 251:.\Generated_Source\PSoC5/USBUART_episr.c ****                      USBUART_ISR_SERVICE_MIDI_OUT && CY_PSOC3)
 252:.\Generated_Source\PSoC5/USBUART_episr.c ****             uint8 int_en;
 253:.\Generated_Source\PSoC5/USBUART_episr.c ****         #endif /* CY_PSOC3 & USBUART_ISR_SERVICE_MIDI_OUT  */
 254:.\Generated_Source\PSoC5/USBUART_episr.c **** 
 255:.\Generated_Source\PSoC5/USBUART_episr.c ****         /* `#START EP4_USER_CODE` Place your code here */
 256:.\Generated_Source\PSoC5/USBUART_episr.c **** 
 257:.\Generated_Source\PSoC5/USBUART_episr.c ****         /* `#END` */
 258:.\Generated_Source\PSoC5/USBUART_episr.c **** 
 259:.\Generated_Source\PSoC5/USBUART_episr.c ****         #if (defined(USBUART_ENABLE_MIDI_STREAMING) && !defined(USBUART_MAIN_SERVICE_MIDI_OUT) && \
 260:.\Generated_Source\PSoC5/USBUART_episr.c ****                      USBUART_ISR_SERVICE_MIDI_OUT && CY_PSOC3)
 261:.\Generated_Source\PSoC5/USBUART_episr.c ****             int_en = EA;
 262:.\Generated_Source\PSoC5/USBUART_episr.c ****             CyGlobalIntEnable;  /* Make sure nested interrupt is enabled */
 263:.\Generated_Source\PSoC5/USBUART_episr.c ****         #endif /* CY_PSOC3 & USBUART_ISR_SERVICE_MIDI_OUT  */
 264:.\Generated_Source\PSoC5/USBUART_episr.c **** 
 265:.\Generated_Source\PSoC5/USBUART_episr.c ****         CY_GET_REG8(USBUART_SIE_EP4_CR0_PTR); /* Must read the mode reg */
 266:.\Generated_Source\PSoC5/USBUART_episr.c ****         /* Do not toggle ISOC endpoint */
 267:.\Generated_Source\PSoC5/USBUART_episr.c ****         if((USBUART_EP[USBUART_EP4].attrib & USBUART_EP_TYPE_MASK) !=
 268:.\Generated_Source\PSoC5/USBUART_episr.c ****                                                                                     USBUART_EP_TYPE
 269:.\Generated_Source\PSoC5/USBUART_episr.c ****         {
 270:.\Generated_Source\PSoC5/USBUART_episr.c ****             USBUART_EP[USBUART_EP4].epToggle ^= USBUART_EPX_CNT_DATA_TOGGLE;
 271:.\Generated_Source\PSoC5/USBUART_episr.c ****         }
 272:.\Generated_Source\PSoC5/USBUART_episr.c ****         USBUART_EP[USBUART_EP4].apiEpState = USBUART_EVENT_PENDING;
 273:.\Generated_Source\PSoC5/USBUART_episr.c ****         CY_SET_REG8(USBUART_SIE_EP_INT_SR_PTR, CY_GET_REG8(USBUART_SIE_EP_INT_SR_PTR)
 274:.\Generated_Source\PSoC5/USBUART_episr.c ****                                                                         & (uint8)~USBUART_SIE_EP_IN
 275:.\Generated_Source\PSoC5/USBUART_episr.c **** 
 276:.\Generated_Source\PSoC5/USBUART_episr.c ****         #if (defined(USBUART_ENABLE_MIDI_STREAMING) && !defined(USBUART_MAIN_SERVICE_MIDI_OUT) && \
 277:.\Generated_Source\PSoC5/USBUART_episr.c ****                      USBUART_ISR_SERVICE_MIDI_OUT)
 278:.\Generated_Source\PSoC5/USBUART_episr.c ****             if(USBUART_midi_out_ep == USBUART_EP4)
 279:.\Generated_Source\PSoC5/USBUART_episr.c ****             {
 280:.\Generated_Source\PSoC5/USBUART_episr.c ****                 USBUART_MIDI_OUT_EP_Service();
 281:.\Generated_Source\PSoC5/USBUART_episr.c ****             }
 282:.\Generated_Source\PSoC5/USBUART_episr.c ****         #endif /*  USBUART_ISR_SERVICE_MIDI_OUT */
 283:.\Generated_Source\PSoC5/USBUART_episr.c **** 
 284:.\Generated_Source\PSoC5/USBUART_episr.c ****         /* `#START EP4_END_USER_CODE` Place your code here */
 285:.\Generated_Source\PSoC5/USBUART_episr.c **** 
 286:.\Generated_Source\PSoC5/USBUART_episr.c ****         /* `#END` */
 287:.\Generated_Source\PSoC5/USBUART_episr.c **** 
 288:.\Generated_Source\PSoC5/USBUART_episr.c ****         #if (defined(USBUART_ENABLE_MIDI_STREAMING) && !defined(USBUART_MAIN_SERVICE_MIDI_OUT) && \
 289:.\Generated_Source\PSoC5/USBUART_episr.c ****                      USBUART_ISR_SERVICE_MIDI_OUT && CY_PSOC3)
 290:.\Generated_Source\PSoC5/USBUART_episr.c ****             EA = int_en;
 291:.\Generated_Source\PSoC5/USBUART_episr.c ****         #endif /* CY_PSOC3 & USBUART_ISR_SERVICE_MIDI_OUT  */
 292:.\Generated_Source\PSoC5/USBUART_episr.c ****     }
 293:.\Generated_Source\PSoC5/USBUART_episr.c **** 
 294:.\Generated_Source\PSoC5/USBUART_episr.c **** #endif   /*  USBUART_EP4_ISR_REMOVE */
 295:.\Generated_Source\PSoC5/USBUART_episr.c **** 
ARM GAS  C:\Users\VICTOR~1\AppData\Local\Temp\ccq3kEDU.s 			page 10


 296:.\Generated_Source\PSoC5/USBUART_episr.c **** 
 297:.\Generated_Source\PSoC5/USBUART_episr.c **** #if(USBUART_EP5_ISR_REMOVE == 0u)
 298:.\Generated_Source\PSoC5/USBUART_episr.c **** 
 299:.\Generated_Source\PSoC5/USBUART_episr.c ****     /*******************************************************************************
 300:.\Generated_Source\PSoC5/USBUART_episr.c ****     * Function Name: USBUART_EP_5_ISR
 301:.\Generated_Source\PSoC5/USBUART_episr.c ****     ********************************************************************************
 302:.\Generated_Source\PSoC5/USBUART_episr.c ****     *
 303:.\Generated_Source\PSoC5/USBUART_episr.c ****     * Summary:
 304:.\Generated_Source\PSoC5/USBUART_episr.c ****     *  Endpoint 5 Interrupt Service Routine
 305:.\Generated_Source\PSoC5/USBUART_episr.c ****     *
 306:.\Generated_Source\PSoC5/USBUART_episr.c ****     * Parameters:
 307:.\Generated_Source\PSoC5/USBUART_episr.c ****     *  None.
 308:.\Generated_Source\PSoC5/USBUART_episr.c ****     *
 309:.\Generated_Source\PSoC5/USBUART_episr.c ****     * Return:
 310:.\Generated_Source\PSoC5/USBUART_episr.c ****     *  None.
 311:.\Generated_Source\PSoC5/USBUART_episr.c ****     *
 312:.\Generated_Source\PSoC5/USBUART_episr.c ****     *******************************************************************************/
 313:.\Generated_Source\PSoC5/USBUART_episr.c ****     CY_ISR(USBUART_EP_5_ISR)
 314:.\Generated_Source\PSoC5/USBUART_episr.c ****     {
 315:.\Generated_Source\PSoC5/USBUART_episr.c ****         #if (defined(USBUART_ENABLE_MIDI_STREAMING) && !defined(USBUART_MAIN_SERVICE_MIDI_OUT) && \
 316:.\Generated_Source\PSoC5/USBUART_episr.c ****                      USBUART_ISR_SERVICE_MIDI_OUT && CY_PSOC3)
 317:.\Generated_Source\PSoC5/USBUART_episr.c ****             uint8 int_en;
 318:.\Generated_Source\PSoC5/USBUART_episr.c ****         #endif /* CY_PSOC3 & USBUART_ISR_SERVICE_MIDI_OUT  */
 319:.\Generated_Source\PSoC5/USBUART_episr.c **** 
 320:.\Generated_Source\PSoC5/USBUART_episr.c ****         /* `#START EP5_USER_CODE` Place your code here */
 321:.\Generated_Source\PSoC5/USBUART_episr.c **** 
 322:.\Generated_Source\PSoC5/USBUART_episr.c ****         /* `#END` */
 323:.\Generated_Source\PSoC5/USBUART_episr.c **** 
 324:.\Generated_Source\PSoC5/USBUART_episr.c ****         #if (defined(USBUART_ENABLE_MIDI_STREAMING) && !defined(USBUART_MAIN_SERVICE_MIDI_OUT) && \
 325:.\Generated_Source\PSoC5/USBUART_episr.c ****                      USBUART_ISR_SERVICE_MIDI_OUT && CY_PSOC3)
 326:.\Generated_Source\PSoC5/USBUART_episr.c ****             int_en = EA;
 327:.\Generated_Source\PSoC5/USBUART_episr.c ****             CyGlobalIntEnable;  /* Make sure nested interrupt is enabled */
 328:.\Generated_Source\PSoC5/USBUART_episr.c ****         #endif /* CY_PSOC3 & USBUART_ISR_SERVICE_MIDI_OUT  */
 329:.\Generated_Source\PSoC5/USBUART_episr.c **** 
 330:.\Generated_Source\PSoC5/USBUART_episr.c ****         CY_GET_REG8(USBUART_SIE_EP5_CR0_PTR); /* Must read the mode reg */
 331:.\Generated_Source\PSoC5/USBUART_episr.c ****         /* Do not toggle ISOC endpoint */
 332:.\Generated_Source\PSoC5/USBUART_episr.c ****         if((USBUART_EP[USBUART_EP5].attrib & USBUART_EP_TYPE_MASK) !=
 333:.\Generated_Source\PSoC5/USBUART_episr.c ****                                                                                     USBUART_EP_TYPE
 334:.\Generated_Source\PSoC5/USBUART_episr.c ****         {
 335:.\Generated_Source\PSoC5/USBUART_episr.c ****             USBUART_EP[USBUART_EP5].epToggle ^= USBUART_EPX_CNT_DATA_TOGGLE;
 336:.\Generated_Source\PSoC5/USBUART_episr.c ****         }
 337:.\Generated_Source\PSoC5/USBUART_episr.c ****         USBUART_EP[USBUART_EP5].apiEpState = USBUART_EVENT_PENDING;
 338:.\Generated_Source\PSoC5/USBUART_episr.c ****         CY_SET_REG8(USBUART_SIE_EP_INT_SR_PTR, CY_GET_REG8(USBUART_SIE_EP_INT_SR_PTR)
 339:.\Generated_Source\PSoC5/USBUART_episr.c ****                                                                         & (uint8)~USBUART_SIE_EP_IN
 340:.\Generated_Source\PSoC5/USBUART_episr.c **** 
 341:.\Generated_Source\PSoC5/USBUART_episr.c ****         #if (defined(USBUART_ENABLE_MIDI_STREAMING) && !defined(USBUART_MAIN_SERVICE_MIDI_OUT) && \
 342:.\Generated_Source\PSoC5/USBUART_episr.c ****                      USBUART_ISR_SERVICE_MIDI_OUT)
 343:.\Generated_Source\PSoC5/USBUART_episr.c ****             if(USBUART_midi_out_ep == USBUART_EP5)
 344:.\Generated_Source\PSoC5/USBUART_episr.c ****             {
 345:.\Generated_Source\PSoC5/USBUART_episr.c ****                 USBUART_MIDI_OUT_EP_Service();
 346:.\Generated_Source\PSoC5/USBUART_episr.c ****             }
 347:.\Generated_Source\PSoC5/USBUART_episr.c ****         #endif /*  USBUART_ISR_SERVICE_MIDI_OUT */
 348:.\Generated_Source\PSoC5/USBUART_episr.c **** 
 349:.\Generated_Source\PSoC5/USBUART_episr.c ****         /* `#START EP5_END_USER_CODE` Place your code here */
 350:.\Generated_Source\PSoC5/USBUART_episr.c **** 
 351:.\Generated_Source\PSoC5/USBUART_episr.c ****         /* `#END` */
 352:.\Generated_Source\PSoC5/USBUART_episr.c **** 
ARM GAS  C:\Users\VICTOR~1\AppData\Local\Temp\ccq3kEDU.s 			page 11


 353:.\Generated_Source\PSoC5/USBUART_episr.c ****         #if (defined(USBUART_ENABLE_MIDI_STREAMING) && !defined(USBUART_MAIN_SERVICE_MIDI_OUT) && \
 354:.\Generated_Source\PSoC5/USBUART_episr.c ****                      USBUART_ISR_SERVICE_MIDI_OUT && CY_PSOC3)
 355:.\Generated_Source\PSoC5/USBUART_episr.c ****             EA = int_en;
 356:.\Generated_Source\PSoC5/USBUART_episr.c ****         #endif /* CY_PSOC3 & USBUART_ISR_SERVICE_MIDI_OUT  */
 357:.\Generated_Source\PSoC5/USBUART_episr.c ****     }
 358:.\Generated_Source\PSoC5/USBUART_episr.c **** #endif   /*  USBUART_EP5_ISR_REMOVE */
 359:.\Generated_Source\PSoC5/USBUART_episr.c **** 
 360:.\Generated_Source\PSoC5/USBUART_episr.c **** 
 361:.\Generated_Source\PSoC5/USBUART_episr.c **** #if(USBUART_EP6_ISR_REMOVE == 0u)
 362:.\Generated_Source\PSoC5/USBUART_episr.c **** 
 363:.\Generated_Source\PSoC5/USBUART_episr.c ****     /*******************************************************************************
 364:.\Generated_Source\PSoC5/USBUART_episr.c ****     * Function Name: USBUART_EP_6_ISR
 365:.\Generated_Source\PSoC5/USBUART_episr.c ****     ********************************************************************************
 366:.\Generated_Source\PSoC5/USBUART_episr.c ****     *
 367:.\Generated_Source\PSoC5/USBUART_episr.c ****     * Summary:
 368:.\Generated_Source\PSoC5/USBUART_episr.c ****     *  Endpoint 6 Interrupt Service Routine
 369:.\Generated_Source\PSoC5/USBUART_episr.c ****     *
 370:.\Generated_Source\PSoC5/USBUART_episr.c ****     * Parameters:
 371:.\Generated_Source\PSoC5/USBUART_episr.c ****     *  None.
 372:.\Generated_Source\PSoC5/USBUART_episr.c ****     *
 373:.\Generated_Source\PSoC5/USBUART_episr.c ****     * Return:
 374:.\Generated_Source\PSoC5/USBUART_episr.c ****     *  None.
 375:.\Generated_Source\PSoC5/USBUART_episr.c ****     *
 376:.\Generated_Source\PSoC5/USBUART_episr.c ****     *******************************************************************************/
 377:.\Generated_Source\PSoC5/USBUART_episr.c ****     CY_ISR(USBUART_EP_6_ISR)
 378:.\Generated_Source\PSoC5/USBUART_episr.c ****     {
 379:.\Generated_Source\PSoC5/USBUART_episr.c ****         #if (defined(USBUART_ENABLE_MIDI_STREAMING) && !defined(USBUART_MAIN_SERVICE_MIDI_OUT) && \
 380:.\Generated_Source\PSoC5/USBUART_episr.c ****                      USBUART_ISR_SERVICE_MIDI_OUT && CY_PSOC3)
 381:.\Generated_Source\PSoC5/USBUART_episr.c ****             uint8 int_en;
 382:.\Generated_Source\PSoC5/USBUART_episr.c ****         #endif /* CY_PSOC3 & USBUART_ISR_SERVICE_MIDI_OUT  */
 383:.\Generated_Source\PSoC5/USBUART_episr.c **** 
 384:.\Generated_Source\PSoC5/USBUART_episr.c ****         /* `#START EP6_USER_CODE` Place your code here */
 385:.\Generated_Source\PSoC5/USBUART_episr.c **** 
 386:.\Generated_Source\PSoC5/USBUART_episr.c ****         /* `#END` */
 387:.\Generated_Source\PSoC5/USBUART_episr.c **** 
 388:.\Generated_Source\PSoC5/USBUART_episr.c ****         #if (defined(USBUART_ENABLE_MIDI_STREAMING) && !defined(USBUART_MAIN_SERVICE_MIDI_OUT) && \
 389:.\Generated_Source\PSoC5/USBUART_episr.c ****                      USBUART_ISR_SERVICE_MIDI_OUT && CY_PSOC3)
 390:.\Generated_Source\PSoC5/USBUART_episr.c ****             int_en = EA;
 391:.\Generated_Source\PSoC5/USBUART_episr.c ****             CyGlobalIntEnable;  /* Make sure nested interrupt is enabled */
 392:.\Generated_Source\PSoC5/USBUART_episr.c ****         #endif /* CY_PSOC3 & USBUART_ISR_SERVICE_MIDI_OUT  */
 393:.\Generated_Source\PSoC5/USBUART_episr.c **** 
 394:.\Generated_Source\PSoC5/USBUART_episr.c ****         CY_GET_REG8(USBUART_SIE_EP6_CR0_PTR); /* Must read the mode reg */
 395:.\Generated_Source\PSoC5/USBUART_episr.c ****         /* Do not toggle ISOC endpoint */
 396:.\Generated_Source\PSoC5/USBUART_episr.c ****         if((USBUART_EP[USBUART_EP6].attrib & USBUART_EP_TYPE_MASK) !=
 397:.\Generated_Source\PSoC5/USBUART_episr.c ****                                                                                     USBUART_EP_TYPE
 398:.\Generated_Source\PSoC5/USBUART_episr.c ****         {
 399:.\Generated_Source\PSoC5/USBUART_episr.c ****             USBUART_EP[USBUART_EP6].epToggle ^= USBUART_EPX_CNT_DATA_TOGGLE;
 400:.\Generated_Source\PSoC5/USBUART_episr.c ****         }
 401:.\Generated_Source\PSoC5/USBUART_episr.c ****         USBUART_EP[USBUART_EP6].apiEpState = USBUART_EVENT_PENDING;
 402:.\Generated_Source\PSoC5/USBUART_episr.c ****         CY_SET_REG8(USBUART_SIE_EP_INT_SR_PTR, CY_GET_REG8(USBUART_SIE_EP_INT_SR_PTR)
 403:.\Generated_Source\PSoC5/USBUART_episr.c ****                                                                         & (uint8)~USBUART_SIE_EP_IN
 404:.\Generated_Source\PSoC5/USBUART_episr.c **** 
 405:.\Generated_Source\PSoC5/USBUART_episr.c ****         #if (defined(USBUART_ENABLE_MIDI_STREAMING) && !defined(USBUART_MAIN_SERVICE_MIDI_OUT) && \
 406:.\Generated_Source\PSoC5/USBUART_episr.c ****                      USBUART_ISR_SERVICE_MIDI_OUT)
 407:.\Generated_Source\PSoC5/USBUART_episr.c ****             if(USBUART_midi_out_ep == USBUART_EP6)
 408:.\Generated_Source\PSoC5/USBUART_episr.c ****             {
 409:.\Generated_Source\PSoC5/USBUART_episr.c ****                 USBUART_MIDI_OUT_EP_Service();
ARM GAS  C:\Users\VICTOR~1\AppData\Local\Temp\ccq3kEDU.s 			page 12


 410:.\Generated_Source\PSoC5/USBUART_episr.c ****             }
 411:.\Generated_Source\PSoC5/USBUART_episr.c ****         #endif /*  USBUART_ISR_SERVICE_MIDI_OUT  */
 412:.\Generated_Source\PSoC5/USBUART_episr.c **** 
 413:.\Generated_Source\PSoC5/USBUART_episr.c ****         /* `#START EP6_END_USER_CODE` Place your code here */
 414:.\Generated_Source\PSoC5/USBUART_episr.c **** 
 415:.\Generated_Source\PSoC5/USBUART_episr.c ****         /* `#END` */
 416:.\Generated_Source\PSoC5/USBUART_episr.c **** 
 417:.\Generated_Source\PSoC5/USBUART_episr.c ****         #if (defined(USBUART_ENABLE_MIDI_STREAMING) && !defined(USBUART_MAIN_SERVICE_MIDI_OUT) && \
 418:.\Generated_Source\PSoC5/USBUART_episr.c ****                      USBUART_ISR_SERVICE_MIDI_OUT && CY_PSOC3)
 419:.\Generated_Source\PSoC5/USBUART_episr.c ****             EA = int_en;
 420:.\Generated_Source\PSoC5/USBUART_episr.c ****         #endif /* CY_PSOC3 & USBUART_ISR_SERVICE_MIDI_OUT  */
 421:.\Generated_Source\PSoC5/USBUART_episr.c ****     }
 422:.\Generated_Source\PSoC5/USBUART_episr.c **** 
 423:.\Generated_Source\PSoC5/USBUART_episr.c **** #endif   /*  USBUART_EP6_ISR_REMOVE */
 424:.\Generated_Source\PSoC5/USBUART_episr.c **** 
 425:.\Generated_Source\PSoC5/USBUART_episr.c **** 
 426:.\Generated_Source\PSoC5/USBUART_episr.c **** #if(USBUART_EP7_ISR_REMOVE == 0u)
 427:.\Generated_Source\PSoC5/USBUART_episr.c **** 
 428:.\Generated_Source\PSoC5/USBUART_episr.c ****     /*******************************************************************************
 429:.\Generated_Source\PSoC5/USBUART_episr.c ****     * Function Name: USBUART_EP_7_ISR
 430:.\Generated_Source\PSoC5/USBUART_episr.c ****     ********************************************************************************
 431:.\Generated_Source\PSoC5/USBUART_episr.c ****     *
 432:.\Generated_Source\PSoC5/USBUART_episr.c ****     * Summary:
 433:.\Generated_Source\PSoC5/USBUART_episr.c ****     *  Endpoint 7 Interrupt Service Routine
 434:.\Generated_Source\PSoC5/USBUART_episr.c ****     *
 435:.\Generated_Source\PSoC5/USBUART_episr.c ****     * Parameters:
 436:.\Generated_Source\PSoC5/USBUART_episr.c ****     *  None.
 437:.\Generated_Source\PSoC5/USBUART_episr.c ****     *
 438:.\Generated_Source\PSoC5/USBUART_episr.c ****     * Return:
 439:.\Generated_Source\PSoC5/USBUART_episr.c ****     *  None.
 440:.\Generated_Source\PSoC5/USBUART_episr.c ****     *
 441:.\Generated_Source\PSoC5/USBUART_episr.c ****     *******************************************************************************/
 442:.\Generated_Source\PSoC5/USBUART_episr.c ****     CY_ISR(USBUART_EP_7_ISR)
 443:.\Generated_Source\PSoC5/USBUART_episr.c ****     {
 444:.\Generated_Source\PSoC5/USBUART_episr.c ****         #if (defined(USBUART_ENABLE_MIDI_STREAMING) && !defined(USBUART_MAIN_SERVICE_MIDI_OUT) && \
 445:.\Generated_Source\PSoC5/USBUART_episr.c ****                      USBUART_ISR_SERVICE_MIDI_OUT && CY_PSOC3)
 446:.\Generated_Source\PSoC5/USBUART_episr.c ****             uint8 int_en;
 447:.\Generated_Source\PSoC5/USBUART_episr.c ****         #endif /* CY_PSOC3 & USBUART_ISR_SERVICE_MIDI_OUT  */
 448:.\Generated_Source\PSoC5/USBUART_episr.c **** 
 449:.\Generated_Source\PSoC5/USBUART_episr.c ****         /* `#START EP7_USER_CODE` Place your code here */
 450:.\Generated_Source\PSoC5/USBUART_episr.c **** 
 451:.\Generated_Source\PSoC5/USBUART_episr.c ****         /* `#END` */
 452:.\Generated_Source\PSoC5/USBUART_episr.c **** 
 453:.\Generated_Source\PSoC5/USBUART_episr.c ****         #if (defined(USBUART_ENABLE_MIDI_STREAMING) && !defined(USBUART_MAIN_SERVICE_MIDI_OUT) && \
 454:.\Generated_Source\PSoC5/USBUART_episr.c ****                      USBUART_ISR_SERVICE_MIDI_OUT && CY_PSOC3)
 455:.\Generated_Source\PSoC5/USBUART_episr.c ****             int_en = EA;
 456:.\Generated_Source\PSoC5/USBUART_episr.c ****             CyGlobalIntEnable;  /* Make sure nested interrupt is enabled */
 457:.\Generated_Source\PSoC5/USBUART_episr.c ****         #endif /* CY_PSOC3 & USBUART_ISR_SERVICE_MIDI_OUT  */
 458:.\Generated_Source\PSoC5/USBUART_episr.c **** 
 459:.\Generated_Source\PSoC5/USBUART_episr.c ****         CY_GET_REG8(USBUART_SIE_EP7_CR0_PTR); /* Must read the mode reg */
 460:.\Generated_Source\PSoC5/USBUART_episr.c ****         /* Do not toggle ISOC endpoint */
 461:.\Generated_Source\PSoC5/USBUART_episr.c ****         if((USBUART_EP[USBUART_EP7].attrib & USBUART_EP_TYPE_MASK) !=
 462:.\Generated_Source\PSoC5/USBUART_episr.c ****                                                                                     USBUART_EP_TYPE
 463:.\Generated_Source\PSoC5/USBUART_episr.c ****         {
 464:.\Generated_Source\PSoC5/USBUART_episr.c ****             USBUART_EP[USBUART_EP7].epToggle ^= USBUART_EPX_CNT_DATA_TOGGLE;
 465:.\Generated_Source\PSoC5/USBUART_episr.c ****         }
 466:.\Generated_Source\PSoC5/USBUART_episr.c ****         USBUART_EP[USBUART_EP7].apiEpState = USBUART_EVENT_PENDING;
ARM GAS  C:\Users\VICTOR~1\AppData\Local\Temp\ccq3kEDU.s 			page 13


 467:.\Generated_Source\PSoC5/USBUART_episr.c ****         CY_SET_REG8(USBUART_SIE_EP_INT_SR_PTR, CY_GET_REG8(USBUART_SIE_EP_INT_SR_PTR)
 468:.\Generated_Source\PSoC5/USBUART_episr.c ****                                                                         & (uint8)~USBUART_SIE_EP_IN
 469:.\Generated_Source\PSoC5/USBUART_episr.c **** 
 470:.\Generated_Source\PSoC5/USBUART_episr.c ****         #if (defined(USBUART_ENABLE_MIDI_STREAMING) && !defined(USBUART_MAIN_SERVICE_MIDI_OUT) && \
 471:.\Generated_Source\PSoC5/USBUART_episr.c ****                      USBUART_ISR_SERVICE_MIDI_OUT)
 472:.\Generated_Source\PSoC5/USBUART_episr.c ****             if(USBUART_midi_out_ep == USBUART_EP7)
 473:.\Generated_Source\PSoC5/USBUART_episr.c ****             {
 474:.\Generated_Source\PSoC5/USBUART_episr.c ****                 USBUART_MIDI_OUT_EP_Service();
 475:.\Generated_Source\PSoC5/USBUART_episr.c ****             }
 476:.\Generated_Source\PSoC5/USBUART_episr.c ****         #endif /*  USBUART_ISR_SERVICE_MIDI_OUT  */
 477:.\Generated_Source\PSoC5/USBUART_episr.c **** 
 478:.\Generated_Source\PSoC5/USBUART_episr.c ****         /* `#START EP7_END_USER_CODE` Place your code here */
 479:.\Generated_Source\PSoC5/USBUART_episr.c **** 
 480:.\Generated_Source\PSoC5/USBUART_episr.c ****         /* `#END` */
 481:.\Generated_Source\PSoC5/USBUART_episr.c **** 
 482:.\Generated_Source\PSoC5/USBUART_episr.c ****         #if (defined(USBUART_ENABLE_MIDI_STREAMING) && !defined(USBUART_MAIN_SERVICE_MIDI_OUT) && \
 483:.\Generated_Source\PSoC5/USBUART_episr.c ****                      USBUART_ISR_SERVICE_MIDI_OUT && CY_PSOC3)
 484:.\Generated_Source\PSoC5/USBUART_episr.c ****             EA = int_en;
 485:.\Generated_Source\PSoC5/USBUART_episr.c ****         #endif /* CY_PSOC3 & USBUART_ISR_SERVICE_MIDI_OUT  */
 486:.\Generated_Source\PSoC5/USBUART_episr.c ****     }
 487:.\Generated_Source\PSoC5/USBUART_episr.c **** 
 488:.\Generated_Source\PSoC5/USBUART_episr.c **** #endif   /*  USBUART_EP7_ISR_REMOVE */
 489:.\Generated_Source\PSoC5/USBUART_episr.c **** 
 490:.\Generated_Source\PSoC5/USBUART_episr.c **** 
 491:.\Generated_Source\PSoC5/USBUART_episr.c **** #if(USBUART_EP8_ISR_REMOVE == 0u)
 492:.\Generated_Source\PSoC5/USBUART_episr.c **** 
 493:.\Generated_Source\PSoC5/USBUART_episr.c ****     /*******************************************************************************
 494:.\Generated_Source\PSoC5/USBUART_episr.c ****     * Function Name: USBUART_EP_8_ISR
 495:.\Generated_Source\PSoC5/USBUART_episr.c ****     ********************************************************************************
 496:.\Generated_Source\PSoC5/USBUART_episr.c ****     *
 497:.\Generated_Source\PSoC5/USBUART_episr.c ****     * Summary:
 498:.\Generated_Source\PSoC5/USBUART_episr.c ****     *  Endpoint 8 Interrupt Service Routine
 499:.\Generated_Source\PSoC5/USBUART_episr.c ****     *
 500:.\Generated_Source\PSoC5/USBUART_episr.c ****     * Parameters:
 501:.\Generated_Source\PSoC5/USBUART_episr.c ****     *  None.
 502:.\Generated_Source\PSoC5/USBUART_episr.c ****     *
 503:.\Generated_Source\PSoC5/USBUART_episr.c ****     * Return:
 504:.\Generated_Source\PSoC5/USBUART_episr.c ****     *  None.
 505:.\Generated_Source\PSoC5/USBUART_episr.c ****     *
 506:.\Generated_Source\PSoC5/USBUART_episr.c ****     *******************************************************************************/
 507:.\Generated_Source\PSoC5/USBUART_episr.c ****     CY_ISR(USBUART_EP_8_ISR)
 508:.\Generated_Source\PSoC5/USBUART_episr.c ****     {
 509:.\Generated_Source\PSoC5/USBUART_episr.c ****         #if (defined(USBUART_ENABLE_MIDI_STREAMING) && !defined(USBUART_MAIN_SERVICE_MIDI_OUT) && \
 510:.\Generated_Source\PSoC5/USBUART_episr.c ****                      USBUART_ISR_SERVICE_MIDI_OUT && CY_PSOC3)
 511:.\Generated_Source\PSoC5/USBUART_episr.c ****             uint8 int_en;
 512:.\Generated_Source\PSoC5/USBUART_episr.c ****         #endif /* CY_PSOC3 & USBUART_ISR_SERVICE_MIDI_OUT  */
 513:.\Generated_Source\PSoC5/USBUART_episr.c **** 
 514:.\Generated_Source\PSoC5/USBUART_episr.c ****         /* `#START EP8_USER_CODE` Place your code here */
 515:.\Generated_Source\PSoC5/USBUART_episr.c **** 
 516:.\Generated_Source\PSoC5/USBUART_episr.c ****         /* `#END` */
 517:.\Generated_Source\PSoC5/USBUART_episr.c **** 
 518:.\Generated_Source\PSoC5/USBUART_episr.c ****         #if (defined(USBUART_ENABLE_MIDI_STREAMING) && !defined(USBUART_MAIN_SERVICE_MIDI_OUT) && \
 519:.\Generated_Source\PSoC5/USBUART_episr.c ****                      USBUART_ISR_SERVICE_MIDI_OUT && CY_PSOC3)
 520:.\Generated_Source\PSoC5/USBUART_episr.c ****             int_en = EA;
 521:.\Generated_Source\PSoC5/USBUART_episr.c ****             CyGlobalIntEnable;  /* Make sure nested interrupt is enabled */
 522:.\Generated_Source\PSoC5/USBUART_episr.c ****         #endif /* CY_PSOC3 & USBUART_ISR_SERVICE_MIDI_OUT  */
 523:.\Generated_Source\PSoC5/USBUART_episr.c **** 
ARM GAS  C:\Users\VICTOR~1\AppData\Local\Temp\ccq3kEDU.s 			page 14


 524:.\Generated_Source\PSoC5/USBUART_episr.c ****         CY_GET_REG8(USBUART_SIE_EP8_CR0_PTR); /* Must read the mode reg */
 525:.\Generated_Source\PSoC5/USBUART_episr.c ****         /* Do not toggle ISOC endpoint */
 526:.\Generated_Source\PSoC5/USBUART_episr.c ****         if((USBUART_EP[USBUART_EP8].attrib & USBUART_EP_TYPE_MASK) !=
 527:.\Generated_Source\PSoC5/USBUART_episr.c ****                                                                                     USBUART_EP_TYPE
 528:.\Generated_Source\PSoC5/USBUART_episr.c ****         {
 529:.\Generated_Source\PSoC5/USBUART_episr.c ****             USBUART_EP[USBUART_EP8].epToggle ^= USBUART_EPX_CNT_DATA_TOGGLE;
 530:.\Generated_Source\PSoC5/USBUART_episr.c ****         }
 531:.\Generated_Source\PSoC5/USBUART_episr.c ****         USBUART_EP[USBUART_EP8].apiEpState = USBUART_EVENT_PENDING;
 532:.\Generated_Source\PSoC5/USBUART_episr.c ****         CY_SET_REG8(USBUART_SIE_EP_INT_SR_PTR, CY_GET_REG8(USBUART_SIE_EP_INT_SR_PTR)
 533:.\Generated_Source\PSoC5/USBUART_episr.c ****                                                                         & (uint8)~USBUART_SIE_EP_IN
 534:.\Generated_Source\PSoC5/USBUART_episr.c **** 
 535:.\Generated_Source\PSoC5/USBUART_episr.c ****         #if (defined(USBUART_ENABLE_MIDI_STREAMING) && !defined(USBUART_MAIN_SERVICE_MIDI_OUT) && \
 536:.\Generated_Source\PSoC5/USBUART_episr.c ****                      USBUART_ISR_SERVICE_MIDI_OUT)
 537:.\Generated_Source\PSoC5/USBUART_episr.c ****             if(USBUART_midi_out_ep == USBUART_EP8)
 538:.\Generated_Source\PSoC5/USBUART_episr.c ****             {
 539:.\Generated_Source\PSoC5/USBUART_episr.c ****                 USBUART_MIDI_OUT_EP_Service();
 540:.\Generated_Source\PSoC5/USBUART_episr.c ****             }
 541:.\Generated_Source\PSoC5/USBUART_episr.c ****         #endif /*  USBUART_ISR_SERVICE_MIDI_OUT */
 542:.\Generated_Source\PSoC5/USBUART_episr.c **** 
 543:.\Generated_Source\PSoC5/USBUART_episr.c ****         /* `#START EP8_END_USER_CODE` Place your code here */
 544:.\Generated_Source\PSoC5/USBUART_episr.c **** 
 545:.\Generated_Source\PSoC5/USBUART_episr.c ****         /* `#END` */
 546:.\Generated_Source\PSoC5/USBUART_episr.c **** 
 547:.\Generated_Source\PSoC5/USBUART_episr.c ****         #if (defined(USBUART_ENABLE_MIDI_STREAMING) && !defined(USBUART_MAIN_SERVICE_MIDI_OUT) && \
 548:.\Generated_Source\PSoC5/USBUART_episr.c ****                      USBUART_ISR_SERVICE_MIDI_OUT && CY_PSOC3)
 549:.\Generated_Source\PSoC5/USBUART_episr.c ****             EA = int_en;
 550:.\Generated_Source\PSoC5/USBUART_episr.c ****         #endif /* CY_PSOC3 & USBUART_ISR_SERVICE_MIDI_OUT  */
 551:.\Generated_Source\PSoC5/USBUART_episr.c ****     }
 552:.\Generated_Source\PSoC5/USBUART_episr.c **** 
 553:.\Generated_Source\PSoC5/USBUART_episr.c **** #endif   /*  USBUART_EP8_ISR_REMOVE */
 554:.\Generated_Source\PSoC5/USBUART_episr.c **** 
 555:.\Generated_Source\PSoC5/USBUART_episr.c **** 
 556:.\Generated_Source\PSoC5/USBUART_episr.c **** /*******************************************************************************
 557:.\Generated_Source\PSoC5/USBUART_episr.c **** * Function Name: USBUART_SOF_ISR
 558:.\Generated_Source\PSoC5/USBUART_episr.c **** ********************************************************************************
 559:.\Generated_Source\PSoC5/USBUART_episr.c **** *
 560:.\Generated_Source\PSoC5/USBUART_episr.c **** * Summary:
 561:.\Generated_Source\PSoC5/USBUART_episr.c **** *  Start of Frame Interrupt Service Routine
 562:.\Generated_Source\PSoC5/USBUART_episr.c **** *
 563:.\Generated_Source\PSoC5/USBUART_episr.c **** * Parameters:
 564:.\Generated_Source\PSoC5/USBUART_episr.c **** *  None.
 565:.\Generated_Source\PSoC5/USBUART_episr.c **** *
 566:.\Generated_Source\PSoC5/USBUART_episr.c **** * Return:
 567:.\Generated_Source\PSoC5/USBUART_episr.c **** *  None.
 568:.\Generated_Source\PSoC5/USBUART_episr.c **** *
 569:.\Generated_Source\PSoC5/USBUART_episr.c **** *******************************************************************************/
 570:.\Generated_Source\PSoC5/USBUART_episr.c **** CY_ISR(USBUART_SOF_ISR)
 571:.\Generated_Source\PSoC5/USBUART_episr.c **** {
 219              		.loc 1 571 0
 220              		.cfi_startproc
 221              		@ args = 0, pretend = 0, frame = 0
 222              		@ frame_needed = 1, uses_anonymous_args = 0
 223              		@ link register save eliminated.
 224 0000 80B4     		push	{r7}
 225              		.cfi_def_cfa_offset 4
 226              		.cfi_offset 7, -4
 227 0002 00AF     		add	r7, sp, #0
ARM GAS  C:\Users\VICTOR~1\AppData\Local\Temp\ccq3kEDU.s 			page 15


 228              		.cfi_def_cfa_register 7
 572:.\Generated_Source\PSoC5/USBUART_episr.c ****     /* `#START SOF_USER_CODE` Place your code here */
 573:.\Generated_Source\PSoC5/USBUART_episr.c **** 
 574:.\Generated_Source\PSoC5/USBUART_episr.c ****     /* `#END` */
 575:.\Generated_Source\PSoC5/USBUART_episr.c **** }
 229              		.loc 1 575 0
 230 0004 BD46     		mov	sp, r7
 231              		@ sp needed
 232 0006 5DF8047B 		ldr	r7, [sp], #4
 233 000a 7047     		bx	lr
 234              		.cfi_endproc
 235              	.LFE3:
 236              		.size	USBUART_SOF_ISR, .-USBUART_SOF_ISR
 237              		.section	.text.USBUART_BUS_RESET_ISR,"ax",%progbits
 238              		.align	2
 239              		.global	USBUART_BUS_RESET_ISR
 240              		.thumb
 241              		.thumb_func
 242              		.type	USBUART_BUS_RESET_ISR, %function
 243              	USBUART_BUS_RESET_ISR:
 244              	.LFB4:
 576:.\Generated_Source\PSoC5/USBUART_episr.c **** 
 577:.\Generated_Source\PSoC5/USBUART_episr.c **** 
 578:.\Generated_Source\PSoC5/USBUART_episr.c **** /*******************************************************************************
 579:.\Generated_Source\PSoC5/USBUART_episr.c **** * Function Name: USBUART_BUS_RESET_ISR
 580:.\Generated_Source\PSoC5/USBUART_episr.c **** ********************************************************************************
 581:.\Generated_Source\PSoC5/USBUART_episr.c **** *
 582:.\Generated_Source\PSoC5/USBUART_episr.c **** * Summary:
 583:.\Generated_Source\PSoC5/USBUART_episr.c **** *  USB Bus Reset Interrupt Service Routine.  Calls _Start with the same
 584:.\Generated_Source\PSoC5/USBUART_episr.c **** *  parameters as the last USER call to _Start
 585:.\Generated_Source\PSoC5/USBUART_episr.c **** *
 586:.\Generated_Source\PSoC5/USBUART_episr.c **** * Parameters:
 587:.\Generated_Source\PSoC5/USBUART_episr.c **** *  None.
 588:.\Generated_Source\PSoC5/USBUART_episr.c **** *
 589:.\Generated_Source\PSoC5/USBUART_episr.c **** * Return:
 590:.\Generated_Source\PSoC5/USBUART_episr.c **** *  None.
 591:.\Generated_Source\PSoC5/USBUART_episr.c **** *
 592:.\Generated_Source\PSoC5/USBUART_episr.c **** *******************************************************************************/
 593:.\Generated_Source\PSoC5/USBUART_episr.c **** CY_ISR(USBUART_BUS_RESET_ISR)
 594:.\Generated_Source\PSoC5/USBUART_episr.c **** {
 245              		.loc 1 594 0
 246              		.cfi_startproc
 247              		@ args = 0, pretend = 0, frame = 0
 248              		@ frame_needed = 1, uses_anonymous_args = 0
 249 0000 80B5     		push	{r7, lr}
 250              		.cfi_def_cfa_offset 8
 251              		.cfi_offset 7, -8
 252              		.cfi_offset 14, -4
 253 0002 00AF     		add	r7, sp, #0
 254              		.cfi_def_cfa_register 7
 595:.\Generated_Source\PSoC5/USBUART_episr.c ****     /* `#START BUS_RESET_USER_CODE` Place your code here */
 596:.\Generated_Source\PSoC5/USBUART_episr.c **** 
 597:.\Generated_Source\PSoC5/USBUART_episr.c ****     /* `#END` */
 598:.\Generated_Source\PSoC5/USBUART_episr.c **** 
 599:.\Generated_Source\PSoC5/USBUART_episr.c ****     USBUART_ReInitComponent();
 255              		.loc 1 599 0
 256 0004 FFF7FEFF 		bl	USBUART_ReInitComponent
ARM GAS  C:\Users\VICTOR~1\AppData\Local\Temp\ccq3kEDU.s 			page 16


 600:.\Generated_Source\PSoC5/USBUART_episr.c **** }
 257              		.loc 1 600 0
 258 0008 80BD     		pop	{r7, pc}
 259              		.cfi_endproc
 260              	.LFE4:
 261              		.size	USBUART_BUS_RESET_ISR, .-USBUART_BUS_RESET_ISR
 262 000a 00BF     		.text
 263              	.Letext0:
 264              		.file 2 ".\\Generated_Source\\PSoC5\\cytypes.h"
 265              		.file 3 ".\\Generated_Source\\PSoC5\\USBUART.h"
 266              		.file 4 ".\\Generated_Source\\PSoC5\\USBUART_pvt.h"