ARM GAS  C:\Users\VICTOR~1\AppData\Local\Temp\ccARlXCX.s 			page 1


   1              		.syntax unified
   2              		.cpu cortex-m3
   3              		.fpu softvfp
   4              		.eabi_attribute 20, 1
   5              		.eabi_attribute 21, 1
   6              		.eabi_attribute 23, 3
   7              		.eabi_attribute 24, 1
   8              		.eabi_attribute 25, 1
   9              		.eabi_attribute 26, 1
  10              		.eabi_attribute 30, 6
  11              		.eabi_attribute 34, 1
  12              		.eabi_attribute 18, 4
  13              		.thumb
  14              		.file	"USBUART_std.c"
  15              		.text
  16              	.Ltext0:
  17              		.cfi_sections	.debug_frame
  18              		.section	.text.USBUART_HandleStandardRqst,"ax",%progbits
  19              		.align	2
  20              		.global	USBUART_HandleStandardRqst
  21              		.thumb
  22              		.thumb_func
  23              		.type	USBUART_HandleStandardRqst, %function
  24              	USBUART_HandleStandardRqst:
  25              	.LFB0:
  26              		.file 1 ".\\Generated_Source\\PSoC5\\USBUART_std.c"
   1:.\Generated_Source\PSoC5/USBUART_std.c **** /*******************************************************************************
   2:.\Generated_Source\PSoC5/USBUART_std.c **** * File Name: USBUART_std.c
   3:.\Generated_Source\PSoC5/USBUART_std.c **** * Version 2.70
   4:.\Generated_Source\PSoC5/USBUART_std.c **** *
   5:.\Generated_Source\PSoC5/USBUART_std.c **** * Description:
   6:.\Generated_Source\PSoC5/USBUART_std.c **** *  USB Standard request handler.
   7:.\Generated_Source\PSoC5/USBUART_std.c **** *
   8:.\Generated_Source\PSoC5/USBUART_std.c **** * Note:
   9:.\Generated_Source\PSoC5/USBUART_std.c **** *
  10:.\Generated_Source\PSoC5/USBUART_std.c **** ********************************************************************************
  11:.\Generated_Source\PSoC5/USBUART_std.c **** * Copyright 2008-2013, Cypress Semiconductor Corporation.  All rights reserved.
  12:.\Generated_Source\PSoC5/USBUART_std.c **** * You may use this file only in accordance with the license, terms, conditions,
  13:.\Generated_Source\PSoC5/USBUART_std.c **** * disclaimers, and limitations in the end user license agreement accompanying
  14:.\Generated_Source\PSoC5/USBUART_std.c **** * the software package with which this file was provided.
  15:.\Generated_Source\PSoC5/USBUART_std.c **** *******************************************************************************/
  16:.\Generated_Source\PSoC5/USBUART_std.c **** 
  17:.\Generated_Source\PSoC5/USBUART_std.c **** #include "USBUART.h"
  18:.\Generated_Source\PSoC5/USBUART_std.c **** #include "USBUART_cdc.h"
  19:.\Generated_Source\PSoC5/USBUART_std.c **** #include "USBUART_pvt.h"
  20:.\Generated_Source\PSoC5/USBUART_std.c **** #if defined(USBUART_ENABLE_MIDI_STREAMING)
  21:.\Generated_Source\PSoC5/USBUART_std.c ****     #include "USBUART_midi.h"
  22:.\Generated_Source\PSoC5/USBUART_std.c **** #endif /*  USBUART_ENABLE_MIDI_STREAMING*/
  23:.\Generated_Source\PSoC5/USBUART_std.c **** 
  24:.\Generated_Source\PSoC5/USBUART_std.c **** 
  25:.\Generated_Source\PSoC5/USBUART_std.c **** /***************************************
  26:.\Generated_Source\PSoC5/USBUART_std.c **** *   Static data allocation
  27:.\Generated_Source\PSoC5/USBUART_std.c **** ***************************************/
  28:.\Generated_Source\PSoC5/USBUART_std.c **** 
  29:.\Generated_Source\PSoC5/USBUART_std.c **** #if defined(USBUART_ENABLE_FWSN_STRING)
  30:.\Generated_Source\PSoC5/USBUART_std.c ****     static volatile uint8 *USBUART_fwSerialNumberStringDescriptor;
  31:.\Generated_Source\PSoC5/USBUART_std.c ****     static volatile uint8 USBUART_snStringConfirm = USBUART_FALSE;
ARM GAS  C:\Users\VICTOR~1\AppData\Local\Temp\ccARlXCX.s 			page 2


  32:.\Generated_Source\PSoC5/USBUART_std.c **** #endif  /* USBUART_ENABLE_FWSN_STRING */
  33:.\Generated_Source\PSoC5/USBUART_std.c **** 
  34:.\Generated_Source\PSoC5/USBUART_std.c **** #if defined(USBUART_ENABLE_FWSN_STRING)
  35:.\Generated_Source\PSoC5/USBUART_std.c **** 
  36:.\Generated_Source\PSoC5/USBUART_std.c ****     /*******************************************************************************
  37:.\Generated_Source\PSoC5/USBUART_std.c ****     * Function Name: USBUART_SerialNumString
  38:.\Generated_Source\PSoC5/USBUART_std.c ****     ********************************************************************************
  39:.\Generated_Source\PSoC5/USBUART_std.c ****     *
  40:.\Generated_Source\PSoC5/USBUART_std.c ****     * Summary:
  41:.\Generated_Source\PSoC5/USBUART_std.c ****     *  Application firmware may supply the source of the USB device descriptors
  42:.\Generated_Source\PSoC5/USBUART_std.c ****     *  serial number string during runtime.
  43:.\Generated_Source\PSoC5/USBUART_std.c ****     *
  44:.\Generated_Source\PSoC5/USBUART_std.c ****     * Parameters:
  45:.\Generated_Source\PSoC5/USBUART_std.c ****     *  snString:  pointer to string.
  46:.\Generated_Source\PSoC5/USBUART_std.c ****     *
  47:.\Generated_Source\PSoC5/USBUART_std.c ****     * Return:
  48:.\Generated_Source\PSoC5/USBUART_std.c ****     *  None.
  49:.\Generated_Source\PSoC5/USBUART_std.c ****     *
  50:.\Generated_Source\PSoC5/USBUART_std.c ****     * Reentrant:
  51:.\Generated_Source\PSoC5/USBUART_std.c ****     *  No.
  52:.\Generated_Source\PSoC5/USBUART_std.c ****     *
  53:.\Generated_Source\PSoC5/USBUART_std.c ****     *******************************************************************************/
  54:.\Generated_Source\PSoC5/USBUART_std.c ****     void  USBUART_SerialNumString(uint8 snString[]) 
  55:.\Generated_Source\PSoC5/USBUART_std.c ****     {
  56:.\Generated_Source\PSoC5/USBUART_std.c ****         USBUART_snStringConfirm = USBUART_FALSE;
  57:.\Generated_Source\PSoC5/USBUART_std.c ****         if(snString != NULL)
  58:.\Generated_Source\PSoC5/USBUART_std.c ****         {
  59:.\Generated_Source\PSoC5/USBUART_std.c ****             /* Check descriptor validation */
  60:.\Generated_Source\PSoC5/USBUART_std.c ****             if( (snString[0u] > 1u ) && (snString[1u] == USBUART_DESCR_STRING) )
  61:.\Generated_Source\PSoC5/USBUART_std.c ****             {
  62:.\Generated_Source\PSoC5/USBUART_std.c ****                 USBUART_fwSerialNumberStringDescriptor = snString;
  63:.\Generated_Source\PSoC5/USBUART_std.c ****                 USBUART_snStringConfirm = USBUART_TRUE;
  64:.\Generated_Source\PSoC5/USBUART_std.c ****             }
  65:.\Generated_Source\PSoC5/USBUART_std.c ****         }
  66:.\Generated_Source\PSoC5/USBUART_std.c ****     }
  67:.\Generated_Source\PSoC5/USBUART_std.c **** 
  68:.\Generated_Source\PSoC5/USBUART_std.c **** #endif  /* USBUART_ENABLE_FWSN_STRING */
  69:.\Generated_Source\PSoC5/USBUART_std.c **** 
  70:.\Generated_Source\PSoC5/USBUART_std.c **** 
  71:.\Generated_Source\PSoC5/USBUART_std.c **** /*******************************************************************************
  72:.\Generated_Source\PSoC5/USBUART_std.c **** * Function Name: USBUART_HandleStandardRqst
  73:.\Generated_Source\PSoC5/USBUART_std.c **** ********************************************************************************
  74:.\Generated_Source\PSoC5/USBUART_std.c **** *
  75:.\Generated_Source\PSoC5/USBUART_std.c **** * Summary:
  76:.\Generated_Source\PSoC5/USBUART_std.c **** *  This Routine dispatches standard requests
  77:.\Generated_Source\PSoC5/USBUART_std.c **** *
  78:.\Generated_Source\PSoC5/USBUART_std.c **** * Parameters:
  79:.\Generated_Source\PSoC5/USBUART_std.c **** *  None.
  80:.\Generated_Source\PSoC5/USBUART_std.c **** *
  81:.\Generated_Source\PSoC5/USBUART_std.c **** * Return:
  82:.\Generated_Source\PSoC5/USBUART_std.c **** *  TRUE if request handled.
  83:.\Generated_Source\PSoC5/USBUART_std.c **** *
  84:.\Generated_Source\PSoC5/USBUART_std.c **** * Reentrant:
  85:.\Generated_Source\PSoC5/USBUART_std.c **** *  No.
  86:.\Generated_Source\PSoC5/USBUART_std.c **** *
  87:.\Generated_Source\PSoC5/USBUART_std.c **** *******************************************************************************/
  88:.\Generated_Source\PSoC5/USBUART_std.c **** uint8 USBUART_HandleStandardRqst(void) 
ARM GAS  C:\Users\VICTOR~1\AppData\Local\Temp\ccARlXCX.s 			page 3


  89:.\Generated_Source\PSoC5/USBUART_std.c **** {
  27              		.loc 1 89 0
  28              		.cfi_startproc
  29              		@ args = 0, pretend = 0, frame = 24
  30              		@ frame_needed = 1, uses_anonymous_args = 0
  31 0000 80B5     		push	{r7, lr}
  32              		.cfi_def_cfa_offset 8
  33              		.cfi_offset 7, -8
  34              		.cfi_offset 14, -4
  35 0002 86B0     		sub	sp, sp, #24
  36              		.cfi_def_cfa_offset 32
  37 0004 00AF     		add	r7, sp, #0
  38              		.cfi_def_cfa_register 7
  90:.\Generated_Source\PSoC5/USBUART_std.c ****     uint8 requestHandled = USBUART_FALSE;
  39              		.loc 1 90 0
  40 0006 0023     		movs	r3, #0
  41 0008 FB75     		strb	r3, [r7, #23]
  91:.\Generated_Source\PSoC5/USBUART_std.c ****     uint8 interfaceNumber;
  92:.\Generated_Source\PSoC5/USBUART_std.c ****     uint8 configurationN;
  93:.\Generated_Source\PSoC5/USBUART_std.c ****     #if defined(USBUART_ENABLE_STRINGS)
  94:.\Generated_Source\PSoC5/USBUART_std.c ****         volatile uint8 *pStr = 0u;
  42              		.loc 1 94 0
  43 000a 0023     		movs	r3, #0
  44 000c 3B61     		str	r3, [r7, #16]
  95:.\Generated_Source\PSoC5/USBUART_std.c ****         #if defined(USBUART_ENABLE_DESCRIPTOR_STRINGS)
  96:.\Generated_Source\PSoC5/USBUART_std.c ****             uint8 nStr;
  97:.\Generated_Source\PSoC5/USBUART_std.c ****             uint8 descrLength;
  98:.\Generated_Source\PSoC5/USBUART_std.c ****         #endif /* USBUART_ENABLE_DESCRIPTOR_STRINGS */
  99:.\Generated_Source\PSoC5/USBUART_std.c ****     #endif /* USBUART_ENABLE_STRINGS */
 100:.\Generated_Source\PSoC5/USBUART_std.c ****     static volatile uint8 USBUART_tBuffer[USBUART_STATUS_LENGTH_MAX];
 101:.\Generated_Source\PSoC5/USBUART_std.c ****     const T_USBUART_LUT CYCODE *pTmp;
 102:.\Generated_Source\PSoC5/USBUART_std.c ****     USBUART_currentTD.count = 0u;
  45              		.loc 1 102 0
  46 000e 9D4B     		ldr	r3, .L60
  47 0010 0022     		movs	r2, #0
  48 0012 1A80     		strh	r2, [r3]	@ movhi
 103:.\Generated_Source\PSoC5/USBUART_std.c **** 
 104:.\Generated_Source\PSoC5/USBUART_std.c ****     if ((CY_GET_REG8(USBUART_bmRequestType) & USBUART_RQST_DIR_MASK) == USBUART_RQST_DIR_D2H)
  49              		.loc 1 104 0
  50 0014 9C4B     		ldr	r3, .L60+4
  51 0016 1B78     		ldrb	r3, [r3]
  52 0018 DBB2     		uxtb	r3, r3
  53 001a DBB2     		uxtb	r3, r3
  54 001c 5BB2     		sxtb	r3, r3
  55 001e 002B     		cmp	r3, #0
  56 0020 80F20581 		bge	.L2
 105:.\Generated_Source\PSoC5/USBUART_std.c ****     {
 106:.\Generated_Source\PSoC5/USBUART_std.c ****         /* Control Read */
 107:.\Generated_Source\PSoC5/USBUART_std.c ****         switch (CY_GET_REG8(USBUART_bRequest))
  57              		.loc 1 107 0
  58 0024 994B     		ldr	r3, .L60+8
  59 0026 1B78     		ldrb	r3, [r3]
  60 0028 DBB2     		uxtb	r3, r3
  61 002a 0A2B     		cmp	r3, #10
  62 002c 00F2FD80 		bhi	.L56
  63 0030 01A2     		adr	r2, .L5
  64 0032 52F823F0 		ldr	pc, [r2, r3, lsl #2]
ARM GAS  C:\Users\VICTOR~1\AppData\Local\Temp\ccARlXCX.s 			page 4


  65 0036 00BF     		.p2align 2
  66              	.L5:
  67 0038 7F010000 		.word	.L4+1
  68 003c 2B020000 		.word	.L56+1
  69 0040 2B020000 		.word	.L56+1
  70 0044 2B020000 		.word	.L56+1
  71 0048 2B020000 		.word	.L56+1
  72 004c 2B020000 		.word	.L56+1
  73 0050 65000000 		.word	.L6+1
  74 0054 2B020000 		.word	.L56+1
  75 0058 F5010000 		.word	.L7+1
  76 005c 2B020000 		.word	.L56+1
  77 0060 0B020000 		.word	.L8+1
  78              		.p2align 1
  79              	.L6:
 108:.\Generated_Source\PSoC5/USBUART_std.c ****         {
 109:.\Generated_Source\PSoC5/USBUART_std.c ****             case USBUART_GET_DESCRIPTOR:
 110:.\Generated_Source\PSoC5/USBUART_std.c ****                 if (CY_GET_REG8(USBUART_wValueHi) == USBUART_DESCR_DEVICE)
  80              		.loc 1 110 0
  81 0064 8A4B     		ldr	r3, .L60+12
  82 0066 1B78     		ldrb	r3, [r3]
  83 0068 DBB2     		uxtb	r3, r3
  84 006a 012B     		cmp	r3, #1
  85 006c 0ED1     		bne	.L9
 111:.\Generated_Source\PSoC5/USBUART_std.c ****                 {
 112:.\Generated_Source\PSoC5/USBUART_std.c ****                     pTmp = USBUART_GetDeviceTablePtr();
  86              		.loc 1 112 0
  87 006e FFF7FEFF 		bl	USBUART_GetDeviceTablePtr
  88 0072 B860     		str	r0, [r7, #8]
 113:.\Generated_Source\PSoC5/USBUART_std.c ****                     USBUART_currentTD.pData = (volatile uint8 *)pTmp->p_list;
  89              		.loc 1 113 0
  90 0074 BB68     		ldr	r3, [r7, #8]
  91 0076 5A68     		ldr	r2, [r3, #4]
  92 0078 824B     		ldr	r3, .L60
  93 007a 5A60     		str	r2, [r3, #4]
 114:.\Generated_Source\PSoC5/USBUART_std.c ****                     USBUART_currentTD.count = USBUART_DEVICE_DESCR_LENGTH;
  94              		.loc 1 114 0
  95 007c 814B     		ldr	r3, .L60
  96 007e 1222     		movs	r2, #18
  97 0080 1A80     		strh	r2, [r3]	@ movhi
 115:.\Generated_Source\PSoC5/USBUART_std.c ****                     requestHandled  = USBUART_InitControlRead();
  98              		.loc 1 115 0
  99 0082 FFF7FEFF 		bl	USBUART_InitControlRead
 100 0086 0346     		mov	r3, r0
 101 0088 FB75     		strb	r3, [r7, #23]
 102 008a 77E0     		b	.L10
 103              	.L9:
 116:.\Generated_Source\PSoC5/USBUART_std.c ****                 }
 117:.\Generated_Source\PSoC5/USBUART_std.c ****                 else if (CY_GET_REG8(USBUART_wValueHi) == USBUART_DESCR_CONFIG)
 104              		.loc 1 117 0
 105 008c 804B     		ldr	r3, .L60+12
 106 008e 1B78     		ldrb	r3, [r3]
 107 0090 DBB2     		uxtb	r3, r3
 108 0092 022B     		cmp	r3, #2
 109 0094 23D1     		bne	.L11
 118:.\Generated_Source\PSoC5/USBUART_std.c ****                 {
 119:.\Generated_Source\PSoC5/USBUART_std.c ****                     pTmp = USBUART_GetConfigTablePtr(CY_GET_REG8(USBUART_wValueLo));
ARM GAS  C:\Users\VICTOR~1\AppData\Local\Temp\ccARlXCX.s 			page 5


 110              		.loc 1 119 0
 111 0096 7F4B     		ldr	r3, .L60+16
 112 0098 1B78     		ldrb	r3, [r3]
 113 009a DBB2     		uxtb	r3, r3
 114 009c 1846     		mov	r0, r3
 115 009e FFF7FEFF 		bl	USBUART_GetConfigTablePtr
 116 00a2 B860     		str	r0, [r7, #8]
 120:.\Generated_Source\PSoC5/USBUART_std.c ****                     if( pTmp != NULL )  /* Verify that requested descriptor exists */
 117              		.loc 1 120 0
 118 00a4 BB68     		ldr	r3, [r7, #8]
 119 00a6 002B     		cmp	r3, #0
 120 00a8 68D0     		beq	.L10
 121:.\Generated_Source\PSoC5/USBUART_std.c ****                     {
 122:.\Generated_Source\PSoC5/USBUART_std.c ****                         USBUART_currentTD.pData = (volatile uint8 *)pTmp->p_list;
 121              		.loc 1 122 0
 122 00aa BB68     		ldr	r3, [r7, #8]
 123 00ac 5A68     		ldr	r2, [r3, #4]
 124 00ae 754B     		ldr	r3, .L60
 125 00b0 5A60     		str	r2, [r3, #4]
 123:.\Generated_Source\PSoC5/USBUART_std.c ****                         USBUART_currentTD.count = ((uint16)(USBUART_currentTD.pData)[ \
 126              		.loc 1 123 0
 127 00b2 744B     		ldr	r3, .L60
 128 00b4 5B68     		ldr	r3, [r3, #4]
 129 00b6 0333     		adds	r3, r3, #3
 130 00b8 1B78     		ldrb	r3, [r3]
 131 00ba DBB2     		uxtb	r3, r3
 124:.\Generated_Source\PSoC5/USBUART_std.c ****                                           USBUART_CONFIG_DESCR_TOTAL_LENGTH_HI] << 8u) | \
 132              		.loc 1 124 0
 133 00bc 1B02     		lsls	r3, r3, #8
 123:.\Generated_Source\PSoC5/USBUART_std.c ****                         USBUART_currentTD.count = ((uint16)(USBUART_currentTD.pData)[ \
 134              		.loc 1 123 0
 135 00be 9AB2     		uxth	r2, r3
 125:.\Generated_Source\PSoC5/USBUART_std.c ****                                          (USBUART_currentTD.pData)[USBUART_CONFIG_DESCR_TOTAL_LENGT
 136              		.loc 1 125 0
 137 00c0 704B     		ldr	r3, .L60
 138 00c2 5B68     		ldr	r3, [r3, #4]
 139 00c4 0233     		adds	r3, r3, #2
 140 00c6 1B78     		ldrb	r3, [r3]
 141 00c8 DBB2     		uxtb	r3, r3
 123:.\Generated_Source\PSoC5/USBUART_std.c ****                         USBUART_currentTD.count = ((uint16)(USBUART_currentTD.pData)[ \
 142              		.loc 1 123 0
 143 00ca 1343     		orrs	r3, r3, r2
 144 00cc 9BB2     		uxth	r3, r3
 145 00ce 9AB2     		uxth	r2, r3
 146 00d0 6C4B     		ldr	r3, .L60
 147 00d2 1A80     		strh	r2, [r3]	@ movhi
 126:.\Generated_Source\PSoC5/USBUART_std.c ****                         requestHandled  = USBUART_InitControlRead();
 148              		.loc 1 126 0
 149 00d4 FFF7FEFF 		bl	USBUART_InitControlRead
 150 00d8 0346     		mov	r3, r0
 151 00da FB75     		strb	r3, [r7, #23]
 127:.\Generated_Source\PSoC5/USBUART_std.c ****                     }
 128:.\Generated_Source\PSoC5/USBUART_std.c ****                 }
 129:.\Generated_Source\PSoC5/USBUART_std.c ****                 #if defined(USBUART_ENABLE_STRINGS)
 130:.\Generated_Source\PSoC5/USBUART_std.c ****                 else if (CY_GET_REG8(USBUART_wValueHi) == USBUART_DESCR_STRING)
 131:.\Generated_Source\PSoC5/USBUART_std.c ****                 {
 132:.\Generated_Source\PSoC5/USBUART_std.c ****                     /* Descriptor Strings*/
ARM GAS  C:\Users\VICTOR~1\AppData\Local\Temp\ccARlXCX.s 			page 6


 133:.\Generated_Source\PSoC5/USBUART_std.c ****                     #if defined(USBUART_ENABLE_DESCRIPTOR_STRINGS)
 134:.\Generated_Source\PSoC5/USBUART_std.c ****                         nStr = 0u;
 135:.\Generated_Source\PSoC5/USBUART_std.c ****                         pStr = (volatile uint8 *)&USBUART_STRING_DESCRIPTORS[0u];
 136:.\Generated_Source\PSoC5/USBUART_std.c ****                         while ( (CY_GET_REG8(USBUART_wValueLo) > nStr) && (*pStr != 0u) )
 137:.\Generated_Source\PSoC5/USBUART_std.c ****                         {
 138:.\Generated_Source\PSoC5/USBUART_std.c ****                             /* Read descriptor length from 1st byte */
 139:.\Generated_Source\PSoC5/USBUART_std.c ****                             descrLength = *pStr;
 140:.\Generated_Source\PSoC5/USBUART_std.c ****                             /* Move to next string descriptor */
 141:.\Generated_Source\PSoC5/USBUART_std.c ****                             pStr = &pStr[descrLength];
 142:.\Generated_Source\PSoC5/USBUART_std.c ****                             nStr++;
 143:.\Generated_Source\PSoC5/USBUART_std.c ****                         }
 144:.\Generated_Source\PSoC5/USBUART_std.c ****                     #endif /*  USBUART_ENABLE_DESCRIPTOR_STRINGS */
 145:.\Generated_Source\PSoC5/USBUART_std.c ****                     /* Microsoft OS String*/
 146:.\Generated_Source\PSoC5/USBUART_std.c ****                     #if defined(USBUART_ENABLE_MSOS_STRING)
 147:.\Generated_Source\PSoC5/USBUART_std.c ****                         if( CY_GET_REG8(USBUART_wValueLo) == USBUART_STRING_MSOS )
 148:.\Generated_Source\PSoC5/USBUART_std.c ****                         {
 149:.\Generated_Source\PSoC5/USBUART_std.c ****                             pStr = (volatile uint8 *)&USBUART_MSOS_DESCRIPTOR[0u];
 150:.\Generated_Source\PSoC5/USBUART_std.c ****                         }
 151:.\Generated_Source\PSoC5/USBUART_std.c ****                     #endif /*  USBUART_ENABLE_MSOS_STRING*/
 152:.\Generated_Source\PSoC5/USBUART_std.c ****                     /* SN string */
 153:.\Generated_Source\PSoC5/USBUART_std.c ****                     #if defined(USBUART_ENABLE_SN_STRING)
 154:.\Generated_Source\PSoC5/USBUART_std.c ****                         if( (CY_GET_REG8(USBUART_wValueLo) != 0u) &&
 155:.\Generated_Source\PSoC5/USBUART_std.c ****                             (CY_GET_REG8(USBUART_wValueLo) ==
 156:.\Generated_Source\PSoC5/USBUART_std.c ****                             USBUART_DEVICE0_DESCR[USBUART_DEVICE_DESCR_SN_SHIFT]) )
 157:.\Generated_Source\PSoC5/USBUART_std.c ****                         {
 158:.\Generated_Source\PSoC5/USBUART_std.c ****                             
 159:.\Generated_Source\PSoC5/USBUART_std.c ****                             #if defined(USBUART_ENABLE_IDSN_STRING)
 160:.\Generated_Source\PSoC5/USBUART_std.c ****                                 /* Read DIE ID and generate string descriptor in RAM */
 161:.\Generated_Source\PSoC5/USBUART_std.c ****                                 USBUART_ReadDieID(USBUART_idSerialNumberStringDescriptor);
 162:.\Generated_Source\PSoC5/USBUART_std.c ****                                 pStr = USBUART_idSerialNumberStringDescriptor;
 163:.\Generated_Source\PSoC5/USBUART_std.c ****                             #elif defined(USBUART_ENABLE_FWSN_STRING)
 164:.\Generated_Source\PSoC5/USBUART_std.c ****                                 if(USBUART_snStringConfirm != USBUART_FALSE)
 165:.\Generated_Source\PSoC5/USBUART_std.c ****                                 {
 166:.\Generated_Source\PSoC5/USBUART_std.c ****                                     pStr = USBUART_fwSerialNumberStringDescriptor;
 167:.\Generated_Source\PSoC5/USBUART_std.c ****                                 }
 168:.\Generated_Source\PSoC5/USBUART_std.c ****                                 else
 169:.\Generated_Source\PSoC5/USBUART_std.c ****                                 {
 170:.\Generated_Source\PSoC5/USBUART_std.c ****                                     pStr = (volatile uint8 *)&USBUART_SN_STRING_DESCRIPTOR[0u];
 171:.\Generated_Source\PSoC5/USBUART_std.c ****                                 }
 172:.\Generated_Source\PSoC5/USBUART_std.c ****                             #else
 173:.\Generated_Source\PSoC5/USBUART_std.c ****                                 pStr = (volatile uint8 *)&USBUART_SN_STRING_DESCRIPTOR[0u];
 174:.\Generated_Source\PSoC5/USBUART_std.c ****                             #endif  /* defined(USBUART_ENABLE_IDSN_STRING) */
 175:.\Generated_Source\PSoC5/USBUART_std.c ****                         }
 176:.\Generated_Source\PSoC5/USBUART_std.c ****                     #endif    /*  USBUART_ENABLE_SN_STRING */
 177:.\Generated_Source\PSoC5/USBUART_std.c ****                     if (*pStr != 0u)
 178:.\Generated_Source\PSoC5/USBUART_std.c ****                     {
 179:.\Generated_Source\PSoC5/USBUART_std.c ****                         USBUART_currentTD.count = *pStr;
 180:.\Generated_Source\PSoC5/USBUART_std.c ****                         USBUART_currentTD.pData = pStr;
 181:.\Generated_Source\PSoC5/USBUART_std.c ****                         requestHandled  = USBUART_InitControlRead();
 182:.\Generated_Source\PSoC5/USBUART_std.c ****                     }
 183:.\Generated_Source\PSoC5/USBUART_std.c ****                 }
 184:.\Generated_Source\PSoC5/USBUART_std.c ****                 #endif /*  USBUART_ENABLE_STRINGS */
 185:.\Generated_Source\PSoC5/USBUART_std.c ****                 else
 186:.\Generated_Source\PSoC5/USBUART_std.c ****                 {
 187:.\Generated_Source\PSoC5/USBUART_std.c ****                     requestHandled = USBUART_DispatchClassRqst();
 188:.\Generated_Source\PSoC5/USBUART_std.c ****                 }
 189:.\Generated_Source\PSoC5/USBUART_std.c ****                 break;
ARM GAS  C:\Users\VICTOR~1\AppData\Local\Temp\ccARlXCX.s 			page 7


 152              		.loc 1 189 0
 153 00dc A6E0     		b	.L20
 154              	.L11:
 130:.\Generated_Source\PSoC5/USBUART_std.c ****                 else if (CY_GET_REG8(USBUART_wValueHi) == USBUART_DESCR_STRING)
 155              		.loc 1 130 0
 156 00de 6C4B     		ldr	r3, .L60+12
 157 00e0 1B78     		ldrb	r3, [r3]
 158 00e2 DBB2     		uxtb	r3, r3
 159 00e4 032B     		cmp	r3, #3
 160 00e6 44D1     		bne	.L13
 134:.\Generated_Source\PSoC5/USBUART_std.c ****                         nStr = 0u;
 161              		.loc 1 134 0
 162 00e8 0023     		movs	r3, #0
 163 00ea FB73     		strb	r3, [r7, #15]
 135:.\Generated_Source\PSoC5/USBUART_std.c ****                         pStr = (volatile uint8 *)&USBUART_STRING_DESCRIPTORS[0u];
 164              		.loc 1 135 0
 165 00ec 6A4B     		ldr	r3, .L60+20
 166 00ee 3B61     		str	r3, [r7, #16]
 136:.\Generated_Source\PSoC5/USBUART_std.c ****                         while ( (CY_GET_REG8(USBUART_wValueLo) > nStr) && (*pStr != 0u) )
 167              		.loc 1 136 0
 168 00f0 09E0     		b	.L14
 169              	.L16:
 139:.\Generated_Source\PSoC5/USBUART_std.c ****                             descrLength = *pStr;
 170              		.loc 1 139 0
 171 00f2 3B69     		ldr	r3, [r7, #16]
 172 00f4 1B78     		ldrb	r3, [r3]
 173 00f6 FB71     		strb	r3, [r7, #7]
 141:.\Generated_Source\PSoC5/USBUART_std.c ****                             pStr = &pStr[descrLength];
 174              		.loc 1 141 0
 175 00f8 FB79     		ldrb	r3, [r7, #7]	@ zero_extendqisi2
 176 00fa 3A69     		ldr	r2, [r7, #16]
 177 00fc 1344     		add	r3, r3, r2
 178 00fe 3B61     		str	r3, [r7, #16]
 142:.\Generated_Source\PSoC5/USBUART_std.c ****                             nStr++;
 179              		.loc 1 142 0
 180 0100 FB7B     		ldrb	r3, [r7, #15]	@ zero_extendqisi2
 181 0102 0133     		adds	r3, r3, #1
 182 0104 FB73     		strb	r3, [r7, #15]
 183              	.L14:
 136:.\Generated_Source\PSoC5/USBUART_std.c ****                         while ( (CY_GET_REG8(USBUART_wValueLo) > nStr) && (*pStr != 0u) )
 184              		.loc 1 136 0 discriminator 1
 185 0106 634B     		ldr	r3, .L60+16
 186 0108 1B78     		ldrb	r3, [r3]
 187 010a DBB2     		uxtb	r3, r3
 188 010c FA7B     		ldrb	r2, [r7, #15]	@ zero_extendqisi2
 189 010e 9A42     		cmp	r2, r3
 190 0110 04D2     		bcs	.L15
 136:.\Generated_Source\PSoC5/USBUART_std.c ****                         while ( (CY_GET_REG8(USBUART_wValueLo) > nStr) && (*pStr != 0u) )
 191              		.loc 1 136 0 is_stmt 0 discriminator 2
 192 0112 3B69     		ldr	r3, [r7, #16]
 193 0114 1B78     		ldrb	r3, [r3]
 194 0116 DBB2     		uxtb	r3, r3
 195 0118 002B     		cmp	r3, #0
 196 011a EAD1     		bne	.L16
 197              	.L15:
 147:.\Generated_Source\PSoC5/USBUART_std.c ****                         if( CY_GET_REG8(USBUART_wValueLo) == USBUART_STRING_MSOS )
 198              		.loc 1 147 0 is_stmt 1
ARM GAS  C:\Users\VICTOR~1\AppData\Local\Temp\ccARlXCX.s 			page 8


 199 011c 5D4B     		ldr	r3, .L60+16
 200 011e 1B78     		ldrb	r3, [r3]
 201 0120 DBB2     		uxtb	r3, r3
 202 0122 EE2B     		cmp	r3, #238
 203 0124 01D1     		bne	.L17
 149:.\Generated_Source\PSoC5/USBUART_std.c ****                             pStr = (volatile uint8 *)&USBUART_MSOS_DESCRIPTOR[0u];
 204              		.loc 1 149 0
 205 0126 5D4B     		ldr	r3, .L60+24
 206 0128 3B61     		str	r3, [r7, #16]
 207              	.L17:
 154:.\Generated_Source\PSoC5/USBUART_std.c ****                         if( (CY_GET_REG8(USBUART_wValueLo) != 0u) &&
 208              		.loc 1 154 0
 209 012a 5A4B     		ldr	r3, .L60+16
 210 012c 1B78     		ldrb	r3, [r3]
 211 012e DBB2     		uxtb	r3, r3
 212 0130 002B     		cmp	r3, #0
 213 0132 0BD0     		beq	.L18
 155:.\Generated_Source\PSoC5/USBUART_std.c ****                             (CY_GET_REG8(USBUART_wValueLo) ==
 214              		.loc 1 155 0 discriminator 1
 215 0134 574B     		ldr	r3, .L60+16
 216 0136 1B78     		ldrb	r3, [r3]
 217 0138 DAB2     		uxtb	r2, r3
 156:.\Generated_Source\PSoC5/USBUART_std.c ****                             USBUART_DEVICE0_DESCR[USBUART_DEVICE_DESCR_SN_SHIFT]) )
 218              		.loc 1 156 0 discriminator 1
 219 013a 594B     		ldr	r3, .L60+28
 220 013c 1B7C     		ldrb	r3, [r3, #16]	@ zero_extendqisi2
 154:.\Generated_Source\PSoC5/USBUART_std.c ****                         if( (CY_GET_REG8(USBUART_wValueLo) != 0u) &&
 221              		.loc 1 154 0 discriminator 1
 222 013e 9A42     		cmp	r2, r3
 223 0140 04D1     		bne	.L18
 161:.\Generated_Source\PSoC5/USBUART_std.c ****                                 USBUART_ReadDieID(USBUART_idSerialNumberStringDescriptor);
 224              		.loc 1 161 0
 225 0142 5848     		ldr	r0, .L60+32
 226 0144 FFF7FEFF 		bl	USBUART_ReadDieID
 162:.\Generated_Source\PSoC5/USBUART_std.c ****                                 pStr = USBUART_idSerialNumberStringDescriptor;
 227              		.loc 1 162 0
 228 0148 564B     		ldr	r3, .L60+32
 229 014a 3B61     		str	r3, [r7, #16]
 230              	.L18:
 177:.\Generated_Source\PSoC5/USBUART_std.c ****                     if (*pStr != 0u)
 231              		.loc 1 177 0
 232 014c 3B69     		ldr	r3, [r7, #16]
 233 014e 1B78     		ldrb	r3, [r3]
 234 0150 DBB2     		uxtb	r3, r3
 235 0152 002B     		cmp	r3, #0
 236 0154 12D0     		beq	.L10
 179:.\Generated_Source\PSoC5/USBUART_std.c ****                         USBUART_currentTD.count = *pStr;
 237              		.loc 1 179 0
 238 0156 3B69     		ldr	r3, [r7, #16]
 239 0158 1B78     		ldrb	r3, [r3]
 240 015a DBB2     		uxtb	r3, r3
 241 015c 1A46     		mov	r2, r3
 242 015e 494B     		ldr	r3, .L60
 243 0160 1A80     		strh	r2, [r3]	@ movhi
 180:.\Generated_Source\PSoC5/USBUART_std.c ****                         USBUART_currentTD.pData = pStr;
 244              		.loc 1 180 0
 245 0162 484B     		ldr	r3, .L60
ARM GAS  C:\Users\VICTOR~1\AppData\Local\Temp\ccARlXCX.s 			page 9


 246 0164 3A69     		ldr	r2, [r7, #16]
 247 0166 5A60     		str	r2, [r3, #4]
 181:.\Generated_Source\PSoC5/USBUART_std.c ****                         requestHandled  = USBUART_InitControlRead();
 248              		.loc 1 181 0
 249 0168 FFF7FEFF 		bl	USBUART_InitControlRead
 250 016c 0346     		mov	r3, r0
 251 016e FB75     		strb	r3, [r7, #23]
 252              		.loc 1 189 0
 253 0170 5CE0     		b	.L20
 254              	.L13:
 187:.\Generated_Source\PSoC5/USBUART_std.c ****                     requestHandled = USBUART_DispatchClassRqst();
 255              		.loc 1 187 0
 256 0172 FFF7FEFF 		bl	USBUART_DispatchClassRqst
 257 0176 0346     		mov	r3, r0
 258 0178 FB75     		strb	r3, [r7, #23]
 259              		.loc 1 189 0
 260 017a 57E0     		b	.L20
 261              	.L10:
 262 017c 56E0     		b	.L20
 263              	.L4:
 190:.\Generated_Source\PSoC5/USBUART_std.c ****             case USBUART_GET_STATUS:
 191:.\Generated_Source\PSoC5/USBUART_std.c ****                 switch ((CY_GET_REG8(USBUART_bmRequestType) & USBUART_RQST_RCPT_MASK))
 264              		.loc 1 191 0
 265 017e 424B     		ldr	r3, .L60+4
 266 0180 1B78     		ldrb	r3, [r3]
 267 0182 DBB2     		uxtb	r3, r3
 268 0184 03F00303 		and	r3, r3, #3
 269 0188 002B     		cmp	r3, #0
 270 018a 1FD0     		beq	.L22
 271 018c 022B     		cmp	r3, #2
 272 018e 00D0     		beq	.L23
 192:.\Generated_Source\PSoC5/USBUART_std.c ****                 {
 193:.\Generated_Source\PSoC5/USBUART_std.c ****                     case USBUART_RQST_RCPT_EP:
 194:.\Generated_Source\PSoC5/USBUART_std.c ****                         USBUART_currentTD.count = USBUART_EP_STATUS_LENGTH;
 195:.\Generated_Source\PSoC5/USBUART_std.c ****                         USBUART_tBuffer[0u] = USBUART_EP[ \
 196:.\Generated_Source\PSoC5/USBUART_std.c ****                                         CY_GET_REG8(USBUART_wIndexLo) & USBUART_DIR_UNUSED].hwEpSta
 197:.\Generated_Source\PSoC5/USBUART_std.c ****                         USBUART_tBuffer[1u] = 0u;
 198:.\Generated_Source\PSoC5/USBUART_std.c ****                         USBUART_currentTD.pData = &USBUART_tBuffer[0u];
 199:.\Generated_Source\PSoC5/USBUART_std.c ****                         requestHandled  = USBUART_InitControlRead();
 200:.\Generated_Source\PSoC5/USBUART_std.c ****                         break;
 201:.\Generated_Source\PSoC5/USBUART_std.c ****                     case USBUART_RQST_RCPT_DEV:
 202:.\Generated_Source\PSoC5/USBUART_std.c ****                         USBUART_currentTD.count = USBUART_DEVICE_STATUS_LENGTH;
 203:.\Generated_Source\PSoC5/USBUART_std.c ****                         USBUART_tBuffer[0u] = USBUART_deviceStatus;
 204:.\Generated_Source\PSoC5/USBUART_std.c ****                         USBUART_tBuffer[1u] = 0u;
 205:.\Generated_Source\PSoC5/USBUART_std.c ****                         USBUART_currentTD.pData = &USBUART_tBuffer[0u];
 206:.\Generated_Source\PSoC5/USBUART_std.c ****                         requestHandled  = USBUART_InitControlRead();
 207:.\Generated_Source\PSoC5/USBUART_std.c ****                         break;
 208:.\Generated_Source\PSoC5/USBUART_std.c ****                     default:    /* requestHandled is initialized as FALSE by default */
 209:.\Generated_Source\PSoC5/USBUART_std.c ****                         break;
 273              		.loc 1 209 0
 274 0190 2FE0     		b	.L24
 275              	.L23:
 194:.\Generated_Source\PSoC5/USBUART_std.c ****                         USBUART_currentTD.count = USBUART_EP_STATUS_LENGTH;
 276              		.loc 1 194 0
 277 0192 3C4B     		ldr	r3, .L60
 278 0194 0222     		movs	r2, #2
 279 0196 1A80     		strh	r2, [r3]	@ movhi
ARM GAS  C:\Users\VICTOR~1\AppData\Local\Temp\ccARlXCX.s 			page 10


 196:.\Generated_Source\PSoC5/USBUART_std.c ****                                         CY_GET_REG8(USBUART_wIndexLo) & USBUART_DIR_UNUSED].hwEpSta
 280              		.loc 1 196 0
 281 0198 434B     		ldr	r3, .L60+36
 282 019a 1B78     		ldrb	r3, [r3]
 283 019c DBB2     		uxtb	r3, r3
 284 019e 03F07F02 		and	r2, r3, #127
 285 01a2 4249     		ldr	r1, .L60+40
 286 01a4 1346     		mov	r3, r2
 287 01a6 5B00     		lsls	r3, r3, #1
 288 01a8 1344     		add	r3, r3, r2
 289 01aa 9B00     		lsls	r3, r3, #2
 290 01ac 0B44     		add	r3, r3, r1
 291 01ae 9B78     		ldrb	r3, [r3, #2]
 292 01b0 DAB2     		uxtb	r2, r3
 195:.\Generated_Source\PSoC5/USBUART_std.c ****                         USBUART_tBuffer[0u] = USBUART_EP[ \
 293              		.loc 1 195 0
 294 01b2 3F4B     		ldr	r3, .L60+44
 295 01b4 1A70     		strb	r2, [r3]
 197:.\Generated_Source\PSoC5/USBUART_std.c ****                         USBUART_tBuffer[1u] = 0u;
 296              		.loc 1 197 0
 297 01b6 3E4B     		ldr	r3, .L60+44
 298 01b8 0022     		movs	r2, #0
 299 01ba 5A70     		strb	r2, [r3, #1]
 198:.\Generated_Source\PSoC5/USBUART_std.c ****                         USBUART_currentTD.pData = &USBUART_tBuffer[0u];
 300              		.loc 1 198 0
 301 01bc 314B     		ldr	r3, .L60
 302 01be 3C4A     		ldr	r2, .L60+44
 303 01c0 5A60     		str	r2, [r3, #4]
 199:.\Generated_Source\PSoC5/USBUART_std.c ****                         requestHandled  = USBUART_InitControlRead();
 304              		.loc 1 199 0
 305 01c2 FFF7FEFF 		bl	USBUART_InitControlRead
 306 01c6 0346     		mov	r3, r0
 307 01c8 FB75     		strb	r3, [r7, #23]
 200:.\Generated_Source\PSoC5/USBUART_std.c ****                         break;
 308              		.loc 1 200 0
 309 01ca 12E0     		b	.L24
 310              	.L22:
 202:.\Generated_Source\PSoC5/USBUART_std.c ****                         USBUART_currentTD.count = USBUART_DEVICE_STATUS_LENGTH;
 311              		.loc 1 202 0
 312 01cc 2D4B     		ldr	r3, .L60
 313 01ce 0222     		movs	r2, #2
 314 01d0 1A80     		strh	r2, [r3]	@ movhi
 203:.\Generated_Source\PSoC5/USBUART_std.c ****                         USBUART_tBuffer[0u] = USBUART_deviceStatus;
 315              		.loc 1 203 0
 316 01d2 384B     		ldr	r3, .L60+48
 317 01d4 1B78     		ldrb	r3, [r3]
 318 01d6 DAB2     		uxtb	r2, r3
 319 01d8 354B     		ldr	r3, .L60+44
 320 01da 1A70     		strb	r2, [r3]
 204:.\Generated_Source\PSoC5/USBUART_std.c ****                         USBUART_tBuffer[1u] = 0u;
 321              		.loc 1 204 0
 322 01dc 344B     		ldr	r3, .L60+44
 323 01de 0022     		movs	r2, #0
 324 01e0 5A70     		strb	r2, [r3, #1]
 205:.\Generated_Source\PSoC5/USBUART_std.c ****                         USBUART_currentTD.pData = &USBUART_tBuffer[0u];
 325              		.loc 1 205 0
 326 01e2 284B     		ldr	r3, .L60
ARM GAS  C:\Users\VICTOR~1\AppData\Local\Temp\ccARlXCX.s 			page 11


 327 01e4 324A     		ldr	r2, .L60+44
 328 01e6 5A60     		str	r2, [r3, #4]
 206:.\Generated_Source\PSoC5/USBUART_std.c ****                         requestHandled  = USBUART_InitControlRead();
 329              		.loc 1 206 0
 330 01e8 FFF7FEFF 		bl	USBUART_InitControlRead
 331 01ec 0346     		mov	r3, r0
 332 01ee FB75     		strb	r3, [r7, #23]
 207:.\Generated_Source\PSoC5/USBUART_std.c ****                         break;
 333              		.loc 1 207 0
 334 01f0 00BF     		nop
 335              	.L24:
 210:.\Generated_Source\PSoC5/USBUART_std.c ****                 }
 211:.\Generated_Source\PSoC5/USBUART_std.c ****                 break;
 336              		.loc 1 211 0
 337 01f2 1BE0     		b	.L20
 338              	.L7:
 212:.\Generated_Source\PSoC5/USBUART_std.c ****             case USBUART_GET_CONFIGURATION:
 213:.\Generated_Source\PSoC5/USBUART_std.c ****                 USBUART_currentTD.count = 1u;
 339              		.loc 1 213 0
 340 01f4 234B     		ldr	r3, .L60
 341 01f6 0122     		movs	r2, #1
 342 01f8 1A80     		strh	r2, [r3]	@ movhi
 214:.\Generated_Source\PSoC5/USBUART_std.c ****                 USBUART_currentTD.pData = (volatile uint8 *)&USBUART_configuration;
 343              		.loc 1 214 0
 344 01fa 224B     		ldr	r3, .L60
 345 01fc 2E4A     		ldr	r2, .L60+52
 346 01fe 5A60     		str	r2, [r3, #4]
 215:.\Generated_Source\PSoC5/USBUART_std.c ****                 requestHandled  = USBUART_InitControlRead();
 347              		.loc 1 215 0
 348 0200 FFF7FEFF 		bl	USBUART_InitControlRead
 349 0204 0346     		mov	r3, r0
 350 0206 FB75     		strb	r3, [r7, #23]
 216:.\Generated_Source\PSoC5/USBUART_std.c ****                 break;
 351              		.loc 1 216 0
 352 0208 10E0     		b	.L20
 353              	.L8:
 217:.\Generated_Source\PSoC5/USBUART_std.c ****             case USBUART_GET_INTERFACE:
 218:.\Generated_Source\PSoC5/USBUART_std.c ****                 USBUART_currentTD.count = 1u;
 354              		.loc 1 218 0
 355 020a 1E4B     		ldr	r3, .L60
 356 020c 0122     		movs	r2, #1
 357 020e 1A80     		strh	r2, [r3]	@ movhi
 219:.\Generated_Source\PSoC5/USBUART_std.c ****                 USBUART_currentTD.pData = (volatile uint8 *)&USBUART_interfaceSetting[ \
 220:.\Generated_Source\PSoC5/USBUART_std.c ****                                                                             CY_GET_REG8(USBUART_wIn
 358              		.loc 1 220 0
 359 0210 254B     		ldr	r3, .L60+36
 360 0212 1B78     		ldrb	r3, [r3]
 361 0214 DBB2     		uxtb	r3, r3
 219:.\Generated_Source\PSoC5/USBUART_std.c ****                 USBUART_currentTD.pData = (volatile uint8 *)&USBUART_interfaceSetting[ \
 362              		.loc 1 219 0
 363 0216 1A46     		mov	r2, r3
 364 0218 284B     		ldr	r3, .L60+56
 365 021a 1A44     		add	r2, r2, r3
 366 021c 194B     		ldr	r3, .L60
 367 021e 5A60     		str	r2, [r3, #4]
 221:.\Generated_Source\PSoC5/USBUART_std.c ****                 requestHandled  = USBUART_InitControlRead();
 368              		.loc 1 221 0
ARM GAS  C:\Users\VICTOR~1\AppData\Local\Temp\ccARlXCX.s 			page 12


 369 0220 FFF7FEFF 		bl	USBUART_InitControlRead
 370 0224 0346     		mov	r3, r0
 371 0226 FB75     		strb	r3, [r7, #23]
 222:.\Generated_Source\PSoC5/USBUART_std.c ****                 break;
 372              		.loc 1 222 0
 373 0228 00E0     		b	.L20
 374              	.L56:
 223:.\Generated_Source\PSoC5/USBUART_std.c ****             default: /* requestHandled is initialized as FALSE by default */
 224:.\Generated_Source\PSoC5/USBUART_std.c ****                 break;
 375              		.loc 1 224 0
 376 022a 00BF     		nop
 377              	.L20:
 378 022c 1FE1     		b	.L25
 379              	.L2:
 225:.\Generated_Source\PSoC5/USBUART_std.c ****         }
 226:.\Generated_Source\PSoC5/USBUART_std.c ****     }
 227:.\Generated_Source\PSoC5/USBUART_std.c ****     else {
 228:.\Generated_Source\PSoC5/USBUART_std.c ****         /* Control Write */
 229:.\Generated_Source\PSoC5/USBUART_std.c ****         switch (CY_GET_REG8(USBUART_bRequest))
 380              		.loc 1 229 0
 381 022e 174B     		ldr	r3, .L60+8
 382 0230 1B78     		ldrb	r3, [r3]
 383 0232 DBB2     		uxtb	r3, r3
 384 0234 013B     		subs	r3, r3, #1
 385 0236 0A2B     		cmp	r3, #10
 386 0238 00F21881 		bhi	.L57
 387 023c 01A2     		adr	r2, .L28
 388 023e 52F823F0 		ldr	pc, [r2, r3, lsl #2]
 389 0242 00BF     		.p2align 2
 390              	.L28:
 391 0244 55030000 		.word	.L27+1
 392 0248 6D040000 		.word	.L57+1
 393 024c E1030000 		.word	.L29+1
 394 0250 6D040000 		.word	.L57+1
 395 0254 71020000 		.word	.L30+1
 396 0258 6D040000 		.word	.L57+1
 397 025c 6D040000 		.word	.L57+1
 398 0260 6D040000 		.word	.L57+1
 399 0264 C5020000 		.word	.L31+1
 400 0268 6D040000 		.word	.L57+1
 401 026c 1B030000 		.word	.L32+1
 402              		.p2align 1
 403              	.L30:
 230:.\Generated_Source\PSoC5/USBUART_std.c ****         {
 231:.\Generated_Source\PSoC5/USBUART_std.c ****             case USBUART_SET_ADDRESS:
 232:.\Generated_Source\PSoC5/USBUART_std.c ****                 USBUART_deviceAddress = CY_GET_REG8(USBUART_wValueLo);
 404              		.loc 1 232 0
 405 0270 084B     		ldr	r3, .L60+16
 406 0272 1B78     		ldrb	r3, [r3]
 407 0274 DAB2     		uxtb	r2, r3
 408 0276 124B     		ldr	r3, .L60+60
 409 0278 1A70     		strb	r2, [r3]
 233:.\Generated_Source\PSoC5/USBUART_std.c ****                 requestHandled = USBUART_InitNoDataControlTransfer();
 410              		.loc 1 233 0
 411 027a FFF7FEFF 		bl	USBUART_InitNoDataControlTransfer
 412 027e 0346     		mov	r3, r0
 413 0280 FB75     		strb	r3, [r7, #23]
ARM GAS  C:\Users\VICTOR~1\AppData\Local\Temp\ccARlXCX.s 			page 13


 234:.\Generated_Source\PSoC5/USBUART_std.c ****                 break;
 414              		.loc 1 234 0
 415 0282 F4E0     		b	.L25
 416              	.L61:
 417              		.align	2
 418              	.L60:
 419 0284 00000000 		.word	USBUART_currentTD
 420 0288 00600040 		.word	1073766400
 421 028c 01600040 		.word	1073766401
 422 0290 03600040 		.word	1073766403
 423 0294 02600040 		.word	1073766402
 424 0298 00000000 		.word	USBUART_STRING_DESCRIPTORS
 425 029c 00000000 		.word	USBUART_MSOS_DESCRIPTOR
 426 02a0 00000000 		.word	USBUART_DEVICE0_DESCR
 427 02a4 00000000 		.word	USBUART_idSerialNumberStringDescriptor
 428 02a8 04600040 		.word	1073766404
 429 02ac 00000000 		.word	USBUART_EP
 430 02b0 00000000 		.word	USBUART_tBuffer.5007
 431 02b4 00000000 		.word	USBUART_deviceStatus
 432 02b8 00000000 		.word	USBUART_configuration
 433 02bc 00000000 		.word	USBUART_interfaceSetting
 434 02c0 00000000 		.word	USBUART_deviceAddress
 435              	.L31:
 235:.\Generated_Source\PSoC5/USBUART_std.c ****             case USBUART_SET_CONFIGURATION:
 236:.\Generated_Source\PSoC5/USBUART_std.c ****                 configurationN = CY_GET_REG8(USBUART_wValueLo);
 436              		.loc 1 236 0
 437 02c4 6C4B     		ldr	r3, .L62
 438 02c6 1B78     		ldrb	r3, [r3]
 439 02c8 BB71     		strb	r3, [r7, #6]
 237:.\Generated_Source\PSoC5/USBUART_std.c ****                 if(configurationN > 0)
 440              		.loc 1 237 0
 441 02ca BB79     		ldrb	r3, [r7, #6]	@ zero_extendqisi2
 442 02cc 002B     		cmp	r3, #0
 443 02ce 06D0     		beq	.L33
 238:.\Generated_Source\PSoC5/USBUART_std.c ****                 {   /* Verify that configuration descriptor exists */
 239:.\Generated_Source\PSoC5/USBUART_std.c ****                     pTmp = USBUART_GetConfigTablePtr(configurationN - 1u);
 444              		.loc 1 239 0
 445 02d0 BB79     		ldrb	r3, [r7, #6]
 446 02d2 013B     		subs	r3, r3, #1
 447 02d4 DBB2     		uxtb	r3, r3
 448 02d6 1846     		mov	r0, r3
 449 02d8 FFF7FEFF 		bl	USBUART_GetConfigTablePtr
 450 02dc B860     		str	r0, [r7, #8]
 451              	.L33:
 240:.\Generated_Source\PSoC5/USBUART_std.c ****                 }
 241:.\Generated_Source\PSoC5/USBUART_std.c ****                 /* Responds with a Request Error when configuration number is invalid */
 242:.\Generated_Source\PSoC5/USBUART_std.c ****                 if (((configurationN > 0) && (pTmp != NULL)) || (configurationN == 0u))
 452              		.loc 1 242 0
 453 02de BB79     		ldrb	r3, [r7, #6]	@ zero_extendqisi2
 454 02e0 002B     		cmp	r3, #0
 455 02e2 02D0     		beq	.L34
 456              		.loc 1 242 0 is_stmt 0 discriminator 1
 457 02e4 BB68     		ldr	r3, [r7, #8]
 458 02e6 002B     		cmp	r3, #0
 459 02e8 02D1     		bne	.L35
 460              	.L34:
 461              		.loc 1 242 0 discriminator 2
ARM GAS  C:\Users\VICTOR~1\AppData\Local\Temp\ccARlXCX.s 			page 14


 462 02ea BB79     		ldrb	r3, [r7, #6]	@ zero_extendqisi2
 463 02ec 002B     		cmp	r3, #0
 464 02ee 13D1     		bne	.L36
 465              	.L35:
 243:.\Generated_Source\PSoC5/USBUART_std.c ****                 {
 244:.\Generated_Source\PSoC5/USBUART_std.c ****                     /* Set new configuration if it has been changed */
 245:.\Generated_Source\PSoC5/USBUART_std.c ****                     if(configurationN != USBUART_configuration)        
 466              		.loc 1 245 0 is_stmt 1
 467 02f0 624B     		ldr	r3, .L62+4
 468 02f2 1B78     		ldrb	r3, [r3]
 469 02f4 DBB2     		uxtb	r3, r3
 470 02f6 BA79     		ldrb	r2, [r7, #6]	@ zero_extendqisi2
 471 02f8 9A42     		cmp	r2, r3
 472 02fa 08D0     		beq	.L37
 246:.\Generated_Source\PSoC5/USBUART_std.c ****                     {
 247:.\Generated_Source\PSoC5/USBUART_std.c ****                         USBUART_configuration = configurationN;
 473              		.loc 1 247 0
 474 02fc 5F4B     		ldr	r3, .L62+4
 475 02fe BA79     		ldrb	r2, [r7, #6]
 476 0300 1A70     		strb	r2, [r3]
 248:.\Generated_Source\PSoC5/USBUART_std.c ****                         USBUART_configurationChanged = USBUART_TRUE;
 477              		.loc 1 248 0
 478 0302 5F4B     		ldr	r3, .L62+8
 479 0304 0122     		movs	r2, #1
 480 0306 1A70     		strb	r2, [r3]
 249:.\Generated_Source\PSoC5/USBUART_std.c ****                         USBUART_Config(USBUART_TRUE);
 481              		.loc 1 249 0
 482 0308 0120     		movs	r0, #1
 483 030a FFF7FEFF 		bl	USBUART_Config
 484              	.L37:
 250:.\Generated_Source\PSoC5/USBUART_std.c ****                     }
 251:.\Generated_Source\PSoC5/USBUART_std.c ****                     requestHandled = USBUART_InitNoDataControlTransfer();
 485              		.loc 1 251 0
 486 030e FFF7FEFF 		bl	USBUART_InitNoDataControlTransfer
 487 0312 0346     		mov	r3, r0
 488 0314 FB75     		strb	r3, [r7, #23]
 252:.\Generated_Source\PSoC5/USBUART_std.c ****                 }
 253:.\Generated_Source\PSoC5/USBUART_std.c ****                 break;
 489              		.loc 1 253 0
 490 0316 AAE0     		b	.L25
 491              	.L36:
 492 0318 A9E0     		b	.L25
 493              	.L32:
 254:.\Generated_Source\PSoC5/USBUART_std.c ****             case USBUART_SET_INTERFACE:
 255:.\Generated_Source\PSoC5/USBUART_std.c ****                 if (USBUART_ValidateAlternateSetting() != 0u)
 494              		.loc 1 255 0
 495 031a FFF7FEFF 		bl	USBUART_ValidateAlternateSetting
 496 031e 0346     		mov	r3, r0
 497 0320 002B     		cmp	r3, #0
 498 0322 16D0     		beq	.L38
 256:.\Generated_Source\PSoC5/USBUART_std.c ****                 {
 257:.\Generated_Source\PSoC5/USBUART_std.c ****                     interfaceNumber = CY_GET_REG8(USBUART_wIndexLo);
 499              		.loc 1 257 0
 500 0324 574B     		ldr	r3, .L62+12
 501 0326 1B78     		ldrb	r3, [r3]
 502 0328 7B71     		strb	r3, [r7, #5]
 258:.\Generated_Source\PSoC5/USBUART_std.c ****                     USBUART_interfaceNumber = interfaceNumber;
ARM GAS  C:\Users\VICTOR~1\AppData\Local\Temp\ccARlXCX.s 			page 15


 503              		.loc 1 258 0
 504 032a 574B     		ldr	r3, .L62+16
 505 032c 7A79     		ldrb	r2, [r7, #5]
 506 032e 1A70     		strb	r2, [r3]
 259:.\Generated_Source\PSoC5/USBUART_std.c ****                     USBUART_configurationChanged = USBUART_TRUE;
 507              		.loc 1 259 0
 508 0330 534B     		ldr	r3, .L62+8
 509 0332 0122     		movs	r2, #1
 510 0334 1A70     		strb	r2, [r3]
 260:.\Generated_Source\PSoC5/USBUART_std.c ****                     #if ((USBUART_EP_MA == USBUART__MA_DYNAMIC) && \
 261:.\Generated_Source\PSoC5/USBUART_std.c ****                          (USBUART_EP_MM == USBUART__EP_MANUAL) )
 262:.\Generated_Source\PSoC5/USBUART_std.c ****                         USBUART_Config(USBUART_FALSE);
 263:.\Generated_Source\PSoC5/USBUART_std.c ****                     #else
 264:.\Generated_Source\PSoC5/USBUART_std.c ****                         USBUART_ConfigAltChanged();
 511              		.loc 1 264 0
 512 0336 FFF7FEFF 		bl	USBUART_ConfigAltChanged
 265:.\Generated_Source\PSoC5/USBUART_std.c ****                     #endif /*  (USBUART_EP_MA == USBUART__MA_DYNAMIC) */
 266:.\Generated_Source\PSoC5/USBUART_std.c ****                     /* Update handled Alt setting changes status */
 267:.\Generated_Source\PSoC5/USBUART_std.c ****                     USBUART_interfaceSetting_last[interfaceNumber] =
 513              		.loc 1 267 0
 514 033a 7B79     		ldrb	r3, [r7, #5]	@ zero_extendqisi2
 268:.\Generated_Source\PSoC5/USBUART_std.c ****                          USBUART_interfaceSetting[interfaceNumber];
 515              		.loc 1 268 0
 516 033c 7A79     		ldrb	r2, [r7, #5]	@ zero_extendqisi2
 517 033e 5349     		ldr	r1, .L62+20
 518 0340 8A5C     		ldrb	r2, [r1, r2]
 519 0342 D1B2     		uxtb	r1, r2
 267:.\Generated_Source\PSoC5/USBUART_std.c ****                     USBUART_interfaceSetting_last[interfaceNumber] =
 520              		.loc 1 267 0
 521 0344 524A     		ldr	r2, .L62+24
 522 0346 D154     		strb	r1, [r2, r3]
 269:.\Generated_Source\PSoC5/USBUART_std.c ****                     requestHandled = USBUART_InitNoDataControlTransfer();
 523              		.loc 1 269 0
 524 0348 FFF7FEFF 		bl	USBUART_InitNoDataControlTransfer
 525 034c 0346     		mov	r3, r0
 526 034e FB75     		strb	r3, [r7, #23]
 270:.\Generated_Source\PSoC5/USBUART_std.c ****                 }
 271:.\Generated_Source\PSoC5/USBUART_std.c ****                 break;
 527              		.loc 1 271 0
 528 0350 8DE0     		b	.L25
 529              	.L38:
 530 0352 8CE0     		b	.L25
 531              	.L27:
 272:.\Generated_Source\PSoC5/USBUART_std.c ****             case USBUART_CLEAR_FEATURE:
 273:.\Generated_Source\PSoC5/USBUART_std.c ****                 switch (CY_GET_REG8(USBUART_bmRequestType) & USBUART_RQST_RCPT_MASK)
 532              		.loc 1 273 0
 533 0354 4F4B     		ldr	r3, .L62+28
 534 0356 1B78     		ldrb	r3, [r3]
 535 0358 DBB2     		uxtb	r3, r3
 536 035a 03F00303 		and	r3, r3, #3
 537 035e 012B     		cmp	r3, #1
 538 0360 22D0     		beq	.L40
 539 0362 012B     		cmp	r3, #1
 540 0364 0DD3     		bcc	.L41
 541 0366 022B     		cmp	r3, #2
 542 0368 00D0     		beq	.L42
 274:.\Generated_Source\PSoC5/USBUART_std.c ****                 {
ARM GAS  C:\Users\VICTOR~1\AppData\Local\Temp\ccARlXCX.s 			page 16


 275:.\Generated_Source\PSoC5/USBUART_std.c ****                     case USBUART_RQST_RCPT_EP:
 276:.\Generated_Source\PSoC5/USBUART_std.c ****                         if (CY_GET_REG8(USBUART_wValueLo) == USBUART_ENDPOINT_HALT)
 277:.\Generated_Source\PSoC5/USBUART_std.c ****                         {
 278:.\Generated_Source\PSoC5/USBUART_std.c ****                             requestHandled = USBUART_ClearEndpointHalt();
 279:.\Generated_Source\PSoC5/USBUART_std.c ****                         }
 280:.\Generated_Source\PSoC5/USBUART_std.c ****                         break;
 281:.\Generated_Source\PSoC5/USBUART_std.c ****                     case USBUART_RQST_RCPT_DEV:
 282:.\Generated_Source\PSoC5/USBUART_std.c ****                         /* Clear device REMOTE_WAKEUP */
 283:.\Generated_Source\PSoC5/USBUART_std.c ****                         if (CY_GET_REG8(USBUART_wValueLo) == USBUART_DEVICE_REMOTE_WAKEUP)
 284:.\Generated_Source\PSoC5/USBUART_std.c ****                         {
 285:.\Generated_Source\PSoC5/USBUART_std.c ****                             USBUART_deviceStatus &= (uint8)~USBUART_DEVICE_STATUS_REMOTE_WAKEUP;
 286:.\Generated_Source\PSoC5/USBUART_std.c ****                             requestHandled = USBUART_InitNoDataControlTransfer();
 287:.\Generated_Source\PSoC5/USBUART_std.c ****                         }
 288:.\Generated_Source\PSoC5/USBUART_std.c ****                         break;
 289:.\Generated_Source\PSoC5/USBUART_std.c ****                     case USBUART_RQST_RCPT_IFC:
 290:.\Generated_Source\PSoC5/USBUART_std.c ****                         /* Validate interfaceNumber */
 291:.\Generated_Source\PSoC5/USBUART_std.c ****                         if (CY_GET_REG8(USBUART_wIndexLo) < USBUART_MAX_INTERFACES_NUMBER)
 292:.\Generated_Source\PSoC5/USBUART_std.c ****                         {
 293:.\Generated_Source\PSoC5/USBUART_std.c ****                             USBUART_interfaceStatus[CY_GET_REG8(USBUART_wIndexLo)] &=
 294:.\Generated_Source\PSoC5/USBUART_std.c ****                                                                 (uint8)~(CY_GET_REG8(USBUART_wValue
 295:.\Generated_Source\PSoC5/USBUART_std.c ****                             requestHandled = USBUART_InitNoDataControlTransfer();
 296:.\Generated_Source\PSoC5/USBUART_std.c ****                         }
 297:.\Generated_Source\PSoC5/USBUART_std.c ****                         break;
 298:.\Generated_Source\PSoC5/USBUART_std.c ****                     default:    /* requestHandled is initialized as FALSE by default */
 299:.\Generated_Source\PSoC5/USBUART_std.c ****                         break;
 543              		.loc 1 299 0
 544 036a 38E0     		b	.L44
 545              	.L42:
 276:.\Generated_Source\PSoC5/USBUART_std.c ****                         if (CY_GET_REG8(USBUART_wValueLo) == USBUART_ENDPOINT_HALT)
 546              		.loc 1 276 0
 547 036c 424B     		ldr	r3, .L62
 548 036e 1B78     		ldrb	r3, [r3]
 549 0370 DBB2     		uxtb	r3, r3
 550 0372 002B     		cmp	r3, #0
 551 0374 04D1     		bne	.L43
 278:.\Generated_Source\PSoC5/USBUART_std.c ****                             requestHandled = USBUART_ClearEndpointHalt();
 552              		.loc 1 278 0
 553 0376 FFF7FEFF 		bl	USBUART_ClearEndpointHalt
 554 037a 0346     		mov	r3, r0
 555 037c FB75     		strb	r3, [r7, #23]
 280:.\Generated_Source\PSoC5/USBUART_std.c ****                         break;
 556              		.loc 1 280 0
 557 037e 2EE0     		b	.L44
 558              	.L43:
 559 0380 2DE0     		b	.L44
 560              	.L41:
 283:.\Generated_Source\PSoC5/USBUART_std.c ****                         if (CY_GET_REG8(USBUART_wValueLo) == USBUART_DEVICE_REMOTE_WAKEUP)
 561              		.loc 1 283 0
 562 0382 3D4B     		ldr	r3, .L62
 563 0384 1B78     		ldrb	r3, [r3]
 564 0386 DBB2     		uxtb	r3, r3
 565 0388 012B     		cmp	r3, #1
 566 038a 0CD1     		bne	.L45
 285:.\Generated_Source\PSoC5/USBUART_std.c ****                             USBUART_deviceStatus &= (uint8)~USBUART_DEVICE_STATUS_REMOTE_WAKEUP;
 567              		.loc 1 285 0
 568 038c 424B     		ldr	r3, .L62+32
 569 038e 1B78     		ldrb	r3, [r3]
ARM GAS  C:\Users\VICTOR~1\AppData\Local\Temp\ccARlXCX.s 			page 17


 570 0390 DBB2     		uxtb	r3, r3
 571 0392 23F00203 		bic	r3, r3, #2
 572 0396 DAB2     		uxtb	r2, r3
 573 0398 3F4B     		ldr	r3, .L62+32
 574 039a 1A70     		strb	r2, [r3]
 286:.\Generated_Source\PSoC5/USBUART_std.c ****                             requestHandled = USBUART_InitNoDataControlTransfer();
 575              		.loc 1 286 0
 576 039c FFF7FEFF 		bl	USBUART_InitNoDataControlTransfer
 577 03a0 0346     		mov	r3, r0
 578 03a2 FB75     		strb	r3, [r7, #23]
 288:.\Generated_Source\PSoC5/USBUART_std.c ****                         break;
 579              		.loc 1 288 0
 580 03a4 1BE0     		b	.L44
 581              	.L45:
 582 03a6 1AE0     		b	.L44
 583              	.L40:
 291:.\Generated_Source\PSoC5/USBUART_std.c ****                         if (CY_GET_REG8(USBUART_wIndexLo) < USBUART_MAX_INTERFACES_NUMBER)
 584              		.loc 1 291 0
 585 03a8 364B     		ldr	r3, .L62+12
 586 03aa 1B78     		ldrb	r3, [r3]
 587 03ac DBB2     		uxtb	r3, r3
 588 03ae 012B     		cmp	r3, #1
 589 03b0 14D8     		bhi	.L46
 293:.\Generated_Source\PSoC5/USBUART_std.c ****                             USBUART_interfaceStatus[CY_GET_REG8(USBUART_wIndexLo)] &=
 590              		.loc 1 293 0
 591 03b2 344B     		ldr	r3, .L62+12
 592 03b4 1B78     		ldrb	r3, [r3]
 593 03b6 DBB2     		uxtb	r3, r3
 594 03b8 1A46     		mov	r2, r3
 595 03ba 3849     		ldr	r1, .L62+36
 596 03bc CB5C     		ldrb	r3, [r1, r3]
 597 03be D9B2     		uxtb	r1, r3
 294:.\Generated_Source\PSoC5/USBUART_std.c ****                                                                 (uint8)~(CY_GET_REG8(USBUART_wValue
 598              		.loc 1 294 0
 599 03c0 2D4B     		ldr	r3, .L62
 600 03c2 1B78     		ldrb	r3, [r3]
 601 03c4 DBB2     		uxtb	r3, r3
 602 03c6 DB43     		mvns	r3, r3
 603 03c8 DBB2     		uxtb	r3, r3
 293:.\Generated_Source\PSoC5/USBUART_std.c ****                             USBUART_interfaceStatus[CY_GET_REG8(USBUART_wIndexLo)] &=
 604              		.loc 1 293 0
 605 03ca 0B40     		ands	r3, r3, r1
 606 03cc D9B2     		uxtb	r1, r3
 607 03ce 334B     		ldr	r3, .L62+36
 608 03d0 9954     		strb	r1, [r3, r2]
 295:.\Generated_Source\PSoC5/USBUART_std.c ****                             requestHandled = USBUART_InitNoDataControlTransfer();
 609              		.loc 1 295 0
 610 03d2 FFF7FEFF 		bl	USBUART_InitNoDataControlTransfer
 611 03d6 0346     		mov	r3, r0
 612 03d8 FB75     		strb	r3, [r7, #23]
 297:.\Generated_Source\PSoC5/USBUART_std.c ****                         break;
 613              		.loc 1 297 0
 614 03da FFE7     		b	.L58
 615              	.L46:
 616              	.L58:
 617 03dc 00BF     		nop
 618              	.L44:
ARM GAS  C:\Users\VICTOR~1\AppData\Local\Temp\ccARlXCX.s 			page 18


 300:.\Generated_Source\PSoC5/USBUART_std.c ****                 }
 301:.\Generated_Source\PSoC5/USBUART_std.c ****                 break;
 619              		.loc 1 301 0
 620 03de 46E0     		b	.L25
 621              	.L29:
 302:.\Generated_Source\PSoC5/USBUART_std.c ****             case USBUART_SET_FEATURE:
 303:.\Generated_Source\PSoC5/USBUART_std.c ****                 switch (CY_GET_REG8(USBUART_bmRequestType) & USBUART_RQST_RCPT_MASK)
 622              		.loc 1 303 0
 623 03e0 2C4B     		ldr	r3, .L62+28
 624 03e2 1B78     		ldrb	r3, [r3]
 625 03e4 DBB2     		uxtb	r3, r3
 626 03e6 03F00303 		and	r3, r3, #3
 627 03ea 012B     		cmp	r3, #1
 628 03ec 22D0     		beq	.L48
 629 03ee 012B     		cmp	r3, #1
 630 03f0 0DD3     		bcc	.L49
 631 03f2 022B     		cmp	r3, #2
 632 03f4 00D0     		beq	.L50
 304:.\Generated_Source\PSoC5/USBUART_std.c ****                 {
 305:.\Generated_Source\PSoC5/USBUART_std.c ****                     case USBUART_RQST_RCPT_EP:
 306:.\Generated_Source\PSoC5/USBUART_std.c ****                         if (CY_GET_REG8(USBUART_wValueLo) == USBUART_ENDPOINT_HALT)
 307:.\Generated_Source\PSoC5/USBUART_std.c ****                         {
 308:.\Generated_Source\PSoC5/USBUART_std.c ****                             requestHandled = USBUART_SetEndpointHalt();
 309:.\Generated_Source\PSoC5/USBUART_std.c ****                         }
 310:.\Generated_Source\PSoC5/USBUART_std.c ****                         break;
 311:.\Generated_Source\PSoC5/USBUART_std.c ****                     case USBUART_RQST_RCPT_DEV:
 312:.\Generated_Source\PSoC5/USBUART_std.c ****                         /* Set device REMOTE_WAKEUP */
 313:.\Generated_Source\PSoC5/USBUART_std.c ****                         if (CY_GET_REG8(USBUART_wValueLo) == USBUART_DEVICE_REMOTE_WAKEUP)
 314:.\Generated_Source\PSoC5/USBUART_std.c ****                         {
 315:.\Generated_Source\PSoC5/USBUART_std.c ****                             USBUART_deviceStatus |= USBUART_DEVICE_STATUS_REMOTE_WAKEUP;
 316:.\Generated_Source\PSoC5/USBUART_std.c ****                             requestHandled = USBUART_InitNoDataControlTransfer();
 317:.\Generated_Source\PSoC5/USBUART_std.c ****                         }
 318:.\Generated_Source\PSoC5/USBUART_std.c ****                         break;
 319:.\Generated_Source\PSoC5/USBUART_std.c ****                     case USBUART_RQST_RCPT_IFC:
 320:.\Generated_Source\PSoC5/USBUART_std.c ****                         /* Validate interfaceNumber */
 321:.\Generated_Source\PSoC5/USBUART_std.c ****                         if (CY_GET_REG8(USBUART_wIndexLo) < USBUART_MAX_INTERFACES_NUMBER)
 322:.\Generated_Source\PSoC5/USBUART_std.c ****                         {
 323:.\Generated_Source\PSoC5/USBUART_std.c ****                             USBUART_interfaceStatus[CY_GET_REG8(USBUART_wIndexLo)] &=
 324:.\Generated_Source\PSoC5/USBUART_std.c ****                                                                 (uint8)~(CY_GET_REG8(USBUART_wValue
 325:.\Generated_Source\PSoC5/USBUART_std.c ****                             requestHandled = USBUART_InitNoDataControlTransfer();
 326:.\Generated_Source\PSoC5/USBUART_std.c ****                         }
 327:.\Generated_Source\PSoC5/USBUART_std.c ****                         break;
 328:.\Generated_Source\PSoC5/USBUART_std.c ****                     default:    /* requestHandled is initialized as FALSE by default */
 329:.\Generated_Source\PSoC5/USBUART_std.c ****                         break;
 633              		.loc 1 329 0
 634 03f6 38E0     		b	.L52
 635              	.L50:
 306:.\Generated_Source\PSoC5/USBUART_std.c ****                         if (CY_GET_REG8(USBUART_wValueLo) == USBUART_ENDPOINT_HALT)
 636              		.loc 1 306 0
 637 03f8 1F4B     		ldr	r3, .L62
 638 03fa 1B78     		ldrb	r3, [r3]
 639 03fc DBB2     		uxtb	r3, r3
 640 03fe 002B     		cmp	r3, #0
 641 0400 04D1     		bne	.L51
 308:.\Generated_Source\PSoC5/USBUART_std.c ****                             requestHandled = USBUART_SetEndpointHalt();
 642              		.loc 1 308 0
 643 0402 FFF7FEFF 		bl	USBUART_SetEndpointHalt
ARM GAS  C:\Users\VICTOR~1\AppData\Local\Temp\ccARlXCX.s 			page 19


 644 0406 0346     		mov	r3, r0
 645 0408 FB75     		strb	r3, [r7, #23]
 310:.\Generated_Source\PSoC5/USBUART_std.c ****                         break;
 646              		.loc 1 310 0
 647 040a 2EE0     		b	.L52
 648              	.L51:
 649 040c 2DE0     		b	.L52
 650              	.L49:
 313:.\Generated_Source\PSoC5/USBUART_std.c ****                         if (CY_GET_REG8(USBUART_wValueLo) == USBUART_DEVICE_REMOTE_WAKEUP)
 651              		.loc 1 313 0
 652 040e 1A4B     		ldr	r3, .L62
 653 0410 1B78     		ldrb	r3, [r3]
 654 0412 DBB2     		uxtb	r3, r3
 655 0414 012B     		cmp	r3, #1
 656 0416 0CD1     		bne	.L53
 315:.\Generated_Source\PSoC5/USBUART_std.c ****                             USBUART_deviceStatus |= USBUART_DEVICE_STATUS_REMOTE_WAKEUP;
 657              		.loc 1 315 0
 658 0418 1F4B     		ldr	r3, .L62+32
 659 041a 1B78     		ldrb	r3, [r3]
 660 041c DBB2     		uxtb	r3, r3
 661 041e 43F00203 		orr	r3, r3, #2
 662 0422 DAB2     		uxtb	r2, r3
 663 0424 1C4B     		ldr	r3, .L62+32
 664 0426 1A70     		strb	r2, [r3]
 316:.\Generated_Source\PSoC5/USBUART_std.c ****                             requestHandled = USBUART_InitNoDataControlTransfer();
 665              		.loc 1 316 0
 666 0428 FFF7FEFF 		bl	USBUART_InitNoDataControlTransfer
 667 042c 0346     		mov	r3, r0
 668 042e FB75     		strb	r3, [r7, #23]
 318:.\Generated_Source\PSoC5/USBUART_std.c ****                         break;
 669              		.loc 1 318 0
 670 0430 1BE0     		b	.L52
 671              	.L53:
 672 0432 1AE0     		b	.L52
 673              	.L48:
 321:.\Generated_Source\PSoC5/USBUART_std.c ****                         if (CY_GET_REG8(USBUART_wIndexLo) < USBUART_MAX_INTERFACES_NUMBER)
 674              		.loc 1 321 0
 675 0434 134B     		ldr	r3, .L62+12
 676 0436 1B78     		ldrb	r3, [r3]
 677 0438 DBB2     		uxtb	r3, r3
 678 043a 012B     		cmp	r3, #1
 679 043c 14D8     		bhi	.L54
 323:.\Generated_Source\PSoC5/USBUART_std.c ****                             USBUART_interfaceStatus[CY_GET_REG8(USBUART_wIndexLo)] &=
 680              		.loc 1 323 0
 681 043e 114B     		ldr	r3, .L62+12
 682 0440 1B78     		ldrb	r3, [r3]
 683 0442 DBB2     		uxtb	r3, r3
 684 0444 1A46     		mov	r2, r3
 685 0446 1549     		ldr	r1, .L62+36
 686 0448 CB5C     		ldrb	r3, [r1, r3]
 687 044a D9B2     		uxtb	r1, r3
 324:.\Generated_Source\PSoC5/USBUART_std.c ****                                                                 (uint8)~(CY_GET_REG8(USBUART_wValue
 688              		.loc 1 324 0
 689 044c 0A4B     		ldr	r3, .L62
 690 044e 1B78     		ldrb	r3, [r3]
 691 0450 DBB2     		uxtb	r3, r3
 692 0452 DB43     		mvns	r3, r3
ARM GAS  C:\Users\VICTOR~1\AppData\Local\Temp\ccARlXCX.s 			page 20


 693 0454 DBB2     		uxtb	r3, r3
 323:.\Generated_Source\PSoC5/USBUART_std.c ****                             USBUART_interfaceStatus[CY_GET_REG8(USBUART_wIndexLo)] &=
 694              		.loc 1 323 0
 695 0456 0B40     		ands	r3, r3, r1
 696 0458 D9B2     		uxtb	r1, r3
 697 045a 104B     		ldr	r3, .L62+36
 698 045c 9954     		strb	r1, [r3, r2]
 325:.\Generated_Source\PSoC5/USBUART_std.c ****                             requestHandled = USBUART_InitNoDataControlTransfer();
 699              		.loc 1 325 0
 700 045e FFF7FEFF 		bl	USBUART_InitNoDataControlTransfer
 701 0462 0346     		mov	r3, r0
 702 0464 FB75     		strb	r3, [r7, #23]
 327:.\Generated_Source\PSoC5/USBUART_std.c ****                         break;
 703              		.loc 1 327 0
 704 0466 FFE7     		b	.L59
 705              	.L54:
 706              	.L59:
 707 0468 00BF     		nop
 708              	.L52:
 330:.\Generated_Source\PSoC5/USBUART_std.c ****                 }
 331:.\Generated_Source\PSoC5/USBUART_std.c ****                 break;
 709              		.loc 1 331 0
 710 046a 00E0     		b	.L25
 711              	.L57:
 332:.\Generated_Source\PSoC5/USBUART_std.c ****             default:    /* requestHandled is initialized as FALSE by default */
 333:.\Generated_Source\PSoC5/USBUART_std.c ****                 break;
 712              		.loc 1 333 0
 713 046c 00BF     		nop
 714              	.L25:
 334:.\Generated_Source\PSoC5/USBUART_std.c ****         }
 335:.\Generated_Source\PSoC5/USBUART_std.c ****     }
 336:.\Generated_Source\PSoC5/USBUART_std.c ****     return(requestHandled);
 715              		.loc 1 336 0
 716 046e FB7D     		ldrb	r3, [r7, #23]	@ zero_extendqisi2
 337:.\Generated_Source\PSoC5/USBUART_std.c **** }
 717              		.loc 1 337 0
 718 0470 1846     		mov	r0, r3
 719 0472 1837     		adds	r7, r7, #24
 720 0474 BD46     		mov	sp, r7
 721              		@ sp needed
 722 0476 80BD     		pop	{r7, pc}
 723              	.L63:
 724              		.align	2
 725              	.L62:
 726 0478 02600040 		.word	1073766402
 727 047c 00000000 		.word	USBUART_configuration
 728 0480 00000000 		.word	USBUART_configurationChanged
 729 0484 04600040 		.word	1073766404
 730 0488 00000000 		.word	USBUART_interfaceNumber
 731 048c 00000000 		.word	USBUART_interfaceSetting
 732 0490 00000000 		.word	USBUART_interfaceSetting_last
 733 0494 00600040 		.word	1073766400
 734 0498 00000000 		.word	USBUART_deviceStatus
 735 049c 00000000 		.word	USBUART_interfaceStatus
 736              		.cfi_endproc
 737              	.LFE0:
 738              		.size	USBUART_HandleStandardRqst, .-USBUART_HandleStandardRqst
ARM GAS  C:\Users\VICTOR~1\AppData\Local\Temp\ccARlXCX.s 			page 21


 739              		.section	.rodata
 740              		.align	2
 741              	.LC0:
 742 0000 30313233 		.ascii	"0123456789ABCDEF\000"
 742      34353637 
 742      38394142 
 742      43444546 
 742      00
 743 0011 000000   		.section	.text.USBUART_ReadDieID,"ax",%progbits
 744              		.align	2
 745              		.global	USBUART_ReadDieID
 746              		.thumb
 747              		.thumb_func
 748              		.type	USBUART_ReadDieID, %function
 749              	USBUART_ReadDieID:
 750              	.LFB1:
 338:.\Generated_Source\PSoC5/USBUART_std.c **** 
 339:.\Generated_Source\PSoC5/USBUART_std.c **** 
 340:.\Generated_Source\PSoC5/USBUART_std.c **** #if defined(USBUART_ENABLE_IDSN_STRING)
 341:.\Generated_Source\PSoC5/USBUART_std.c **** 
 342:.\Generated_Source\PSoC5/USBUART_std.c ****     /***************************************************************************
 343:.\Generated_Source\PSoC5/USBUART_std.c ****     * Function Name: USBUART_ReadDieID
 344:.\Generated_Source\PSoC5/USBUART_std.c ****     ****************************************************************************
 345:.\Generated_Source\PSoC5/USBUART_std.c ****     *
 346:.\Generated_Source\PSoC5/USBUART_std.c ****     * Summary:
 347:.\Generated_Source\PSoC5/USBUART_std.c ****     *  This routine read Die ID and generate Serial Number string descriptor.
 348:.\Generated_Source\PSoC5/USBUART_std.c ****     *
 349:.\Generated_Source\PSoC5/USBUART_std.c ****     * Parameters:
 350:.\Generated_Source\PSoC5/USBUART_std.c ****     *  descr:  pointer on string descriptor.
 351:.\Generated_Source\PSoC5/USBUART_std.c ****     *
 352:.\Generated_Source\PSoC5/USBUART_std.c ****     * Return:
 353:.\Generated_Source\PSoC5/USBUART_std.c ****     *  None.
 354:.\Generated_Source\PSoC5/USBUART_std.c ****     *
 355:.\Generated_Source\PSoC5/USBUART_std.c ****     * Reentrant:
 356:.\Generated_Source\PSoC5/USBUART_std.c ****     *  No.
 357:.\Generated_Source\PSoC5/USBUART_std.c ****     *
 358:.\Generated_Source\PSoC5/USBUART_std.c ****     ***************************************************************************/
 359:.\Generated_Source\PSoC5/USBUART_std.c ****     void USBUART_ReadDieID(uint8 descr[]) 
 360:.\Generated_Source\PSoC5/USBUART_std.c ****     {
 751              		.loc 1 360 0
 752              		.cfi_startproc
 753              		@ args = 0, pretend = 0, frame = 32
 754              		@ frame_needed = 1, uses_anonymous_args = 0
 755              		@ link register save eliminated.
 756 0000 90B4     		push	{r4, r7}
 757              		.cfi_def_cfa_offset 8
 758              		.cfi_offset 4, -8
 759              		.cfi_offset 7, -4
 760 0002 88B0     		sub	sp, sp, #32
 761              		.cfi_def_cfa_offset 40
 762 0004 00AF     		add	r7, sp, #0
 763              		.cfi_def_cfa_register 7
 764 0006 7860     		str	r0, [r7, #4]
 361:.\Generated_Source\PSoC5/USBUART_std.c ****         uint8 i;
 362:.\Generated_Source\PSoC5/USBUART_std.c ****         uint8 j = 0u;
 765              		.loc 1 362 0
 766 0008 0023     		movs	r3, #0
ARM GAS  C:\Users\VICTOR~1\AppData\Local\Temp\ccARlXCX.s 			page 22


 767 000a BB77     		strb	r3, [r7, #30]
 363:.\Generated_Source\PSoC5/USBUART_std.c ****         uint8 value;
 364:.\Generated_Source\PSoC5/USBUART_std.c ****         const char8 CYCODE hex[16u] = "0123456789ABCDEF";
 768              		.loc 1 364 0
 769 000c 1F4B     		ldr	r3, .L68
 770 000e 07F10C04 		add	r4, r7, #12
 771 0012 0FCB     		ldmia	r3, {r0, r1, r2, r3}
 772 0014 84E80F00 		stmia	r4, {r0, r1, r2, r3}
 365:.\Generated_Source\PSoC5/USBUART_std.c **** 
 366:.\Generated_Source\PSoC5/USBUART_std.c ****         /* Check descriptor validation */
 367:.\Generated_Source\PSoC5/USBUART_std.c ****         if( descr != NULL)
 773              		.loc 1 367 0
 774 0018 7B68     		ldr	r3, [r7, #4]
 775 001a 002B     		cmp	r3, #0
 776 001c 32D0     		beq	.L64
 368:.\Generated_Source\PSoC5/USBUART_std.c ****         {
 369:.\Generated_Source\PSoC5/USBUART_std.c ****             descr[0u] = USBUART_IDSN_DESCR_LENGTH;
 777              		.loc 1 369 0
 778 001e 7B68     		ldr	r3, [r7, #4]
 779 0020 2222     		movs	r2, #34
 780 0022 1A70     		strb	r2, [r3]
 370:.\Generated_Source\PSoC5/USBUART_std.c ****             descr[1u] = USBUART_DESCR_STRING;
 781              		.loc 1 370 0
 782 0024 7B68     		ldr	r3, [r7, #4]
 783 0026 0133     		adds	r3, r3, #1
 784 0028 0322     		movs	r2, #3
 785 002a 1A70     		strb	r2, [r3]
 371:.\Generated_Source\PSoC5/USBUART_std.c **** 
 372:.\Generated_Source\PSoC5/USBUART_std.c ****             /* fill descriptor */
 373:.\Generated_Source\PSoC5/USBUART_std.c ****             for(i = 2u; i < USBUART_IDSN_DESCR_LENGTH; i += 4u)
 786              		.loc 1 373 0
 787 002c 0223     		movs	r3, #2
 788 002e FB77     		strb	r3, [r7, #31]
 789 0030 25E0     		b	.L66
 790              	.L67:
 374:.\Generated_Source\PSoC5/USBUART_std.c ****             {
 375:.\Generated_Source\PSoC5/USBUART_std.c ****                 value = CY_GET_XTND_REG8((void CYFAR *)(USBUART_DIE_ID + j));
 791              		.loc 1 375 0 discriminator 2
 792 0032 BB7F     		ldrb	r3, [r7, #30]	@ zero_extendqisi2
 793 0034 03F19243 		add	r3, r3, #1224736768
 794 0038 03F58073 		add	r3, r3, #256
 795 003c 1B78     		ldrb	r3, [r3]
 796 003e 7B77     		strb	r3, [r7, #29]
 376:.\Generated_Source\PSoC5/USBUART_std.c ****                 j++;
 797              		.loc 1 376 0 discriminator 2
 798 0040 BB7F     		ldrb	r3, [r7, #30]	@ zero_extendqisi2
 799 0042 0133     		adds	r3, r3, #1
 800 0044 BB77     		strb	r3, [r7, #30]
 377:.\Generated_Source\PSoC5/USBUART_std.c ****                 descr[i] = (uint8)hex[value >> 4u];
 801              		.loc 1 377 0 discriminator 2
 802 0046 FB7F     		ldrb	r3, [r7, #31]	@ zero_extendqisi2
 803 0048 7A68     		ldr	r2, [r7, #4]
 804 004a 1344     		add	r3, r3, r2
 805 004c 7A7F     		ldrb	r2, [r7, #29]	@ zero_extendqisi2
 806 004e 1209     		lsrs	r2, r2, #4
 807 0050 D2B2     		uxtb	r2, r2
 808 0052 07F12001 		add	r1, r7, #32
ARM GAS  C:\Users\VICTOR~1\AppData\Local\Temp\ccARlXCX.s 			page 23


 809 0056 0A44     		add	r2, r2, r1
 810 0058 12F8142C 		ldrb	r2, [r2, #-20]	@ zero_extendqisi2
 811 005c 1A70     		strb	r2, [r3]
 378:.\Generated_Source\PSoC5/USBUART_std.c ****                 descr[i + 2u] = (uint8)hex[value & 0x0Fu];
 812              		.loc 1 378 0 discriminator 2
 813 005e FB7F     		ldrb	r3, [r7, #31]	@ zero_extendqisi2
 814 0060 0233     		adds	r3, r3, #2
 815 0062 7A68     		ldr	r2, [r7, #4]
 816 0064 1344     		add	r3, r3, r2
 817 0066 7A7F     		ldrb	r2, [r7, #29]	@ zero_extendqisi2
 818 0068 02F00F02 		and	r2, r2, #15
 819 006c 07F12001 		add	r1, r7, #32
 820 0070 0A44     		add	r2, r2, r1
 821 0072 12F8142C 		ldrb	r2, [r2, #-20]	@ zero_extendqisi2
 822 0076 1A70     		strb	r2, [r3]
 373:.\Generated_Source\PSoC5/USBUART_std.c ****             for(i = 2u; i < USBUART_IDSN_DESCR_LENGTH; i += 4u)
 823              		.loc 1 373 0 discriminator 2
 824 0078 FB7F     		ldrb	r3, [r7, #31]
 825 007a 0433     		adds	r3, r3, #4
 826 007c FB77     		strb	r3, [r7, #31]
 827              	.L66:
 373:.\Generated_Source\PSoC5/USBUART_std.c ****             for(i = 2u; i < USBUART_IDSN_DESCR_LENGTH; i += 4u)
 828              		.loc 1 373 0 is_stmt 0 discriminator 1
 829 007e FB7F     		ldrb	r3, [r7, #31]	@ zero_extendqisi2
 830 0080 212B     		cmp	r3, #33
 831 0082 D6D9     		bls	.L67
 832              	.L64:
 379:.\Generated_Source\PSoC5/USBUART_std.c ****             }
 380:.\Generated_Source\PSoC5/USBUART_std.c ****         }
 381:.\Generated_Source\PSoC5/USBUART_std.c ****     }
 833              		.loc 1 381 0 is_stmt 1
 834 0084 2037     		adds	r7, r7, #32
 835 0086 BD46     		mov	sp, r7
 836              		@ sp needed
 837 0088 90BC     		pop	{r4, r7}
 838 008a 7047     		bx	lr
 839              	.L69:
 840              		.align	2
 841              	.L68:
 842 008c 00000000 		.word	.LC0
 843              		.cfi_endproc
 844              	.LFE1:
 845              		.size	USBUART_ReadDieID, .-USBUART_ReadDieID
 846              		.section	.text.USBUART_ConfigReg,"ax",%progbits
 847              		.align	2
 848              		.global	USBUART_ConfigReg
 849              		.thumb
 850              		.thumb_func
 851              		.type	USBUART_ConfigReg, %function
 852              	USBUART_ConfigReg:
 853              	.LFB2:
 382:.\Generated_Source\PSoC5/USBUART_std.c **** 
 383:.\Generated_Source\PSoC5/USBUART_std.c **** #endif /*  USBUART_ENABLE_IDSN_STRING */
 384:.\Generated_Source\PSoC5/USBUART_std.c **** 
 385:.\Generated_Source\PSoC5/USBUART_std.c **** 
 386:.\Generated_Source\PSoC5/USBUART_std.c **** /*******************************************************************************
 387:.\Generated_Source\PSoC5/USBUART_std.c **** * Function Name: USBUART_ConfigReg
ARM GAS  C:\Users\VICTOR~1\AppData\Local\Temp\ccARlXCX.s 			page 24


 388:.\Generated_Source\PSoC5/USBUART_std.c **** ********************************************************************************
 389:.\Generated_Source\PSoC5/USBUART_std.c **** *
 390:.\Generated_Source\PSoC5/USBUART_std.c **** * Summary:
 391:.\Generated_Source\PSoC5/USBUART_std.c **** *  This routine configures hardware registers from the variables.
 392:.\Generated_Source\PSoC5/USBUART_std.c **** *  It is called from USBUART_Config() function and from RestoreConfig
 393:.\Generated_Source\PSoC5/USBUART_std.c **** *  after Wakeup.
 394:.\Generated_Source\PSoC5/USBUART_std.c **** *
 395:.\Generated_Source\PSoC5/USBUART_std.c **** * Parameters:
 396:.\Generated_Source\PSoC5/USBUART_std.c **** *  None.
 397:.\Generated_Source\PSoC5/USBUART_std.c **** *
 398:.\Generated_Source\PSoC5/USBUART_std.c **** * Return:
 399:.\Generated_Source\PSoC5/USBUART_std.c **** *  None.
 400:.\Generated_Source\PSoC5/USBUART_std.c **** *
 401:.\Generated_Source\PSoC5/USBUART_std.c **** *******************************************************************************/
 402:.\Generated_Source\PSoC5/USBUART_std.c **** void USBUART_ConfigReg(void) 
 403:.\Generated_Source\PSoC5/USBUART_std.c **** {
 854              		.loc 1 403 0
 855              		.cfi_startproc
 856              		@ args = 0, pretend = 0, frame = 8
 857              		@ frame_needed = 1, uses_anonymous_args = 0
 858              		@ link register save eliminated.
 859 0000 80B4     		push	{r7}
 860              		.cfi_def_cfa_offset 4
 861              		.cfi_offset 7, -4
 862 0002 83B0     		sub	sp, sp, #12
 863              		.cfi_def_cfa_offset 16
 864 0004 00AF     		add	r7, sp, #0
 865              		.cfi_def_cfa_register 7
 404:.\Generated_Source\PSoC5/USBUART_std.c ****     uint8 ep;
 405:.\Generated_Source\PSoC5/USBUART_std.c ****     uint8 i;
 406:.\Generated_Source\PSoC5/USBUART_std.c ****     #if(USBUART_EP_MM == USBUART__EP_DMAAUTO)
 407:.\Generated_Source\PSoC5/USBUART_std.c ****         uint8 epType = 0u;
 408:.\Generated_Source\PSoC5/USBUART_std.c ****     #endif /*  USBUART_EP_MM == USBUART__EP_DMAAUTO */
 409:.\Generated_Source\PSoC5/USBUART_std.c **** 
 410:.\Generated_Source\PSoC5/USBUART_std.c ****     /* Set the endpoint buffer addresses */
 411:.\Generated_Source\PSoC5/USBUART_std.c ****     ep = USBUART_EP1;
 866              		.loc 1 411 0
 867 0006 0123     		movs	r3, #1
 868 0008 FB71     		strb	r3, [r7, #7]
 412:.\Generated_Source\PSoC5/USBUART_std.c ****     for (i = 0u; i < 0x80u; i+= 0x10u)
 869              		.loc 1 412 0
 870 000a 0023     		movs	r3, #0
 871 000c BB71     		strb	r3, [r7, #6]
 872 000e 97E0     		b	.L71
 873              	.L76:
 413:.\Generated_Source\PSoC5/USBUART_std.c ****     {
 414:.\Generated_Source\PSoC5/USBUART_std.c ****         CY_SET_REG8((reg8 *)(USBUART_ARB_EP1_CFG_IND + i), USBUART_ARB_EPX_CFG_DEFAULT);
 874              		.loc 1 414 0
 875 0010 BB79     		ldrb	r3, [r7, #6]	@ zero_extendqisi2
 876 0012 03F18043 		add	r3, r3, #1073741824
 877 0016 03F5C143 		add	r3, r3, #24704
 878 001a 0C22     		movs	r2, #12
 879 001c 1A70     		strb	r2, [r3]
 415:.\Generated_Source\PSoC5/USBUART_std.c ****         #if(USBUART_EP_MM != USBUART__EP_MANUAL)
 416:.\Generated_Source\PSoC5/USBUART_std.c ****             /* Enable all Arbiter EP Interrupts : err, buf under, buf over, dma gnt(mode2 only), in
 417:.\Generated_Source\PSoC5/USBUART_std.c ****             CY_SET_REG8((reg8 *)(USBUART_ARB_EP1_INT_EN_IND + i), USBUART_ARB_EPX_INT_MASK);
 418:.\Generated_Source\PSoC5/USBUART_std.c ****         #endif   /*  USBUART_EP_MM != USBUART__EP_MANUAL */
ARM GAS  C:\Users\VICTOR~1\AppData\Local\Temp\ccARlXCX.s 			page 25


 419:.\Generated_Source\PSoC5/USBUART_std.c **** 
 420:.\Generated_Source\PSoC5/USBUART_std.c ****         if(USBUART_EP[ep].epMode != USBUART_MODE_DISABLE)
 880              		.loc 1 420 0
 881 001e FA79     		ldrb	r2, [r7, #7]	@ zero_extendqisi2
 882 0020 4E49     		ldr	r1, .L77
 883 0022 1346     		mov	r3, r2
 884 0024 5B00     		lsls	r3, r3, #1
 885 0026 1344     		add	r3, r3, r2
 886 0028 9B00     		lsls	r3, r3, #2
 887 002a 0B44     		add	r3, r3, r1
 888 002c 5B79     		ldrb	r3, [r3, #5]
 889 002e DBB2     		uxtb	r3, r3
 890 0030 002B     		cmp	r3, #0
 891 0032 18D0     		beq	.L72
 421:.\Generated_Source\PSoC5/USBUART_std.c ****         {
 422:.\Generated_Source\PSoC5/USBUART_std.c ****             if((USBUART_EP[ep].addr & USBUART_DIR_IN) != 0u )
 892              		.loc 1 422 0
 893 0034 FA79     		ldrb	r2, [r7, #7]	@ zero_extendqisi2
 894 0036 4949     		ldr	r1, .L77
 895 0038 1346     		mov	r3, r2
 896 003a 5B00     		lsls	r3, r3, #1
 897 003c 1344     		add	r3, r3, r2
 898 003e 9B00     		lsls	r3, r3, #2
 899 0040 0B44     		add	r3, r3, r1
 900 0042 1B79     		ldrb	r3, [r3, #4]
 901 0044 DBB2     		uxtb	r3, r3
 902 0046 DBB2     		uxtb	r3, r3
 903 0048 5BB2     		sxtb	r3, r3
 904 004a 002B     		cmp	r3, #0
 905 004c 05DA     		bge	.L73
 423:.\Generated_Source\PSoC5/USBUART_std.c ****             {
 424:.\Generated_Source\PSoC5/USBUART_std.c ****                 CY_SET_REG8((reg8 *)(USBUART_SIE_EP1_CR0_IND + i), USBUART_MODE_NAK_IN);
 906              		.loc 1 424 0
 907 004e BA79     		ldrb	r2, [r7, #6]	@ zero_extendqisi2
 908 0050 434B     		ldr	r3, .L77+4
 909 0052 1344     		add	r3, r3, r2
 910 0054 0C22     		movs	r2, #12
 911 0056 1A70     		strb	r2, [r3]
 912 0058 0AE0     		b	.L75
 913              	.L73:
 425:.\Generated_Source\PSoC5/USBUART_std.c ****             }
 426:.\Generated_Source\PSoC5/USBUART_std.c ****             else
 427:.\Generated_Source\PSoC5/USBUART_std.c ****             {
 428:.\Generated_Source\PSoC5/USBUART_std.c ****                 CY_SET_REG8((reg8 *)(USBUART_SIE_EP1_CR0_IND + i), USBUART_MODE_NAK_OUT);
 914              		.loc 1 428 0
 915 005a BA79     		ldrb	r2, [r7, #6]	@ zero_extendqisi2
 916 005c 404B     		ldr	r3, .L77+4
 917 005e 1344     		add	r3, r3, r2
 918 0060 0822     		movs	r2, #8
 919 0062 1A70     		strb	r2, [r3]
 920 0064 04E0     		b	.L75
 921              	.L72:
 429:.\Generated_Source\PSoC5/USBUART_std.c ****                 /* Prepare EP type mask for automatic memory allocation */
 430:.\Generated_Source\PSoC5/USBUART_std.c ****                 #if(USBUART_EP_MM == USBUART__EP_DMAAUTO)
 431:.\Generated_Source\PSoC5/USBUART_std.c ****                     epType |= (uint8)(0x01u << (ep - USBUART_EP1));
 432:.\Generated_Source\PSoC5/USBUART_std.c ****                 #endif /*  USBUART_EP_MM == USBUART__EP_DMAAUTO */
 433:.\Generated_Source\PSoC5/USBUART_std.c ****             }
ARM GAS  C:\Users\VICTOR~1\AppData\Local\Temp\ccARlXCX.s 			page 26


 434:.\Generated_Source\PSoC5/USBUART_std.c ****         }
 435:.\Generated_Source\PSoC5/USBUART_std.c ****         else
 436:.\Generated_Source\PSoC5/USBUART_std.c ****         {
 437:.\Generated_Source\PSoC5/USBUART_std.c ****             CY_SET_REG8((reg8 *)(USBUART_SIE_EP1_CR0_IND + i), USBUART_MODE_STALL_DATA_EP);
 922              		.loc 1 437 0
 923 0066 BA79     		ldrb	r2, [r7, #6]	@ zero_extendqisi2
 924 0068 3D4B     		ldr	r3, .L77+4
 925 006a 1344     		add	r3, r3, r2
 926 006c 8022     		movs	r2, #128
 927 006e 1A70     		strb	r2, [r3]
 928              	.L75:
 438:.\Generated_Source\PSoC5/USBUART_std.c ****         }
 439:.\Generated_Source\PSoC5/USBUART_std.c **** 
 440:.\Generated_Source\PSoC5/USBUART_std.c ****         #if(USBUART_EP_MM != USBUART__EP_DMAAUTO)
 441:.\Generated_Source\PSoC5/USBUART_std.c ****             CY_SET_REG8((reg8 *)(USBUART_SIE_EP1_CNT0_IND + i),   USBUART_EP[ep].bufferSize >> 8u);
 929              		.loc 1 441 0
 930 0070 BA79     		ldrb	r2, [r7, #6]	@ zero_extendqisi2
 931 0072 3C4B     		ldr	r3, .L77+8
 932 0074 1344     		add	r3, r3, r2
 933 0076 1946     		mov	r1, r3
 934 0078 FA79     		ldrb	r2, [r7, #7]	@ zero_extendqisi2
 935 007a 3848     		ldr	r0, .L77
 936 007c 1346     		mov	r3, r2
 937 007e 5B00     		lsls	r3, r3, #1
 938 0080 1344     		add	r3, r3, r2
 939 0082 9B00     		lsls	r3, r3, #2
 940 0084 0344     		add	r3, r3, r0
 941 0086 0833     		adds	r3, r3, #8
 942 0088 1B88     		ldrh	r3, [r3]	@ movhi
 943 008a 9BB2     		uxth	r3, r3
 944 008c 1B0A     		lsrs	r3, r3, #8
 945 008e 9BB2     		uxth	r3, r3
 946 0090 DBB2     		uxtb	r3, r3
 947 0092 0B70     		strb	r3, [r1]
 442:.\Generated_Source\PSoC5/USBUART_std.c ****             CY_SET_REG8((reg8 *)(USBUART_SIE_EP1_CNT1_IND + i),   USBUART_EP[ep].bufferSize & 0xFFu
 948              		.loc 1 442 0
 949 0094 BA79     		ldrb	r2, [r7, #6]	@ zero_extendqisi2
 950 0096 344B     		ldr	r3, .L77+12
 951 0098 1344     		add	r3, r3, r2
 952 009a 1946     		mov	r1, r3
 953 009c FA79     		ldrb	r2, [r7, #7]	@ zero_extendqisi2
 954 009e 2F48     		ldr	r0, .L77
 955 00a0 1346     		mov	r3, r2
 956 00a2 5B00     		lsls	r3, r3, #1
 957 00a4 1344     		add	r3, r3, r2
 958 00a6 9B00     		lsls	r3, r3, #2
 959 00a8 0344     		add	r3, r3, r0
 960 00aa 0833     		adds	r3, r3, #8
 961 00ac 1B88     		ldrh	r3, [r3]	@ movhi
 962 00ae 9BB2     		uxth	r3, r3
 963 00b0 DBB2     		uxtb	r3, r3
 964 00b2 0B70     		strb	r3, [r1]
 443:.\Generated_Source\PSoC5/USBUART_std.c **** 
 444:.\Generated_Source\PSoC5/USBUART_std.c ****             CY_SET_REG8((reg8 *)(USBUART_ARB_RW1_RA_IND + i),     USBUART_EP[ep].buffOffset & 0xFFu
 965              		.loc 1 444 0
 966 00b4 BA79     		ldrb	r2, [r7, #6]	@ zero_extendqisi2
 967 00b6 2D4B     		ldr	r3, .L77+16
ARM GAS  C:\Users\VICTOR~1\AppData\Local\Temp\ccARlXCX.s 			page 27


 968 00b8 1344     		add	r3, r3, r2
 969 00ba 1946     		mov	r1, r3
 970 00bc FA79     		ldrb	r2, [r7, #7]	@ zero_extendqisi2
 971 00be 2748     		ldr	r0, .L77
 972 00c0 1346     		mov	r3, r2
 973 00c2 5B00     		lsls	r3, r3, #1
 974 00c4 1344     		add	r3, r3, r2
 975 00c6 9B00     		lsls	r3, r3, #2
 976 00c8 0344     		add	r3, r3, r0
 977 00ca DB88     		ldrh	r3, [r3, #6]	@ movhi
 978 00cc 9BB2     		uxth	r3, r3
 979 00ce DBB2     		uxtb	r3, r3
 980 00d0 0B70     		strb	r3, [r1]
 445:.\Generated_Source\PSoC5/USBUART_std.c ****             CY_SET_REG8((reg8 *)(USBUART_ARB_RW1_RA_MSB_IND + i), USBUART_EP[ep].buffOffset >> 8u);
 981              		.loc 1 445 0
 982 00d2 BA79     		ldrb	r2, [r7, #6]	@ zero_extendqisi2
 983 00d4 264B     		ldr	r3, .L77+20
 984 00d6 1344     		add	r3, r3, r2
 985 00d8 1946     		mov	r1, r3
 986 00da FA79     		ldrb	r2, [r7, #7]	@ zero_extendqisi2
 987 00dc 1F48     		ldr	r0, .L77
 988 00de 1346     		mov	r3, r2
 989 00e0 5B00     		lsls	r3, r3, #1
 990 00e2 1344     		add	r3, r3, r2
 991 00e4 9B00     		lsls	r3, r3, #2
 992 00e6 0344     		add	r3, r3, r0
 993 00e8 DB88     		ldrh	r3, [r3, #6]	@ movhi
 994 00ea 9BB2     		uxth	r3, r3
 995 00ec 1B0A     		lsrs	r3, r3, #8
 996 00ee 9BB2     		uxth	r3, r3
 997 00f0 DBB2     		uxtb	r3, r3
 998 00f2 0B70     		strb	r3, [r1]
 446:.\Generated_Source\PSoC5/USBUART_std.c ****             CY_SET_REG8((reg8 *)(USBUART_ARB_RW1_WA_IND + i),     USBUART_EP[ep].buffOffset & 0xFFu
 999              		.loc 1 446 0
 1000 00f4 BA79     		ldrb	r2, [r7, #6]	@ zero_extendqisi2
 1001 00f6 1F4B     		ldr	r3, .L77+24
 1002 00f8 1344     		add	r3, r3, r2
 1003 00fa 1946     		mov	r1, r3
 1004 00fc FA79     		ldrb	r2, [r7, #7]	@ zero_extendqisi2
 1005 00fe 1748     		ldr	r0, .L77
 1006 0100 1346     		mov	r3, r2
 1007 0102 5B00     		lsls	r3, r3, #1
 1008 0104 1344     		add	r3, r3, r2
 1009 0106 9B00     		lsls	r3, r3, #2
 1010 0108 0344     		add	r3, r3, r0
 1011 010a DB88     		ldrh	r3, [r3, #6]	@ movhi
 1012 010c 9BB2     		uxth	r3, r3
 1013 010e DBB2     		uxtb	r3, r3
 1014 0110 0B70     		strb	r3, [r1]
 447:.\Generated_Source\PSoC5/USBUART_std.c ****             CY_SET_REG8((reg8 *)(USBUART_ARB_RW1_WA_MSB_IND + i), USBUART_EP[ep].buffOffset >> 8u);
 1015              		.loc 1 447 0
 1016 0112 BA79     		ldrb	r2, [r7, #6]	@ zero_extendqisi2
 1017 0114 184B     		ldr	r3, .L77+28
 1018 0116 1344     		add	r3, r3, r2
 1019 0118 1946     		mov	r1, r3
 1020 011a FA79     		ldrb	r2, [r7, #7]	@ zero_extendqisi2
 1021 011c 0F48     		ldr	r0, .L77
ARM GAS  C:\Users\VICTOR~1\AppData\Local\Temp\ccARlXCX.s 			page 28


 1022 011e 1346     		mov	r3, r2
 1023 0120 5B00     		lsls	r3, r3, #1
 1024 0122 1344     		add	r3, r3, r2
 1025 0124 9B00     		lsls	r3, r3, #2
 1026 0126 0344     		add	r3, r3, r0
 1027 0128 DB88     		ldrh	r3, [r3, #6]	@ movhi
 1028 012a 9BB2     		uxth	r3, r3
 1029 012c 1B0A     		lsrs	r3, r3, #8
 1030 012e 9BB2     		uxth	r3, r3
 1031 0130 DBB2     		uxtb	r3, r3
 1032 0132 0B70     		strb	r3, [r1]
 448:.\Generated_Source\PSoC5/USBUART_std.c ****         #endif /*  USBUART_EP_MM != USBUART__EP_DMAAUTO */
 449:.\Generated_Source\PSoC5/USBUART_std.c **** 
 450:.\Generated_Source\PSoC5/USBUART_std.c ****         ep++;
 1033              		.loc 1 450 0
 1034 0134 FB79     		ldrb	r3, [r7, #7]	@ zero_extendqisi2
 1035 0136 0133     		adds	r3, r3, #1
 1036 0138 FB71     		strb	r3, [r7, #7]
 412:.\Generated_Source\PSoC5/USBUART_std.c ****     for (i = 0u; i < 0x80u; i+= 0x10u)
 1037              		.loc 1 412 0
 1038 013a BB79     		ldrb	r3, [r7, #6]
 1039 013c 1033     		adds	r3, r3, #16
 1040 013e BB71     		strb	r3, [r7, #6]
 1041              	.L71:
 412:.\Generated_Source\PSoC5/USBUART_std.c ****     for (i = 0u; i < 0x80u; i+= 0x10u)
 1042              		.loc 1 412 0 is_stmt 0 discriminator 1
 1043 0140 BB79     		ldrb	r3, [r7, #6]	@ zero_extendqisi2
 1044 0142 5BB2     		sxtb	r3, r3
 1045 0144 002B     		cmp	r3, #0
 1046 0146 BFF663AF 		bge	.L76
 451:.\Generated_Source\PSoC5/USBUART_std.c ****     }
 452:.\Generated_Source\PSoC5/USBUART_std.c **** 
 453:.\Generated_Source\PSoC5/USBUART_std.c ****     #if(USBUART_EP_MM == USBUART__EP_DMAAUTO)
 454:.\Generated_Source\PSoC5/USBUART_std.c ****          /* BUF_SIZE depend on DMA_THRESS value: 55-32 bytes  44-16 bytes 33-8 bytes 22-4 bytes 11-
 455:.\Generated_Source\PSoC5/USBUART_std.c ****         USBUART_BUF_SIZE_REG = USBUART_DMA_BUF_SIZE;
 456:.\Generated_Source\PSoC5/USBUART_std.c ****         USBUART_DMA_THRES_REG = USBUART_DMA_BYTES_PER_BURST;   /* DMA burst threshold */
 457:.\Generated_Source\PSoC5/USBUART_std.c ****         USBUART_DMA_THRES_MSB_REG = 0u;
 458:.\Generated_Source\PSoC5/USBUART_std.c ****         USBUART_EP_ACTIVE_REG = USBUART_ARB_INT_MASK;
 459:.\Generated_Source\PSoC5/USBUART_std.c ****         USBUART_EP_TYPE_REG = epType;
 460:.\Generated_Source\PSoC5/USBUART_std.c ****         /* Cfg_cmp bit set to 1 once configuration is complete. */
 461:.\Generated_Source\PSoC5/USBUART_std.c ****         USBUART_ARB_CFG_REG = USBUART_ARB_CFG_AUTO_DMA | USBUART_ARB_CFG_AUTO_MEM |
 462:.\Generated_Source\PSoC5/USBUART_std.c ****                                        USBUART_ARB_CFG_CFG_CPM;
 463:.\Generated_Source\PSoC5/USBUART_std.c ****         /* Cfg_cmp bit set to 0 during configuration of PFSUSB Registers. */
 464:.\Generated_Source\PSoC5/USBUART_std.c ****         USBUART_ARB_CFG_REG = USBUART_ARB_CFG_AUTO_DMA | USBUART_ARB_CFG_AUTO_MEM;
 465:.\Generated_Source\PSoC5/USBUART_std.c ****     #endif /*  USBUART_EP_MM == USBUART__EP_DMAAUTO */
 466:.\Generated_Source\PSoC5/USBUART_std.c **** 
 467:.\Generated_Source\PSoC5/USBUART_std.c ****     CY_SET_REG8(USBUART_SIE_EP_INT_EN_PTR, 0xFFu);
 1047              		.loc 1 467 0 is_stmt 1
 1048 014a 0C4B     		ldr	r3, .L77+32
 1049 014c FF22     		movs	r2, #255
 1050 014e 1A70     		strb	r2, [r3]
 468:.\Generated_Source\PSoC5/USBUART_std.c **** }
 1051              		.loc 1 468 0
 1052 0150 0C37     		adds	r7, r7, #12
 1053 0152 BD46     		mov	sp, r7
 1054              		@ sp needed
 1055 0154 5DF8047B 		ldr	r7, [sp], #4
ARM GAS  C:\Users\VICTOR~1\AppData\Local\Temp\ccARlXCX.s 			page 29


 1056 0158 7047     		bx	lr
 1057              	.L78:
 1058 015a 00BF     		.align	2
 1059              	.L77:
 1060 015c 00000000 		.word	USBUART_EP
 1061 0160 0E600040 		.word	1073766414
 1062 0164 0C600040 		.word	1073766412
 1063 0168 0D600040 		.word	1073766413
 1064 016c 86600040 		.word	1073766534
 1065 0170 87600040 		.word	1073766535
 1066 0174 84600040 		.word	1073766532
 1067 0178 85600040 		.word	1073766533
 1068 017c 0A600040 		.word	1073766410
 1069              		.cfi_endproc
 1070              	.LFE2:
 1071              		.size	USBUART_ConfigReg, .-USBUART_ConfigReg
 1072              		.section	.text.USBUART_Config,"ax",%progbits
 1073              		.align	2
 1074              		.global	USBUART_Config
 1075              		.thumb
 1076              		.thumb_func
 1077              		.type	USBUART_Config, %function
 1078              	USBUART_Config:
 1079              	.LFB3:
 469:.\Generated_Source\PSoC5/USBUART_std.c **** 
 470:.\Generated_Source\PSoC5/USBUART_std.c **** 
 471:.\Generated_Source\PSoC5/USBUART_std.c **** /*******************************************************************************
 472:.\Generated_Source\PSoC5/USBUART_std.c **** * Function Name: USBUART_Config
 473:.\Generated_Source\PSoC5/USBUART_std.c **** ********************************************************************************
 474:.\Generated_Source\PSoC5/USBUART_std.c **** *
 475:.\Generated_Source\PSoC5/USBUART_std.c **** * Summary:
 476:.\Generated_Source\PSoC5/USBUART_std.c **** *  This routine configures endpoints for the entire configuration by scanning
 477:.\Generated_Source\PSoC5/USBUART_std.c **** *  the configuration descriptor.
 478:.\Generated_Source\PSoC5/USBUART_std.c **** *
 479:.\Generated_Source\PSoC5/USBUART_std.c **** * Parameters:
 480:.\Generated_Source\PSoC5/USBUART_std.c **** *  clearAltSetting: It configures the bAlternateSetting 0 for each interface.
 481:.\Generated_Source\PSoC5/USBUART_std.c **** *
 482:.\Generated_Source\PSoC5/USBUART_std.c **** * Return:
 483:.\Generated_Source\PSoC5/USBUART_std.c **** *  None.
 484:.\Generated_Source\PSoC5/USBUART_std.c **** *
 485:.\Generated_Source\PSoC5/USBUART_std.c **** * USBUART_interfaceClass - Initialized class array for each interface.
 486:.\Generated_Source\PSoC5/USBUART_std.c **** *   It is used for handling Class specific requests depend on interface class.
 487:.\Generated_Source\PSoC5/USBUART_std.c **** *   Different classes in multiple Alternate settings does not supported.
 488:.\Generated_Source\PSoC5/USBUART_std.c **** *
 489:.\Generated_Source\PSoC5/USBUART_std.c **** * Reentrant:
 490:.\Generated_Source\PSoC5/USBUART_std.c **** *  No.
 491:.\Generated_Source\PSoC5/USBUART_std.c **** *
 492:.\Generated_Source\PSoC5/USBUART_std.c **** *******************************************************************************/
 493:.\Generated_Source\PSoC5/USBUART_std.c **** void USBUART_Config(uint8 clearAltSetting) 
 494:.\Generated_Source\PSoC5/USBUART_std.c **** {
 1080              		.loc 1 494 0
 1081              		.cfi_startproc
 1082              		@ args = 0, pretend = 0, frame = 32
 1083              		@ frame_needed = 1, uses_anonymous_args = 0
 1084 0000 80B5     		push	{r7, lr}
 1085              		.cfi_def_cfa_offset 8
 1086              		.cfi_offset 7, -8
ARM GAS  C:\Users\VICTOR~1\AppData\Local\Temp\ccARlXCX.s 			page 30


 1087              		.cfi_offset 14, -4
 1088 0002 88B0     		sub	sp, sp, #32
 1089              		.cfi_def_cfa_offset 40
 1090 0004 00AF     		add	r7, sp, #0
 1091              		.cfi_def_cfa_register 7
 1092 0006 0346     		mov	r3, r0
 1093 0008 FB71     		strb	r3, [r7, #7]
 495:.\Generated_Source\PSoC5/USBUART_std.c ****     uint8 ep;
 496:.\Generated_Source\PSoC5/USBUART_std.c ****     uint8 cur_ep;
 497:.\Generated_Source\PSoC5/USBUART_std.c ****     uint8 i;
 498:.\Generated_Source\PSoC5/USBUART_std.c ****     uint8 epType;
 499:.\Generated_Source\PSoC5/USBUART_std.c ****     const uint8 *pDescr;
 500:.\Generated_Source\PSoC5/USBUART_std.c ****     #if(USBUART_EP_MM != USBUART__EP_DMAAUTO)
 501:.\Generated_Source\PSoC5/USBUART_std.c ****         uint16 buffCount = 0u;
 1094              		.loc 1 501 0
 1095 000a 0023     		movs	r3, #0
 1096 000c 7B83     		strh	r3, [r7, #26]	@ movhi
 502:.\Generated_Source\PSoC5/USBUART_std.c ****     #endif /*  USBUART_EP_MM != USBUART__EP_DMAAUTO */
 503:.\Generated_Source\PSoC5/USBUART_std.c **** 
 504:.\Generated_Source\PSoC5/USBUART_std.c ****     const T_USBUART_LUT CYCODE *pTmp;
 505:.\Generated_Source\PSoC5/USBUART_std.c ****     const T_USBUART_EP_SETTINGS_BLOCK CYCODE *pEP;
 506:.\Generated_Source\PSoC5/USBUART_std.c **** 
 507:.\Generated_Source\PSoC5/USBUART_std.c ****     /* Clear all of the endpoints */
 508:.\Generated_Source\PSoC5/USBUART_std.c ****     for (ep = 0u; ep < USBUART_MAX_EP; ep++)
 1097              		.loc 1 508 0
 1098 000e 0023     		movs	r3, #0
 1099 0010 FB77     		strb	r3, [r7, #31]
 1100 0012 43E0     		b	.L80
 1101              	.L81:
 509:.\Generated_Source\PSoC5/USBUART_std.c ****     {
 510:.\Generated_Source\PSoC5/USBUART_std.c ****         USBUART_EP[ep].attrib = 0u;
 1102              		.loc 1 510 0 discriminator 2
 1103 0014 FA7F     		ldrb	r2, [r7, #31]	@ zero_extendqisi2
 1104 0016 A149     		ldr	r1, .L107
 1105 0018 1346     		mov	r3, r2
 1106 001a 5B00     		lsls	r3, r3, #1
 1107 001c 1344     		add	r3, r3, r2
 1108 001e 9B00     		lsls	r3, r3, #2
 1109 0020 0B44     		add	r3, r3, r1
 1110 0022 0022     		movs	r2, #0
 1111 0024 1A70     		strb	r2, [r3]
 511:.\Generated_Source\PSoC5/USBUART_std.c ****         USBUART_EP[ep].hwEpState = 0u;
 1112              		.loc 1 511 0 discriminator 2
 1113 0026 FA7F     		ldrb	r2, [r7, #31]	@ zero_extendqisi2
 1114 0028 9C49     		ldr	r1, .L107
 1115 002a 1346     		mov	r3, r2
 1116 002c 5B00     		lsls	r3, r3, #1
 1117 002e 1344     		add	r3, r3, r2
 1118 0030 9B00     		lsls	r3, r3, #2
 1119 0032 0B44     		add	r3, r3, r1
 1120 0034 0022     		movs	r2, #0
 1121 0036 9A70     		strb	r2, [r3, #2]
 512:.\Generated_Source\PSoC5/USBUART_std.c ****         USBUART_EP[ep].apiEpState = USBUART_NO_EVENT_PENDING;
 1122              		.loc 1 512 0 discriminator 2
 1123 0038 FA7F     		ldrb	r2, [r7, #31]	@ zero_extendqisi2
 1124 003a 9849     		ldr	r1, .L107
 1125 003c 1346     		mov	r3, r2
ARM GAS  C:\Users\VICTOR~1\AppData\Local\Temp\ccARlXCX.s 			page 31


 1126 003e 5B00     		lsls	r3, r3, #1
 1127 0040 1344     		add	r3, r3, r2
 1128 0042 9B00     		lsls	r3, r3, #2
 1129 0044 0B44     		add	r3, r3, r1
 1130 0046 0022     		movs	r2, #0
 1131 0048 5A70     		strb	r2, [r3, #1]
 513:.\Generated_Source\PSoC5/USBUART_std.c ****         USBUART_EP[ep].epToggle = 0u;
 1132              		.loc 1 513 0 discriminator 2
 1133 004a FA7F     		ldrb	r2, [r7, #31]	@ zero_extendqisi2
 1134 004c 9349     		ldr	r1, .L107
 1135 004e 1346     		mov	r3, r2
 1136 0050 5B00     		lsls	r3, r3, #1
 1137 0052 1344     		add	r3, r3, r2
 1138 0054 9B00     		lsls	r3, r3, #2
 1139 0056 0B44     		add	r3, r3, r1
 1140 0058 0022     		movs	r2, #0
 1141 005a DA70     		strb	r2, [r3, #3]
 514:.\Generated_Source\PSoC5/USBUART_std.c ****         USBUART_EP[ep].epMode = USBUART_MODE_DISABLE;
 1142              		.loc 1 514 0 discriminator 2
 1143 005c FA7F     		ldrb	r2, [r7, #31]	@ zero_extendqisi2
 1144 005e 8F49     		ldr	r1, .L107
 1145 0060 1346     		mov	r3, r2
 1146 0062 5B00     		lsls	r3, r3, #1
 1147 0064 1344     		add	r3, r3, r2
 1148 0066 9B00     		lsls	r3, r3, #2
 1149 0068 0B44     		add	r3, r3, r1
 1150 006a 0022     		movs	r2, #0
 1151 006c 5A71     		strb	r2, [r3, #5]
 515:.\Generated_Source\PSoC5/USBUART_std.c ****         USBUART_EP[ep].bufferSize = 0u;
 1152              		.loc 1 515 0 discriminator 2
 1153 006e FA7F     		ldrb	r2, [r7, #31]	@ zero_extendqisi2
 1154 0070 8A49     		ldr	r1, .L107
 1155 0072 1346     		mov	r3, r2
 1156 0074 5B00     		lsls	r3, r3, #1
 1157 0076 1344     		add	r3, r3, r2
 1158 0078 9B00     		lsls	r3, r3, #2
 1159 007a 0B44     		add	r3, r3, r1
 1160 007c 0833     		adds	r3, r3, #8
 1161 007e 0022     		movs	r2, #0
 1162 0080 1A80     		strh	r2, [r3]	@ movhi
 516:.\Generated_Source\PSoC5/USBUART_std.c ****         USBUART_EP[ep].interface = 0u;
 1163              		.loc 1 516 0 discriminator 2
 1164 0082 FA7F     		ldrb	r2, [r7, #31]	@ zero_extendqisi2
 1165 0084 8549     		ldr	r1, .L107
 1166 0086 1346     		mov	r3, r2
 1167 0088 5B00     		lsls	r3, r3, #1
 1168 008a 1344     		add	r3, r3, r2
 1169 008c 9B00     		lsls	r3, r3, #2
 1170 008e 0B44     		add	r3, r3, r1
 1171 0090 0833     		adds	r3, r3, #8
 1172 0092 0022     		movs	r2, #0
 1173 0094 9A70     		strb	r2, [r3, #2]
 508:.\Generated_Source\PSoC5/USBUART_std.c ****     for (ep = 0u; ep < USBUART_MAX_EP; ep++)
 1174              		.loc 1 508 0 discriminator 2
 1175 0096 FB7F     		ldrb	r3, [r7, #31]	@ zero_extendqisi2
 1176 0098 0133     		adds	r3, r3, #1
 1177 009a FB77     		strb	r3, [r7, #31]
ARM GAS  C:\Users\VICTOR~1\AppData\Local\Temp\ccARlXCX.s 			page 32


 1178              	.L80:
 508:.\Generated_Source\PSoC5/USBUART_std.c ****     for (ep = 0u; ep < USBUART_MAX_EP; ep++)
 1179              		.loc 1 508 0 is_stmt 0 discriminator 1
 1180 009c FB7F     		ldrb	r3, [r7, #31]	@ zero_extendqisi2
 1181 009e 082B     		cmp	r3, #8
 1182 00a0 B8D9     		bls	.L81
 517:.\Generated_Source\PSoC5/USBUART_std.c **** 
 518:.\Generated_Source\PSoC5/USBUART_std.c ****     }
 519:.\Generated_Source\PSoC5/USBUART_std.c **** 
 520:.\Generated_Source\PSoC5/USBUART_std.c ****     /* Clear Alternate settings for all interfaces */
 521:.\Generated_Source\PSoC5/USBUART_std.c ****     if(clearAltSetting != 0u)
 1183              		.loc 1 521 0 is_stmt 1
 1184 00a2 FB79     		ldrb	r3, [r7, #7]	@ zero_extendqisi2
 1185 00a4 002B     		cmp	r3, #0
 1186 00a6 10D0     		beq	.L82
 522:.\Generated_Source\PSoC5/USBUART_std.c ****     {
 523:.\Generated_Source\PSoC5/USBUART_std.c ****         for (i = 0u; i < USBUART_MAX_INTERFACES_NUMBER; i++)
 1187              		.loc 1 523 0
 1188 00a8 0023     		movs	r3, #0
 1189 00aa 7B77     		strb	r3, [r7, #29]
 1190 00ac 0AE0     		b	.L83
 1191              	.L84:
 524:.\Generated_Source\PSoC5/USBUART_std.c ****         {
 525:.\Generated_Source\PSoC5/USBUART_std.c ****             USBUART_interfaceSetting[i] = 0x00u;
 1192              		.loc 1 525 0 discriminator 2
 1193 00ae 7B7F     		ldrb	r3, [r7, #29]	@ zero_extendqisi2
 1194 00b0 7B4A     		ldr	r2, .L107+4
 1195 00b2 0021     		movs	r1, #0
 1196 00b4 D154     		strb	r1, [r2, r3]
 526:.\Generated_Source\PSoC5/USBUART_std.c ****             USBUART_interfaceSetting_last[i] = 0x00u;
 1197              		.loc 1 526 0 discriminator 2
 1198 00b6 7B7F     		ldrb	r3, [r7, #29]	@ zero_extendqisi2
 1199 00b8 7A4A     		ldr	r2, .L107+8
 1200 00ba 0021     		movs	r1, #0
 1201 00bc D154     		strb	r1, [r2, r3]
 523:.\Generated_Source\PSoC5/USBUART_std.c ****         for (i = 0u; i < USBUART_MAX_INTERFACES_NUMBER; i++)
 1202              		.loc 1 523 0 discriminator 2
 1203 00be 7B7F     		ldrb	r3, [r7, #29]	@ zero_extendqisi2
 1204 00c0 0133     		adds	r3, r3, #1
 1205 00c2 7B77     		strb	r3, [r7, #29]
 1206              	.L83:
 523:.\Generated_Source\PSoC5/USBUART_std.c ****         for (i = 0u; i < USBUART_MAX_INTERFACES_NUMBER; i++)
 1207              		.loc 1 523 0 is_stmt 0 discriminator 1
 1208 00c4 7B7F     		ldrb	r3, [r7, #29]	@ zero_extendqisi2
 1209 00c6 012B     		cmp	r3, #1
 1210 00c8 F1D9     		bls	.L84
 1211              	.L82:
 527:.\Generated_Source\PSoC5/USBUART_std.c ****         }
 528:.\Generated_Source\PSoC5/USBUART_std.c ****     }
 529:.\Generated_Source\PSoC5/USBUART_std.c **** 
 530:.\Generated_Source\PSoC5/USBUART_std.c ****     /* Init Endpoints and Device Status if configured */
 531:.\Generated_Source\PSoC5/USBUART_std.c ****     if(USBUART_configuration > 0u)
 1212              		.loc 1 531 0 is_stmt 1
 1213 00ca 774B     		ldr	r3, .L107+12
 1214 00cc 1B78     		ldrb	r3, [r3]
 1215 00ce DBB2     		uxtb	r3, r3
 1216 00d0 002B     		cmp	r3, #0
ARM GAS  C:\Users\VICTOR~1\AppData\Local\Temp\ccARlXCX.s 			page 33


 1217 00d2 00F03081 		beq	.L79
 532:.\Generated_Source\PSoC5/USBUART_std.c ****     {
 533:.\Generated_Source\PSoC5/USBUART_std.c ****         pTmp = USBUART_GetConfigTablePtr(USBUART_configuration - 1u);
 1218              		.loc 1 533 0
 1219 00d6 744B     		ldr	r3, .L107+12
 1220 00d8 1B78     		ldrb	r3, [r3]
 1221 00da DBB2     		uxtb	r3, r3
 1222 00dc 013B     		subs	r3, r3, #1
 1223 00de DBB2     		uxtb	r3, r3
 1224 00e0 1846     		mov	r0, r3
 1225 00e2 FFF7FEFF 		bl	USBUART_GetConfigTablePtr
 1226 00e6 3861     		str	r0, [r7, #16]
 534:.\Generated_Source\PSoC5/USBUART_std.c ****         /* Set Power status for current configuration */
 535:.\Generated_Source\PSoC5/USBUART_std.c ****         pDescr = (const uint8 *)pTmp->p_list;
 1227              		.loc 1 535 0
 1228 00e8 3B69     		ldr	r3, [r7, #16]
 1229 00ea 5B68     		ldr	r3, [r3, #4]
 1230 00ec FB60     		str	r3, [r7, #12]
 536:.\Generated_Source\PSoC5/USBUART_std.c ****         if((pDescr[USBUART_CONFIG_DESCR_ATTRIB] & USBUART_CONFIG_DESCR_ATTRIB_SELF_POWERED) != 0u)
 1231              		.loc 1 536 0
 1232 00ee FB68     		ldr	r3, [r7, #12]
 1233 00f0 0733     		adds	r3, r3, #7
 1234 00f2 1B78     		ldrb	r3, [r3]	@ zero_extendqisi2
 1235 00f4 03F04003 		and	r3, r3, #64
 1236 00f8 002B     		cmp	r3, #0
 1237 00fa 08D0     		beq	.L86
 537:.\Generated_Source\PSoC5/USBUART_std.c ****         {
 538:.\Generated_Source\PSoC5/USBUART_std.c ****             USBUART_deviceStatus |=  USBUART_DEVICE_STATUS_SELF_POWERED;
 1238              		.loc 1 538 0
 1239 00fc 6B4B     		ldr	r3, .L107+16
 1240 00fe 1B78     		ldrb	r3, [r3]
 1241 0100 DBB2     		uxtb	r3, r3
 1242 0102 43F00103 		orr	r3, r3, #1
 1243 0106 DAB2     		uxtb	r2, r3
 1244 0108 684B     		ldr	r3, .L107+16
 1245 010a 1A70     		strb	r2, [r3]
 1246 010c 07E0     		b	.L87
 1247              	.L86:
 539:.\Generated_Source\PSoC5/USBUART_std.c ****         }
 540:.\Generated_Source\PSoC5/USBUART_std.c ****         else
 541:.\Generated_Source\PSoC5/USBUART_std.c ****         {
 542:.\Generated_Source\PSoC5/USBUART_std.c ****             USBUART_deviceStatus &=  (uint8)~USBUART_DEVICE_STATUS_SELF_POWERED;
 1248              		.loc 1 542 0
 1249 010e 674B     		ldr	r3, .L107+16
 1250 0110 1B78     		ldrb	r3, [r3]
 1251 0112 DBB2     		uxtb	r3, r3
 1252 0114 23F00103 		bic	r3, r3, #1
 1253 0118 DAB2     		uxtb	r2, r3
 1254 011a 644B     		ldr	r3, .L107+16
 1255 011c 1A70     		strb	r2, [r3]
 1256              	.L87:
 543:.\Generated_Source\PSoC5/USBUART_std.c ****         }
 544:.\Generated_Source\PSoC5/USBUART_std.c ****         /* Move to next element */
 545:.\Generated_Source\PSoC5/USBUART_std.c ****         pTmp = &pTmp[1u];
 1257              		.loc 1 545 0
 1258 011e 3B69     		ldr	r3, [r7, #16]
 1259 0120 0833     		adds	r3, r3, #8
ARM GAS  C:\Users\VICTOR~1\AppData\Local\Temp\ccARlXCX.s 			page 34


 1260 0122 3B61     		str	r3, [r7, #16]
 546:.\Generated_Source\PSoC5/USBUART_std.c ****         ep = pTmp->c;  /* For this table, c is the number of endpoints configurations  */
 1261              		.loc 1 546 0
 1262 0124 3B69     		ldr	r3, [r7, #16]
 1263 0126 1B78     		ldrb	r3, [r3]
 1264 0128 FB77     		strb	r3, [r7, #31]
 547:.\Generated_Source\PSoC5/USBUART_std.c **** 
 548:.\Generated_Source\PSoC5/USBUART_std.c ****         #if ((USBUART_EP_MA == USBUART__MA_DYNAMIC) && \
 549:.\Generated_Source\PSoC5/USBUART_std.c ****              (USBUART_EP_MM == USBUART__EP_MANUAL) )
 550:.\Generated_Source\PSoC5/USBUART_std.c ****             /* Configure for dynamic EP memory allocation */
 551:.\Generated_Source\PSoC5/USBUART_std.c ****             /* p_list points the endpoint setting table. */
 552:.\Generated_Source\PSoC5/USBUART_std.c ****             pEP = (T_USBUART_EP_SETTINGS_BLOCK *) pTmp->p_list;
 553:.\Generated_Source\PSoC5/USBUART_std.c ****             for (i = 0u; i < ep; i++)
 554:.\Generated_Source\PSoC5/USBUART_std.c ****             {
 555:.\Generated_Source\PSoC5/USBUART_std.c ****                 /* Compare current Alternate setting with EP Alt */
 556:.\Generated_Source\PSoC5/USBUART_std.c ****                 if(USBUART_interfaceSetting[pEP->interface] == pEP->altSetting)
 557:.\Generated_Source\PSoC5/USBUART_std.c ****                 {
 558:.\Generated_Source\PSoC5/USBUART_std.c ****                     cur_ep = pEP->addr & USBUART_DIR_UNUSED;
 559:.\Generated_Source\PSoC5/USBUART_std.c ****                     epType = pEP->attributes & USBUART_EP_TYPE_MASK;
 560:.\Generated_Source\PSoC5/USBUART_std.c ****                     if (pEP->addr & USBUART_DIR_IN)
 561:.\Generated_Source\PSoC5/USBUART_std.c ****                     {
 562:.\Generated_Source\PSoC5/USBUART_std.c ****                         /* IN Endpoint */
 563:.\Generated_Source\PSoC5/USBUART_std.c ****                         USBUART_EP[cur_ep].apiEpState = USBUART_EVENT_PENDING;
 564:.\Generated_Source\PSoC5/USBUART_std.c ****                         USBUART_EP[cur_ep].epMode = (epType == USBUART_EP_TYPE_ISOC) ?
 565:.\Generated_Source\PSoC5/USBUART_std.c ****                                                         USBUART_MODE_ISO_IN : USBUART_MODE_ACK_IN;
 566:.\Generated_Source\PSoC5/USBUART_std.c ****                         #if defined(USBUART_ENABLE_CDC_CLASS)
 567:.\Generated_Source\PSoC5/USBUART_std.c ****                             if(((pEP->bMisc == USBUART_CLASS_CDC_DATA) ||
 568:.\Generated_Source\PSoC5/USBUART_std.c ****                                 (pEP->bMisc == USBUART_CLASS_CDC)) &&
 569:.\Generated_Source\PSoC5/USBUART_std.c ****                                 (epType != USBUART_EP_TYPE_INT))
 570:.\Generated_Source\PSoC5/USBUART_std.c ****                             {
 571:.\Generated_Source\PSoC5/USBUART_std.c ****                                 USBUART_cdc_data_in_ep = cur_ep;
 572:.\Generated_Source\PSoC5/USBUART_std.c ****                             }
 573:.\Generated_Source\PSoC5/USBUART_std.c ****                         #endif  /*  USBUART_ENABLE_CDC_CLASS*/
 574:.\Generated_Source\PSoC5/USBUART_std.c ****                         #if ( defined(USBUART_ENABLE_MIDI_STREAMING) && \
 575:.\Generated_Source\PSoC5/USBUART_std.c ****                                              (USBUART_MIDI_IN_BUFF_SIZE > 0) )
 576:.\Generated_Source\PSoC5/USBUART_std.c ****                             if((pEP->bMisc == USBUART_CLASS_AUDIO) &&
 577:.\Generated_Source\PSoC5/USBUART_std.c ****                                (epType == USBUART_EP_TYPE_BULK))
 578:.\Generated_Source\PSoC5/USBUART_std.c ****                             {
 579:.\Generated_Source\PSoC5/USBUART_std.c ****                                 USBUART_midi_in_ep = cur_ep;
 580:.\Generated_Source\PSoC5/USBUART_std.c ****                             }
 581:.\Generated_Source\PSoC5/USBUART_std.c ****                         #endif  /*  USBUART_ENABLE_MIDI_STREAMING*/
 582:.\Generated_Source\PSoC5/USBUART_std.c ****                     }
 583:.\Generated_Source\PSoC5/USBUART_std.c ****                     else
 584:.\Generated_Source\PSoC5/USBUART_std.c ****                     {
 585:.\Generated_Source\PSoC5/USBUART_std.c ****                         /* OUT Endpoint */
 586:.\Generated_Source\PSoC5/USBUART_std.c ****                         USBUART_EP[cur_ep].apiEpState = USBUART_NO_EVENT_PENDING;
 587:.\Generated_Source\PSoC5/USBUART_std.c ****                         USBUART_EP[cur_ep].epMode = (epType == USBUART_EP_TYPE_ISOC) ?
 588:.\Generated_Source\PSoC5/USBUART_std.c ****                                                     USBUART_MODE_ISO_OUT : USBUART_MODE_ACK_OUT;
 589:.\Generated_Source\PSoC5/USBUART_std.c ****                         #if defined(USBUART_ENABLE_CDC_CLASS)
 590:.\Generated_Source\PSoC5/USBUART_std.c ****                             if(((pEP->bMisc == USBUART_CLASS_CDC_DATA) ||
 591:.\Generated_Source\PSoC5/USBUART_std.c ****                                 (pEP->bMisc == USBUART_CLASS_CDC)) &&
 592:.\Generated_Source\PSoC5/USBUART_std.c ****                                 (epType != USBUART_EP_TYPE_INT))
 593:.\Generated_Source\PSoC5/USBUART_std.c ****                             {
 594:.\Generated_Source\PSoC5/USBUART_std.c ****                                 USBUART_cdc_data_out_ep = cur_ep;
 595:.\Generated_Source\PSoC5/USBUART_std.c ****                             }
 596:.\Generated_Source\PSoC5/USBUART_std.c ****                         #endif  /*  USBUART_ENABLE_CDC_CLASS*/
 597:.\Generated_Source\PSoC5/USBUART_std.c ****                         #if ( defined(USBUART_ENABLE_MIDI_STREAMING) && \
ARM GAS  C:\Users\VICTOR~1\AppData\Local\Temp\ccARlXCX.s 			page 35


 598:.\Generated_Source\PSoC5/USBUART_std.c ****                                      (USBUART_MIDI_OUT_BUFF_SIZE > 0) )
 599:.\Generated_Source\PSoC5/USBUART_std.c ****                             if((pEP->bMisc == USBUART_CLASS_AUDIO) &&
 600:.\Generated_Source\PSoC5/USBUART_std.c ****                                (epType == USBUART_EP_TYPE_BULK))
 601:.\Generated_Source\PSoC5/USBUART_std.c ****                             {
 602:.\Generated_Source\PSoC5/USBUART_std.c ****                                 USBUART_midi_out_ep = cur_ep;
 603:.\Generated_Source\PSoC5/USBUART_std.c ****                             }
 604:.\Generated_Source\PSoC5/USBUART_std.c ****                         #endif  /*  USBUART_ENABLE_MIDI_STREAMING*/
 605:.\Generated_Source\PSoC5/USBUART_std.c ****                     }
 606:.\Generated_Source\PSoC5/USBUART_std.c ****                     USBUART_EP[cur_ep].bufferSize = pEP->bufferSize;
 607:.\Generated_Source\PSoC5/USBUART_std.c ****                     USBUART_EP[cur_ep].addr = pEP->addr;
 608:.\Generated_Source\PSoC5/USBUART_std.c ****                     USBUART_EP[cur_ep].attrib = pEP->attributes;
 609:.\Generated_Source\PSoC5/USBUART_std.c ****                 }
 610:.\Generated_Source\PSoC5/USBUART_std.c ****                 pEP = &pEP[1u];
 611:.\Generated_Source\PSoC5/USBUART_std.c ****             }
 612:.\Generated_Source\PSoC5/USBUART_std.c ****         #else /* Configure for static EP memory allocation  */
 613:.\Generated_Source\PSoC5/USBUART_std.c ****             for (i = USBUART_EP1; i < USBUART_MAX_EP; i++)
 1265              		.loc 1 613 0
 1266 012a 0123     		movs	r3, #1
 1267 012c 7B77     		strb	r3, [r7, #29]
 1268 012e AAE0     		b	.L88
 1269              	.L102:
 614:.\Generated_Source\PSoC5/USBUART_std.c ****             {
 615:.\Generated_Source\PSoC5/USBUART_std.c ****                 /* p_list points the endpoint setting table. */
 616:.\Generated_Source\PSoC5/USBUART_std.c ****                 pEP = (const T_USBUART_EP_SETTINGS_BLOCK CYCODE *) pTmp->p_list;
 1270              		.loc 1 616 0
 1271 0130 3B69     		ldr	r3, [r7, #16]
 1272 0132 5B68     		ldr	r3, [r3, #4]
 1273 0134 7B61     		str	r3, [r7, #20]
 617:.\Generated_Source\PSoC5/USBUART_std.c ****                 /* Find max length for each EP and select it (length could be different in differen
 618:.\Generated_Source\PSoC5/USBUART_std.c ****                 /* but other settings should be correct with regards to Interface alt Setting */
 619:.\Generated_Source\PSoC5/USBUART_std.c ****                 for (cur_ep = 0u; cur_ep < ep; cur_ep++)
 1274              		.loc 1 619 0
 1275 0136 0023     		movs	r3, #0
 1276 0138 BB77     		strb	r3, [r7, #30]
 1277 013a 9CE0     		b	.L89
 1278              	.L101:
 620:.\Generated_Source\PSoC5/USBUART_std.c ****                 {
 621:.\Generated_Source\PSoC5/USBUART_std.c ****                     /* EP count is equal to EP # in table and we found larger EP length than have b
 622:.\Generated_Source\PSoC5/USBUART_std.c ****                     if(i == (pEP->addr & USBUART_DIR_UNUSED))
 1279              		.loc 1 622 0
 1280 013c 7A7F     		ldrb	r2, [r7, #29]	@ zero_extendqisi2
 1281 013e 7B69     		ldr	r3, [r7, #20]
 1282 0140 9B78     		ldrb	r3, [r3, #2]	@ zero_extendqisi2
 1283 0142 03F07F03 		and	r3, r3, #127
 1284 0146 9A42     		cmp	r2, r3
 1285 0148 40F08F80 		bne	.L90
 623:.\Generated_Source\PSoC5/USBUART_std.c ****                     {
 624:.\Generated_Source\PSoC5/USBUART_std.c ****                         if(USBUART_EP[i].bufferSize < pEP->bufferSize)
 1286              		.loc 1 624 0
 1287 014c 7A7F     		ldrb	r2, [r7, #29]	@ zero_extendqisi2
 1288 014e 5349     		ldr	r1, .L107
 1289 0150 1346     		mov	r3, r2
 1290 0152 5B00     		lsls	r3, r3, #1
 1291 0154 1344     		add	r3, r3, r2
 1292 0156 9B00     		lsls	r3, r3, #2
 1293 0158 0B44     		add	r3, r3, r1
 1294 015a 0833     		adds	r3, r3, #8
ARM GAS  C:\Users\VICTOR~1\AppData\Local\Temp\ccARlXCX.s 			page 36


 1295 015c 1B88     		ldrh	r3, [r3]	@ movhi
 1296 015e 9AB2     		uxth	r2, r3
 1297 0160 7B69     		ldr	r3, [r7, #20]
 1298 0162 9B88     		ldrh	r3, [r3, #4]
 1299 0164 9A42     		cmp	r2, r3
 1300 0166 0BD2     		bcs	.L91
 625:.\Generated_Source\PSoC5/USBUART_std.c ****                         {
 626:.\Generated_Source\PSoC5/USBUART_std.c ****                             USBUART_EP[i].bufferSize = pEP->bufferSize;
 1301              		.loc 1 626 0
 1302 0168 7A7F     		ldrb	r2, [r7, #29]	@ zero_extendqisi2
 1303 016a 7B69     		ldr	r3, [r7, #20]
 1304 016c 9988     		ldrh	r1, [r3, #4]
 1305 016e 4B48     		ldr	r0, .L107
 1306 0170 1346     		mov	r3, r2
 1307 0172 5B00     		lsls	r3, r3, #1
 1308 0174 1344     		add	r3, r3, r2
 1309 0176 9B00     		lsls	r3, r3, #2
 1310 0178 0344     		add	r3, r3, r0
 1311 017a 0833     		adds	r3, r3, #8
 1312 017c 0A46     		mov	r2, r1	@ movhi
 1313 017e 1A80     		strh	r2, [r3]	@ movhi
 1314              	.L91:
 627:.\Generated_Source\PSoC5/USBUART_std.c ****                         }
 628:.\Generated_Source\PSoC5/USBUART_std.c ****                         /* Compare current Alternate setting with EP Alt*/
 629:.\Generated_Source\PSoC5/USBUART_std.c ****                         if(USBUART_interfaceSetting[pEP->interface] == pEP->altSetting)
 1315              		.loc 1 629 0
 1316 0180 7B69     		ldr	r3, [r7, #20]
 1317 0182 1B78     		ldrb	r3, [r3]	@ zero_extendqisi2
 1318 0184 464A     		ldr	r2, .L107+4
 1319 0186 D35C     		ldrb	r3, [r2, r3]
 1320 0188 DAB2     		uxtb	r2, r3
 1321 018a 7B69     		ldr	r3, [r7, #20]
 1322 018c 5B78     		ldrb	r3, [r3, #1]	@ zero_extendqisi2
 1323 018e 9A42     		cmp	r2, r3
 1324 0190 6BD1     		bne	.L90
 630:.\Generated_Source\PSoC5/USBUART_std.c ****                         {
 631:.\Generated_Source\PSoC5/USBUART_std.c ****                             epType = pEP->attributes & USBUART_EP_TYPE_MASK;
 1325              		.loc 1 631 0
 1326 0192 7B69     		ldr	r3, [r7, #20]
 1327 0194 DB78     		ldrb	r3, [r3, #3]	@ zero_extendqisi2
 1328 0196 03F00303 		and	r3, r3, #3
 1329 019a FB72     		strb	r3, [r7, #11]
 632:.\Generated_Source\PSoC5/USBUART_std.c ****                             if ((pEP->addr & USBUART_DIR_IN) != 0u)
 1330              		.loc 1 632 0
 1331 019c 7B69     		ldr	r3, [r7, #20]
 1332 019e 9B78     		ldrb	r3, [r3, #2]	@ zero_extendqisi2
 1333 01a0 DBB2     		uxtb	r3, r3
 1334 01a2 5BB2     		sxtb	r3, r3
 1335 01a4 002B     		cmp	r3, #0
 1336 01a6 25DA     		bge	.L92
 633:.\Generated_Source\PSoC5/USBUART_std.c ****                             {
 634:.\Generated_Source\PSoC5/USBUART_std.c ****                                 /* IN Endpoint */
 635:.\Generated_Source\PSoC5/USBUART_std.c ****                                 USBUART_EP[i].apiEpState = USBUART_EVENT_PENDING;
 1337              		.loc 1 635 0
 1338 01a8 7A7F     		ldrb	r2, [r7, #29]	@ zero_extendqisi2
 1339 01aa 3C49     		ldr	r1, .L107
 1340 01ac 1346     		mov	r3, r2
ARM GAS  C:\Users\VICTOR~1\AppData\Local\Temp\ccARlXCX.s 			page 37


 1341 01ae 5B00     		lsls	r3, r3, #1
 1342 01b0 1344     		add	r3, r3, r2
 1343 01b2 9B00     		lsls	r3, r3, #2
 1344 01b4 0B44     		add	r3, r3, r1
 1345 01b6 0122     		movs	r2, #1
 1346 01b8 5A70     		strb	r2, [r3, #1]
 636:.\Generated_Source\PSoC5/USBUART_std.c ****                                 USBUART_EP[i].epMode = (epType == USBUART_EP_TYPE_ISOC) ?
 1347              		.loc 1 636 0
 1348 01ba 797F     		ldrb	r1, [r7, #29]	@ zero_extendqisi2
 1349 01bc FB7A     		ldrb	r3, [r7, #11]	@ zero_extendqisi2
 1350 01be 012B     		cmp	r3, #1
 1351 01c0 01D1     		bne	.L93
 1352              		.loc 1 636 0 is_stmt 0 discriminator 1
 1353 01c2 0722     		movs	r2, #7
 1354 01c4 00E0     		b	.L94
 1355              	.L93:
 1356              		.loc 1 636 0 discriminator 2
 1357 01c6 0D22     		movs	r2, #13
 1358              	.L94:
 1359              		.loc 1 636 0 discriminator 3
 1360 01c8 3448     		ldr	r0, .L107
 1361 01ca 0B46     		mov	r3, r1
 1362 01cc 5B00     		lsls	r3, r3, #1
 1363 01ce 0B44     		add	r3, r3, r1
 1364 01d0 9B00     		lsls	r3, r3, #2
 1365 01d2 0344     		add	r3, r3, r0
 1366 01d4 5A71     		strb	r2, [r3, #5]
 637:.\Generated_Source\PSoC5/USBUART_std.c ****                                                         USBUART_MODE_ISO_IN : USBUART_MODE_ACK_IN;
 638:.\Generated_Source\PSoC5/USBUART_std.c ****                                 /* Find and initialize CDC IN endpoint number */
 639:.\Generated_Source\PSoC5/USBUART_std.c ****                                 #if defined(USBUART_ENABLE_CDC_CLASS)
 640:.\Generated_Source\PSoC5/USBUART_std.c ****                                     if(((pEP->bMisc == USBUART_CLASS_CDC_DATA) ||
 1367              		.loc 1 640 0 is_stmt 1 discriminator 3
 1368 01d6 7B69     		ldr	r3, [r7, #20]
 1369 01d8 9B79     		ldrb	r3, [r3, #6]	@ zero_extendqisi2
 1370 01da 0A2B     		cmp	r3, #10
 1371 01dc 03D0     		beq	.L95
 641:.\Generated_Source\PSoC5/USBUART_std.c ****                                         (pEP->bMisc == USBUART_CLASS_CDC)) &&
 1372              		.loc 1 641 0 discriminator 1
 1373 01de 7B69     		ldr	r3, [r7, #20]
 1374 01e0 9B79     		ldrb	r3, [r3, #6]	@ zero_extendqisi2
 640:.\Generated_Source\PSoC5/USBUART_std.c ****                                     if(((pEP->bMisc == USBUART_CLASS_CDC_DATA) ||
 1375              		.loc 1 640 0 discriminator 1
 1376 01e2 022B     		cmp	r3, #2
 1377 01e4 2BD1     		bne	.L97
 1378              	.L95:
 1379              		.loc 1 641 0
 1380 01e6 FB7A     		ldrb	r3, [r7, #11]	@ zero_extendqisi2
 1381 01e8 032B     		cmp	r3, #3
 1382 01ea 28D0     		beq	.L97
 642:.\Generated_Source\PSoC5/USBUART_std.c ****                                         (epType != USBUART_EP_TYPE_INT))
 643:.\Generated_Source\PSoC5/USBUART_std.c ****                                     {
 644:.\Generated_Source\PSoC5/USBUART_std.c ****                                         USBUART_cdc_data_in_ep = i;
 1383              		.loc 1 644 0
 1384 01ec 304B     		ldr	r3, .L107+20
 1385 01ee 7A7F     		ldrb	r2, [r7, #29]
 1386 01f0 1A70     		strb	r2, [r3]
 1387 01f2 24E0     		b	.L97
ARM GAS  C:\Users\VICTOR~1\AppData\Local\Temp\ccARlXCX.s 			page 38


 1388              	.L92:
 645:.\Generated_Source\PSoC5/USBUART_std.c ****                                     }
 646:.\Generated_Source\PSoC5/USBUART_std.c ****                                 #endif  /*  USBUART_ENABLE_CDC_CLASS*/
 647:.\Generated_Source\PSoC5/USBUART_std.c ****                                 #if ( defined(USBUART_ENABLE_MIDI_STREAMING) && \
 648:.\Generated_Source\PSoC5/USBUART_std.c ****                                              (USBUART_MIDI_IN_BUFF_SIZE > 0) )
 649:.\Generated_Source\PSoC5/USBUART_std.c ****                                     if((pEP->bMisc == USBUART_CLASS_AUDIO) &&
 650:.\Generated_Source\PSoC5/USBUART_std.c ****                                        (epType == USBUART_EP_TYPE_BULK))
 651:.\Generated_Source\PSoC5/USBUART_std.c ****                                     {
 652:.\Generated_Source\PSoC5/USBUART_std.c ****                                         USBUART_midi_in_ep = i;
 653:.\Generated_Source\PSoC5/USBUART_std.c ****                                     }
 654:.\Generated_Source\PSoC5/USBUART_std.c ****                                 #endif  /*  USBUART_ENABLE_MIDI_STREAMING*/
 655:.\Generated_Source\PSoC5/USBUART_std.c ****                             }
 656:.\Generated_Source\PSoC5/USBUART_std.c ****                             else
 657:.\Generated_Source\PSoC5/USBUART_std.c ****                             {
 658:.\Generated_Source\PSoC5/USBUART_std.c ****                                 /* OUT Endpoint */
 659:.\Generated_Source\PSoC5/USBUART_std.c ****                                 USBUART_EP[i].apiEpState = USBUART_NO_EVENT_PENDING;
 1389              		.loc 1 659 0
 1390 01f4 7A7F     		ldrb	r2, [r7, #29]	@ zero_extendqisi2
 1391 01f6 2949     		ldr	r1, .L107
 1392 01f8 1346     		mov	r3, r2
 1393 01fa 5B00     		lsls	r3, r3, #1
 1394 01fc 1344     		add	r3, r3, r2
 1395 01fe 9B00     		lsls	r3, r3, #2
 1396 0200 0B44     		add	r3, r3, r1
 1397 0202 0022     		movs	r2, #0
 1398 0204 5A70     		strb	r2, [r3, #1]
 660:.\Generated_Source\PSoC5/USBUART_std.c ****                                 USBUART_EP[i].epMode = (epType == USBUART_EP_TYPE_ISOC) ?
 1399              		.loc 1 660 0
 1400 0206 797F     		ldrb	r1, [r7, #29]	@ zero_extendqisi2
 1401 0208 FB7A     		ldrb	r3, [r7, #11]	@ zero_extendqisi2
 1402 020a 012B     		cmp	r3, #1
 1403 020c 01D1     		bne	.L98
 1404              		.loc 1 660 0 is_stmt 0 discriminator 1
 1405 020e 0522     		movs	r2, #5
 1406 0210 00E0     		b	.L99
 1407              	.L98:
 1408              		.loc 1 660 0 discriminator 2
 1409 0212 0922     		movs	r2, #9
 1410              	.L99:
 1411              		.loc 1 660 0 discriminator 3
 1412 0214 2148     		ldr	r0, .L107
 1413 0216 0B46     		mov	r3, r1
 1414 0218 5B00     		lsls	r3, r3, #1
 1415 021a 0B44     		add	r3, r3, r1
 1416 021c 9B00     		lsls	r3, r3, #2
 1417 021e 0344     		add	r3, r3, r0
 1418 0220 5A71     		strb	r2, [r3, #5]
 661:.\Generated_Source\PSoC5/USBUART_std.c ****                                                     USBUART_MODE_ISO_OUT : USBUART_MODE_ACK_OUT;
 662:.\Generated_Source\PSoC5/USBUART_std.c ****                                 /* Find and initialize CDC IN endpoint number */
 663:.\Generated_Source\PSoC5/USBUART_std.c ****                                 #if defined(USBUART_ENABLE_CDC_CLASS)
 664:.\Generated_Source\PSoC5/USBUART_std.c ****                                     if(((pEP->bMisc == USBUART_CLASS_CDC_DATA) ||
 1419              		.loc 1 664 0 is_stmt 1 discriminator 3
 1420 0222 7B69     		ldr	r3, [r7, #20]
 1421 0224 9B79     		ldrb	r3, [r3, #6]	@ zero_extendqisi2
 1422 0226 0A2B     		cmp	r3, #10
 1423 0228 03D0     		beq	.L100
 665:.\Generated_Source\PSoC5/USBUART_std.c ****                                         (pEP->bMisc == USBUART_CLASS_CDC)) &&
ARM GAS  C:\Users\VICTOR~1\AppData\Local\Temp\ccARlXCX.s 			page 39


 1424              		.loc 1 665 0 discriminator 1
 1425 022a 7B69     		ldr	r3, [r7, #20]
 1426 022c 9B79     		ldrb	r3, [r3, #6]	@ zero_extendqisi2
 664:.\Generated_Source\PSoC5/USBUART_std.c ****                                     if(((pEP->bMisc == USBUART_CLASS_CDC_DATA) ||
 1427              		.loc 1 664 0 discriminator 1
 1428 022e 022B     		cmp	r3, #2
 1429 0230 05D1     		bne	.L97
 1430              	.L100:
 1431              		.loc 1 665 0
 1432 0232 FB7A     		ldrb	r3, [r7, #11]	@ zero_extendqisi2
 1433 0234 032B     		cmp	r3, #3
 1434 0236 02D0     		beq	.L97
 666:.\Generated_Source\PSoC5/USBUART_std.c ****                                         (epType != USBUART_EP_TYPE_INT))
 667:.\Generated_Source\PSoC5/USBUART_std.c ****                                     {
 668:.\Generated_Source\PSoC5/USBUART_std.c ****                                         USBUART_cdc_data_out_ep = i;
 1435              		.loc 1 668 0
 1436 0238 1E4B     		ldr	r3, .L107+24
 1437 023a 7A7F     		ldrb	r2, [r7, #29]
 1438 023c 1A70     		strb	r2, [r3]
 1439              	.L97:
 669:.\Generated_Source\PSoC5/USBUART_std.c ****                                     }
 670:.\Generated_Source\PSoC5/USBUART_std.c ****                                 #endif  /*  USBUART_ENABLE_CDC_CLASS*/
 671:.\Generated_Source\PSoC5/USBUART_std.c ****                                 #if ( defined(USBUART_ENABLE_MIDI_STREAMING) && \
 672:.\Generated_Source\PSoC5/USBUART_std.c ****                                              (USBUART_MIDI_OUT_BUFF_SIZE > 0) )
 673:.\Generated_Source\PSoC5/USBUART_std.c ****                                     if((pEP->bMisc == USBUART_CLASS_AUDIO) &&
 674:.\Generated_Source\PSoC5/USBUART_std.c ****                                        (epType == USBUART_EP_TYPE_BULK))
 675:.\Generated_Source\PSoC5/USBUART_std.c ****                                     {
 676:.\Generated_Source\PSoC5/USBUART_std.c ****                                         USBUART_midi_out_ep = i;
 677:.\Generated_Source\PSoC5/USBUART_std.c ****                                     }
 678:.\Generated_Source\PSoC5/USBUART_std.c ****                                 #endif  /*  USBUART_ENABLE_MIDI_STREAMING*/
 679:.\Generated_Source\PSoC5/USBUART_std.c ****                             }
 680:.\Generated_Source\PSoC5/USBUART_std.c ****                             USBUART_EP[i].addr = pEP->addr;
 1440              		.loc 1 680 0
 1441 023e 7A7F     		ldrb	r2, [r7, #29]	@ zero_extendqisi2
 1442 0240 7B69     		ldr	r3, [r7, #20]
 1443 0242 9978     		ldrb	r1, [r3, #2]	@ zero_extendqisi2
 1444 0244 1548     		ldr	r0, .L107
 1445 0246 1346     		mov	r3, r2
 1446 0248 5B00     		lsls	r3, r3, #1
 1447 024a 1344     		add	r3, r3, r2
 1448 024c 9B00     		lsls	r3, r3, #2
 1449 024e 0344     		add	r3, r3, r0
 1450 0250 0A46     		mov	r2, r1
 1451 0252 1A71     		strb	r2, [r3, #4]
 681:.\Generated_Source\PSoC5/USBUART_std.c ****                             USBUART_EP[i].attrib = pEP->attributes;
 1452              		.loc 1 681 0
 1453 0254 7A7F     		ldrb	r2, [r7, #29]	@ zero_extendqisi2
 1454 0256 7B69     		ldr	r3, [r7, #20]
 1455 0258 D978     		ldrb	r1, [r3, #3]	@ zero_extendqisi2
 1456 025a 1048     		ldr	r0, .L107
 1457 025c 1346     		mov	r3, r2
 1458 025e 5B00     		lsls	r3, r3, #1
 1459 0260 1344     		add	r3, r3, r2
 1460 0262 9B00     		lsls	r3, r3, #2
 1461 0264 0344     		add	r3, r3, r0
 1462 0266 0A46     		mov	r2, r1
 1463 0268 1A70     		strb	r2, [r3]
ARM GAS  C:\Users\VICTOR~1\AppData\Local\Temp\ccARlXCX.s 			page 40


 1464              	.L90:
 682:.\Generated_Source\PSoC5/USBUART_std.c **** 
 683:.\Generated_Source\PSoC5/USBUART_std.c ****                             #if(USBUART_EP_MM == USBUART__EP_DMAAUTO)
 684:.\Generated_Source\PSoC5/USBUART_std.c ****                                 break;      /* use first EP setting in Auto memory managment */
 685:.\Generated_Source\PSoC5/USBUART_std.c ****                             #endif /*  USBUART_EP_MM == USBUART__EP_DMAAUTO */
 686:.\Generated_Source\PSoC5/USBUART_std.c ****                         }
 687:.\Generated_Source\PSoC5/USBUART_std.c ****                     }
 688:.\Generated_Source\PSoC5/USBUART_std.c ****                     pEP = &pEP[1u];
 1465              		.loc 1 688 0
 1466 026a 7B69     		ldr	r3, [r7, #20]
 1467 026c 0833     		adds	r3, r3, #8
 1468 026e 7B61     		str	r3, [r7, #20]
 619:.\Generated_Source\PSoC5/USBUART_std.c ****                 for (cur_ep = 0u; cur_ep < ep; cur_ep++)
 1469              		.loc 1 619 0
 1470 0270 BB7F     		ldrb	r3, [r7, #30]	@ zero_extendqisi2
 1471 0272 0133     		adds	r3, r3, #1
 1472 0274 BB77     		strb	r3, [r7, #30]
 1473              	.L89:
 619:.\Generated_Source\PSoC5/USBUART_std.c ****                 for (cur_ep = 0u; cur_ep < ep; cur_ep++)
 1474              		.loc 1 619 0 is_stmt 0 discriminator 1
 1475 0276 BA7F     		ldrb	r2, [r7, #30]	@ zero_extendqisi2
 1476 0278 FB7F     		ldrb	r3, [r7, #31]	@ zero_extendqisi2
 1477 027a 9A42     		cmp	r2, r3
 1478 027c FFF45EAF 		bcc	.L101
 613:.\Generated_Source\PSoC5/USBUART_std.c ****             for (i = USBUART_EP1; i < USBUART_MAX_EP; i++)
 1479              		.loc 1 613 0 is_stmt 1
 1480 0280 7B7F     		ldrb	r3, [r7, #29]	@ zero_extendqisi2
 1481 0282 0133     		adds	r3, r3, #1
 1482 0284 7B77     		strb	r3, [r7, #29]
 1483              	.L88:
 613:.\Generated_Source\PSoC5/USBUART_std.c ****             for (i = USBUART_EP1; i < USBUART_MAX_EP; i++)
 1484              		.loc 1 613 0 is_stmt 0 discriminator 1
 1485 0286 7B7F     		ldrb	r3, [r7, #29]	@ zero_extendqisi2
 1486 0288 082B     		cmp	r3, #8
 1487 028a 7FF651AF 		bls	.L102
 689:.\Generated_Source\PSoC5/USBUART_std.c ****                 }
 690:.\Generated_Source\PSoC5/USBUART_std.c ****             }
 691:.\Generated_Source\PSoC5/USBUART_std.c ****         #endif /*  (USBUART_EP_MA == USBUART__MA_DYNAMIC) */
 692:.\Generated_Source\PSoC5/USBUART_std.c **** 
 693:.\Generated_Source\PSoC5/USBUART_std.c ****         /* Init class array for each interface and interface number for each EP.
 694:.\Generated_Source\PSoC5/USBUART_std.c ****         *  It is used for handling Class specific requests directed to either an
 695:.\Generated_Source\PSoC5/USBUART_std.c ****         *  interface or the endpoint.
 696:.\Generated_Source\PSoC5/USBUART_std.c ****         */
 697:.\Generated_Source\PSoC5/USBUART_std.c ****         /* p_list points the endpoint setting table. */
 698:.\Generated_Source\PSoC5/USBUART_std.c ****         pEP = (const T_USBUART_EP_SETTINGS_BLOCK CYCODE *) pTmp->p_list;
 1488              		.loc 1 698 0 is_stmt 1
 1489 028e 3B69     		ldr	r3, [r7, #16]
 1490 0290 5B68     		ldr	r3, [r3, #4]
 1491 0292 7B61     		str	r3, [r7, #20]
 699:.\Generated_Source\PSoC5/USBUART_std.c ****         for (i = 0u; i < ep; i++)
 1492              		.loc 1 699 0
 1493 0294 0023     		movs	r3, #0
 1494 0296 7B77     		strb	r3, [r7, #29]
 1495 0298 23E0     		b	.L103
 1496              	.L108:
 1497 029a 00BF     		.align	2
 1498              	.L107:
ARM GAS  C:\Users\VICTOR~1\AppData\Local\Temp\ccARlXCX.s 			page 41


 1499 029c 00000000 		.word	USBUART_EP
 1500 02a0 00000000 		.word	USBUART_interfaceSetting
 1501 02a4 00000000 		.word	USBUART_interfaceSetting_last
 1502 02a8 00000000 		.word	USBUART_configuration
 1503 02ac 00000000 		.word	USBUART_deviceStatus
 1504 02b0 00000000 		.word	USBUART_cdc_data_in_ep
 1505 02b4 00000000 		.word	USBUART_cdc_data_out_ep
 1506              	.L104:
 700:.\Generated_Source\PSoC5/USBUART_std.c ****         {
 701:.\Generated_Source\PSoC5/USBUART_std.c ****             /* Configure interface number for each EP*/
 702:.\Generated_Source\PSoC5/USBUART_std.c ****             USBUART_EP[pEP->addr & USBUART_DIR_UNUSED].interface = pEP->interface;
 1507              		.loc 1 702 0 discriminator 2
 1508 02b8 7B69     		ldr	r3, [r7, #20]
 1509 02ba 9B78     		ldrb	r3, [r3, #2]	@ zero_extendqisi2
 1510 02bc 03F07F02 		and	r2, r3, #127
 1511 02c0 7B69     		ldr	r3, [r7, #20]
 1512 02c2 1978     		ldrb	r1, [r3]	@ zero_extendqisi2
 1513 02c4 1D48     		ldr	r0, .L109
 1514 02c6 1346     		mov	r3, r2
 1515 02c8 5B00     		lsls	r3, r3, #1
 1516 02ca 1344     		add	r3, r3, r2
 1517 02cc 9B00     		lsls	r3, r3, #2
 1518 02ce 0344     		add	r3, r3, r0
 1519 02d0 0833     		adds	r3, r3, #8
 1520 02d2 0A46     		mov	r2, r1
 1521 02d4 9A70     		strb	r2, [r3, #2]
 703:.\Generated_Source\PSoC5/USBUART_std.c ****             pEP = &pEP[1u];
 1522              		.loc 1 703 0 discriminator 2
 1523 02d6 7B69     		ldr	r3, [r7, #20]
 1524 02d8 0833     		adds	r3, r3, #8
 1525 02da 7B61     		str	r3, [r7, #20]
 699:.\Generated_Source\PSoC5/USBUART_std.c ****         for (i = 0u; i < ep; i++)
 1526              		.loc 1 699 0 discriminator 2
 1527 02dc 7B7F     		ldrb	r3, [r7, #29]	@ zero_extendqisi2
 1528 02de 0133     		adds	r3, r3, #1
 1529 02e0 7B77     		strb	r3, [r7, #29]
 1530              	.L103:
 699:.\Generated_Source\PSoC5/USBUART_std.c ****         for (i = 0u; i < ep; i++)
 1531              		.loc 1 699 0 is_stmt 0 discriminator 1
 1532 02e2 7A7F     		ldrb	r2, [r7, #29]	@ zero_extendqisi2
 1533 02e4 FB7F     		ldrb	r3, [r7, #31]	@ zero_extendqisi2
 1534 02e6 9A42     		cmp	r2, r3
 1535 02e8 E6D3     		bcc	.L104
 704:.\Generated_Source\PSoC5/USBUART_std.c ****         }
 705:.\Generated_Source\PSoC5/USBUART_std.c ****         /* Init pointer on interface class table*/
 706:.\Generated_Source\PSoC5/USBUART_std.c ****         USBUART_interfaceClass = USBUART_GetInterfaceClassTablePtr();
 1536              		.loc 1 706 0 is_stmt 1
 1537 02ea FFF7FEFF 		bl	USBUART_GetInterfaceClassTablePtr
 1538 02ee 0246     		mov	r2, r0
 1539 02f0 134B     		ldr	r3, .L109+4
 1540 02f2 1A60     		str	r2, [r3]
 707:.\Generated_Source\PSoC5/USBUART_std.c ****         /* Set the endpoint buffer addresses */
 708:.\Generated_Source\PSoC5/USBUART_std.c **** 
 709:.\Generated_Source\PSoC5/USBUART_std.c ****         #if(USBUART_EP_MM != USBUART__EP_DMAAUTO)
 710:.\Generated_Source\PSoC5/USBUART_std.c ****             for (ep = USBUART_EP1; ep < USBUART_MAX_EP; ep++)
 1541              		.loc 1 710 0
 1542 02f4 0123     		movs	r3, #1
ARM GAS  C:\Users\VICTOR~1\AppData\Local\Temp\ccARlXCX.s 			page 42


 1543 02f6 FB77     		strb	r3, [r7, #31]
 1544 02f8 18E0     		b	.L105
 1545              	.L106:
 711:.\Generated_Source\PSoC5/USBUART_std.c ****             {
 712:.\Generated_Source\PSoC5/USBUART_std.c ****                 USBUART_EP[ep].buffOffset = buffCount;
 1546              		.loc 1 712 0 discriminator 2
 1547 02fa FA7F     		ldrb	r2, [r7, #31]	@ zero_extendqisi2
 1548 02fc 0F49     		ldr	r1, .L109
 1549 02fe 1346     		mov	r3, r2
 1550 0300 5B00     		lsls	r3, r3, #1
 1551 0302 1344     		add	r3, r3, r2
 1552 0304 9B00     		lsls	r3, r3, #2
 1553 0306 0B44     		add	r3, r3, r1
 1554 0308 7A8B     		ldrh	r2, [r7, #26]	@ movhi
 1555 030a DA80     		strh	r2, [r3, #6]	@ movhi
 713:.\Generated_Source\PSoC5/USBUART_std.c ****                  buffCount += USBUART_EP[ep].bufferSize;
 1556              		.loc 1 713 0 discriminator 2
 1557 030c FA7F     		ldrb	r2, [r7, #31]	@ zero_extendqisi2
 1558 030e 0B49     		ldr	r1, .L109
 1559 0310 1346     		mov	r3, r2
 1560 0312 5B00     		lsls	r3, r3, #1
 1561 0314 1344     		add	r3, r3, r2
 1562 0316 9B00     		lsls	r3, r3, #2
 1563 0318 0B44     		add	r3, r3, r1
 1564 031a 0833     		adds	r3, r3, #8
 1565 031c 1B88     		ldrh	r3, [r3]	@ movhi
 1566 031e 9AB2     		uxth	r2, r3
 1567 0320 7B8B     		ldrh	r3, [r7, #26]	@ movhi
 1568 0322 1344     		add	r3, r3, r2
 1569 0324 7B83     		strh	r3, [r7, #26]	@ movhi
 710:.\Generated_Source\PSoC5/USBUART_std.c ****             for (ep = USBUART_EP1; ep < USBUART_MAX_EP; ep++)
 1570              		.loc 1 710 0 discriminator 2
 1571 0326 FB7F     		ldrb	r3, [r7, #31]	@ zero_extendqisi2
 1572 0328 0133     		adds	r3, r3, #1
 1573 032a FB77     		strb	r3, [r7, #31]
 1574              	.L105:
 710:.\Generated_Source\PSoC5/USBUART_std.c ****             for (ep = USBUART_EP1; ep < USBUART_MAX_EP; ep++)
 1575              		.loc 1 710 0 is_stmt 0 discriminator 1
 1576 032c FB7F     		ldrb	r3, [r7, #31]	@ zero_extendqisi2
 1577 032e 082B     		cmp	r3, #8
 1578 0330 E3D9     		bls	.L106
 714:.\Generated_Source\PSoC5/USBUART_std.c ****             }
 715:.\Generated_Source\PSoC5/USBUART_std.c ****         #endif /*  USBUART_EP_MM != USBUART__EP_DMAAUTO */
 716:.\Generated_Source\PSoC5/USBUART_std.c **** 
 717:.\Generated_Source\PSoC5/USBUART_std.c ****         /* Configure hardware registers */
 718:.\Generated_Source\PSoC5/USBUART_std.c ****         USBUART_ConfigReg();
 1579              		.loc 1 718 0 is_stmt 1
 1580 0332 FFF7FEFF 		bl	USBUART_ConfigReg
 1581              	.L79:
 719:.\Generated_Source\PSoC5/USBUART_std.c ****     } /* USBUART_configuration > 0 */
 720:.\Generated_Source\PSoC5/USBUART_std.c **** }
 1582              		.loc 1 720 0
 1583 0336 2037     		adds	r7, r7, #32
 1584 0338 BD46     		mov	sp, r7
 1585              		@ sp needed
 1586 033a 80BD     		pop	{r7, pc}
 1587              	.L110:
ARM GAS  C:\Users\VICTOR~1\AppData\Local\Temp\ccARlXCX.s 			page 43


 1588              		.align	2
 1589              	.L109:
 1590 033c 00000000 		.word	USBUART_EP
 1591 0340 00000000 		.word	USBUART_interfaceClass
 1592              		.cfi_endproc
 1593              	.LFE3:
 1594              		.size	USBUART_Config, .-USBUART_Config
 1595              		.section	.text.USBUART_ConfigAltChanged,"ax",%progbits
 1596              		.align	2
 1597              		.global	USBUART_ConfigAltChanged
 1598              		.thumb
 1599              		.thumb_func
 1600              		.type	USBUART_ConfigAltChanged, %function
 1601              	USBUART_ConfigAltChanged:
 1602              	.LFB4:
 721:.\Generated_Source\PSoC5/USBUART_std.c **** 
 722:.\Generated_Source\PSoC5/USBUART_std.c **** 
 723:.\Generated_Source\PSoC5/USBUART_std.c **** /*******************************************************************************
 724:.\Generated_Source\PSoC5/USBUART_std.c **** * Function Name: USBUART_ConfigAltChanged
 725:.\Generated_Source\PSoC5/USBUART_std.c **** ********************************************************************************
 726:.\Generated_Source\PSoC5/USBUART_std.c **** *
 727:.\Generated_Source\PSoC5/USBUART_std.c **** * Summary:
 728:.\Generated_Source\PSoC5/USBUART_std.c **** *  This routine update configuration for the required endpoints only.
 729:.\Generated_Source\PSoC5/USBUART_std.c **** *  It is called after SET_INTERFACE request when Static memory allocation used.
 730:.\Generated_Source\PSoC5/USBUART_std.c **** *
 731:.\Generated_Source\PSoC5/USBUART_std.c **** * Parameters:
 732:.\Generated_Source\PSoC5/USBUART_std.c **** *  None.
 733:.\Generated_Source\PSoC5/USBUART_std.c **** *
 734:.\Generated_Source\PSoC5/USBUART_std.c **** * Return:
 735:.\Generated_Source\PSoC5/USBUART_std.c **** *  None.
 736:.\Generated_Source\PSoC5/USBUART_std.c **** *
 737:.\Generated_Source\PSoC5/USBUART_std.c **** * Reentrant:
 738:.\Generated_Source\PSoC5/USBUART_std.c **** *  No.
 739:.\Generated_Source\PSoC5/USBUART_std.c **** *
 740:.\Generated_Source\PSoC5/USBUART_std.c **** *******************************************************************************/
 741:.\Generated_Source\PSoC5/USBUART_std.c **** void USBUART_ConfigAltChanged(void) 
 742:.\Generated_Source\PSoC5/USBUART_std.c **** {
 1603              		.loc 1 742 0
 1604              		.cfi_startproc
 1605              		@ args = 0, pretend = 0, frame = 16
 1606              		@ frame_needed = 1, uses_anonymous_args = 0
 1607 0000 80B5     		push	{r7, lr}
 1608              		.cfi_def_cfa_offset 8
 1609              		.cfi_offset 7, -8
 1610              		.cfi_offset 14, -4
 1611 0002 84B0     		sub	sp, sp, #16
 1612              		.cfi_def_cfa_offset 24
 1613 0004 00AF     		add	r7, sp, #0
 1614              		.cfi_def_cfa_register 7
 743:.\Generated_Source\PSoC5/USBUART_std.c ****     uint8 ep;
 744:.\Generated_Source\PSoC5/USBUART_std.c ****     uint8 cur_ep;
 745:.\Generated_Source\PSoC5/USBUART_std.c ****     uint8 i;
 746:.\Generated_Source\PSoC5/USBUART_std.c ****     uint8 epType;
 747:.\Generated_Source\PSoC5/USBUART_std.c ****     uint8 ri;
 748:.\Generated_Source\PSoC5/USBUART_std.c **** 
 749:.\Generated_Source\PSoC5/USBUART_std.c ****     const T_USBUART_LUT CYCODE *pTmp;
 750:.\Generated_Source\PSoC5/USBUART_std.c ****     const T_USBUART_EP_SETTINGS_BLOCK CYCODE *pEP;
ARM GAS  C:\Users\VICTOR~1\AppData\Local\Temp\ccARlXCX.s 			page 44


 751:.\Generated_Source\PSoC5/USBUART_std.c **** 
 752:.\Generated_Source\PSoC5/USBUART_std.c **** 
 753:.\Generated_Source\PSoC5/USBUART_std.c ****     /* Init Endpoints and Device Status if configured */
 754:.\Generated_Source\PSoC5/USBUART_std.c ****     if(USBUART_configuration > 0u)
 1615              		.loc 1 754 0
 1616 0006 8F4B     		ldr	r3, .L122
 1617 0008 1B78     		ldrb	r3, [r3]
 1618 000a DBB2     		uxtb	r3, r3
 1619 000c 002B     		cmp	r3, #0
 1620 000e 00F01581 		beq	.L111
 755:.\Generated_Source\PSoC5/USBUART_std.c ****     {
 756:.\Generated_Source\PSoC5/USBUART_std.c ****         pTmp = USBUART_GetConfigTablePtr(USBUART_configuration - 1u);
 1621              		.loc 1 756 0
 1622 0012 8C4B     		ldr	r3, .L122
 1623 0014 1B78     		ldrb	r3, [r3]
 1624 0016 DBB2     		uxtb	r3, r3
 1625 0018 013B     		subs	r3, r3, #1
 1626 001a DBB2     		uxtb	r3, r3
 1627 001c 1846     		mov	r0, r3
 1628 001e FFF7FEFF 		bl	USBUART_GetConfigTablePtr
 1629 0022 7860     		str	r0, [r7, #4]
 757:.\Generated_Source\PSoC5/USBUART_std.c ****         pTmp = &pTmp[1u];
 1630              		.loc 1 757 0
 1631 0024 7B68     		ldr	r3, [r7, #4]
 1632 0026 0833     		adds	r3, r3, #8
 1633 0028 7B60     		str	r3, [r7, #4]
 758:.\Generated_Source\PSoC5/USBUART_std.c ****         ep = pTmp->c;  /* For this table, c is the number of endpoints configurations  */
 1634              		.loc 1 758 0
 1635 002a 7B68     		ldr	r3, [r7, #4]
 1636 002c 1B78     		ldrb	r3, [r3]
 1637 002e FB70     		strb	r3, [r7, #3]
 759:.\Generated_Source\PSoC5/USBUART_std.c **** 
 760:.\Generated_Source\PSoC5/USBUART_std.c ****         /* Do not touch EP which doesn't need reconfiguration */
 761:.\Generated_Source\PSoC5/USBUART_std.c ****         /* When Alt setting changed, the only required endpoints need to be reconfigured */
 762:.\Generated_Source\PSoC5/USBUART_std.c ****         /* p_list points the endpoint setting table. */
 763:.\Generated_Source\PSoC5/USBUART_std.c ****         pEP = (const T_USBUART_EP_SETTINGS_BLOCK CYCODE *) pTmp->p_list;
 1638              		.loc 1 763 0
 1639 0030 7B68     		ldr	r3, [r7, #4]
 1640 0032 5B68     		ldr	r3, [r3, #4]
 1641 0034 BB60     		str	r3, [r7, #8]
 764:.\Generated_Source\PSoC5/USBUART_std.c ****         for (i = 0u; i < ep; i++)
 1642              		.loc 1 764 0
 1643 0036 0023     		movs	r3, #0
 1644 0038 FB73     		strb	r3, [r7, #15]
 1645 003a FAE0     		b	.L113
 1646              	.L121:
 765:.\Generated_Source\PSoC5/USBUART_std.c ****         {
 766:.\Generated_Source\PSoC5/USBUART_std.c ****             /*If Alt setting changed and new is same with EP Alt */
 767:.\Generated_Source\PSoC5/USBUART_std.c ****             if((USBUART_interfaceSetting[pEP->interface] !=
 1647              		.loc 1 767 0
 1648 003c BB68     		ldr	r3, [r7, #8]
 1649 003e 1B78     		ldrb	r3, [r3]	@ zero_extendqisi2
 1650 0040 814A     		ldr	r2, .L122+4
 1651 0042 D35C     		ldrb	r3, [r2, r3]
 1652 0044 DAB2     		uxtb	r2, r3
 768:.\Generated_Source\PSoC5/USBUART_std.c ****                 USBUART_interfaceSetting_last[pEP->interface] ) &&
 1653              		.loc 1 768 0
ARM GAS  C:\Users\VICTOR~1\AppData\Local\Temp\ccARlXCX.s 			page 45


 1654 0046 BB68     		ldr	r3, [r7, #8]
 1655 0048 1B78     		ldrb	r3, [r3]	@ zero_extendqisi2
 1656 004a 8049     		ldr	r1, .L122+8
 1657 004c CB5C     		ldrb	r3, [r1, r3]
 1658 004e DBB2     		uxtb	r3, r3
 767:.\Generated_Source\PSoC5/USBUART_std.c ****             if((USBUART_interfaceSetting[pEP->interface] !=
 1659              		.loc 1 767 0
 1660 0050 9A42     		cmp	r2, r3
 1661 0052 00F0E880 		beq	.L114
 769:.\Generated_Source\PSoC5/USBUART_std.c ****                (USBUART_interfaceSetting[pEP->interface] == pEP->altSetting) &&
 1662              		.loc 1 769 0
 1663 0056 BB68     		ldr	r3, [r7, #8]
 1664 0058 1B78     		ldrb	r3, [r3]	@ zero_extendqisi2
 1665 005a 7B4A     		ldr	r2, .L122+4
 1666 005c D35C     		ldrb	r3, [r2, r3]
 1667 005e DAB2     		uxtb	r2, r3
 1668 0060 BB68     		ldr	r3, [r7, #8]
 1669 0062 5B78     		ldrb	r3, [r3, #1]	@ zero_extendqisi2
 768:.\Generated_Source\PSoC5/USBUART_std.c ****                 USBUART_interfaceSetting_last[pEP->interface] ) &&
 1670              		.loc 1 768 0
 1671 0064 9A42     		cmp	r2, r3
 1672 0066 40F0DE80 		bne	.L114
 770:.\Generated_Source\PSoC5/USBUART_std.c ****                (pEP->interface == CY_GET_REG8(USBUART_wIndexLo)))
 1673              		.loc 1 770 0
 1674 006a BB68     		ldr	r3, [r7, #8]
 1675 006c 1A78     		ldrb	r2, [r3]	@ zero_extendqisi2
 1676 006e 784B     		ldr	r3, .L122+12
 1677 0070 1B78     		ldrb	r3, [r3]
 1678 0072 DBB2     		uxtb	r3, r3
 769:.\Generated_Source\PSoC5/USBUART_std.c ****                (USBUART_interfaceSetting[pEP->interface] == pEP->altSetting) &&
 1679              		.loc 1 769 0
 1680 0074 9A42     		cmp	r2, r3
 1681 0076 40F0D680 		bne	.L114
 771:.\Generated_Source\PSoC5/USBUART_std.c ****             {
 772:.\Generated_Source\PSoC5/USBUART_std.c ****                 cur_ep = pEP->addr & USBUART_DIR_UNUSED;
 1682              		.loc 1 772 0
 1683 007a BB68     		ldr	r3, [r7, #8]
 1684 007c 9B78     		ldrb	r3, [r3, #2]	@ zero_extendqisi2
 1685 007e 03F07F03 		and	r3, r3, #127
 1686 0082 BB70     		strb	r3, [r7, #2]
 773:.\Generated_Source\PSoC5/USBUART_std.c ****                 ri = ((cur_ep - USBUART_EP1) << USBUART_EPX_CNTX_ADDR_SHIFT);
 1687              		.loc 1 773 0
 1688 0084 BB78     		ldrb	r3, [r7, #2]
 1689 0086 013B     		subs	r3, r3, #1
 1690 0088 DBB2     		uxtb	r3, r3
 1691 008a 1B01     		lsls	r3, r3, #4
 1692 008c 7B70     		strb	r3, [r7, #1]
 774:.\Generated_Source\PSoC5/USBUART_std.c ****                 epType = pEP->attributes & USBUART_EP_TYPE_MASK;
 1693              		.loc 1 774 0
 1694 008e BB68     		ldr	r3, [r7, #8]
 1695 0090 DB78     		ldrb	r3, [r3, #3]	@ zero_extendqisi2
 1696 0092 03F00303 		and	r3, r3, #3
 1697 0096 3B70     		strb	r3, [r7]
 775:.\Generated_Source\PSoC5/USBUART_std.c ****                 if ((pEP->addr & USBUART_DIR_IN) != 0u)
 1698              		.loc 1 775 0
 1699 0098 BB68     		ldr	r3, [r7, #8]
 1700 009a 9B78     		ldrb	r3, [r3, #2]	@ zero_extendqisi2
ARM GAS  C:\Users\VICTOR~1\AppData\Local\Temp\ccARlXCX.s 			page 46


 1701 009c DBB2     		uxtb	r3, r3
 1702 009e 5BB2     		sxtb	r3, r3
 1703 00a0 002B     		cmp	r3, #0
 1704 00a2 17DA     		bge	.L115
 776:.\Generated_Source\PSoC5/USBUART_std.c ****                 {
 777:.\Generated_Source\PSoC5/USBUART_std.c ****                     /* IN Endpoint */
 778:.\Generated_Source\PSoC5/USBUART_std.c ****                     USBUART_EP[cur_ep].apiEpState = USBUART_EVENT_PENDING;
 1705              		.loc 1 778 0
 1706 00a4 BA78     		ldrb	r2, [r7, #2]	@ zero_extendqisi2
 1707 00a6 6B49     		ldr	r1, .L122+16
 1708 00a8 1346     		mov	r3, r2
 1709 00aa 5B00     		lsls	r3, r3, #1
 1710 00ac 1344     		add	r3, r3, r2
 1711 00ae 9B00     		lsls	r3, r3, #2
 1712 00b0 0B44     		add	r3, r3, r1
 1713 00b2 0122     		movs	r2, #1
 1714 00b4 5A70     		strb	r2, [r3, #1]
 779:.\Generated_Source\PSoC5/USBUART_std.c ****                     USBUART_EP[cur_ep].epMode = (epType == USBUART_EP_TYPE_ISOC) ?
 1715              		.loc 1 779 0
 1716 00b6 B978     		ldrb	r1, [r7, #2]	@ zero_extendqisi2
 1717 00b8 3B78     		ldrb	r3, [r7]	@ zero_extendqisi2
 1718 00ba 012B     		cmp	r3, #1
 1719 00bc 01D1     		bne	.L116
 1720              		.loc 1 779 0 is_stmt 0 discriminator 1
 1721 00be 0722     		movs	r2, #7
 1722 00c0 00E0     		b	.L117
 1723              	.L116:
 1724              		.loc 1 779 0 discriminator 2
 1725 00c2 0D22     		movs	r2, #13
 1726              	.L117:
 1727              		.loc 1 779 0 discriminator 1
 1728 00c4 6348     		ldr	r0, .L122+16
 1729 00c6 0B46     		mov	r3, r1
 1730 00c8 5B00     		lsls	r3, r3, #1
 1731 00ca 0B44     		add	r3, r3, r1
 1732 00cc 9B00     		lsls	r3, r3, #2
 1733 00ce 0344     		add	r3, r3, r0
 1734 00d0 5A71     		strb	r2, [r3, #5]
 1735 00d2 16E0     		b	.L118
 1736              	.L115:
 780:.\Generated_Source\PSoC5/USBUART_std.c ****                                                 USBUART_MODE_ISO_IN : USBUART_MODE_ACK_IN;
 781:.\Generated_Source\PSoC5/USBUART_std.c ****                 }
 782:.\Generated_Source\PSoC5/USBUART_std.c ****                 else
 783:.\Generated_Source\PSoC5/USBUART_std.c ****                 {
 784:.\Generated_Source\PSoC5/USBUART_std.c ****                     /* OUT Endpoint */
 785:.\Generated_Source\PSoC5/USBUART_std.c ****                     USBUART_EP[cur_ep].apiEpState = USBUART_NO_EVENT_PENDING;
 1737              		.loc 1 785 0 is_stmt 1
 1738 00d4 BA78     		ldrb	r2, [r7, #2]	@ zero_extendqisi2
 1739 00d6 5F49     		ldr	r1, .L122+16
 1740 00d8 1346     		mov	r3, r2
 1741 00da 5B00     		lsls	r3, r3, #1
 1742 00dc 1344     		add	r3, r3, r2
 1743 00de 9B00     		lsls	r3, r3, #2
 1744 00e0 0B44     		add	r3, r3, r1
 1745 00e2 0022     		movs	r2, #0
 1746 00e4 5A70     		strb	r2, [r3, #1]
 786:.\Generated_Source\PSoC5/USBUART_std.c ****                     USBUART_EP[cur_ep].epMode = (epType == USBUART_EP_TYPE_ISOC) ?
ARM GAS  C:\Users\VICTOR~1\AppData\Local\Temp\ccARlXCX.s 			page 47


 1747              		.loc 1 786 0
 1748 00e6 B978     		ldrb	r1, [r7, #2]	@ zero_extendqisi2
 1749 00e8 3B78     		ldrb	r3, [r7]	@ zero_extendqisi2
 1750 00ea 012B     		cmp	r3, #1
 1751 00ec 01D1     		bne	.L119
 1752              		.loc 1 786 0 is_stmt 0 discriminator 1
 1753 00ee 0522     		movs	r2, #5
 1754 00f0 00E0     		b	.L120
 1755              	.L119:
 1756              		.loc 1 786 0 discriminator 2
 1757 00f2 0922     		movs	r2, #9
 1758              	.L120:
 1759              		.loc 1 786 0 discriminator 3
 1760 00f4 5748     		ldr	r0, .L122+16
 1761 00f6 0B46     		mov	r3, r1
 1762 00f8 5B00     		lsls	r3, r3, #1
 1763 00fa 0B44     		add	r3, r3, r1
 1764 00fc 9B00     		lsls	r3, r3, #2
 1765 00fe 0344     		add	r3, r3, r0
 1766 0100 5A71     		strb	r2, [r3, #5]
 1767              	.L118:
 787:.\Generated_Source\PSoC5/USBUART_std.c ****                                                 USBUART_MODE_ISO_OUT : USBUART_MODE_ACK_OUT;
 788:.\Generated_Source\PSoC5/USBUART_std.c ****                 }
 789:.\Generated_Source\PSoC5/USBUART_std.c ****                  /* Change the SIE mode for the selected EP to NAK ALL */
 790:.\Generated_Source\PSoC5/USBUART_std.c ****                  CY_SET_REG8((reg8 *)(USBUART_SIE_EP1_CR0_IND + ri), USBUART_MODE_NAK_IN_OUT);
 1768              		.loc 1 790 0 is_stmt 1
 1769 0102 7A78     		ldrb	r2, [r7, #1]	@ zero_extendqisi2
 1770 0104 544B     		ldr	r3, .L122+20
 1771 0106 1344     		add	r3, r3, r2
 1772 0108 0122     		movs	r2, #1
 1773 010a 1A70     		strb	r2, [r3]
 791:.\Generated_Source\PSoC5/USBUART_std.c ****                 USBUART_EP[cur_ep].bufferSize = pEP->bufferSize;
 1774              		.loc 1 791 0
 1775 010c BA78     		ldrb	r2, [r7, #2]	@ zero_extendqisi2
 1776 010e BB68     		ldr	r3, [r7, #8]
 1777 0110 9988     		ldrh	r1, [r3, #4]
 1778 0112 5048     		ldr	r0, .L122+16
 1779 0114 1346     		mov	r3, r2
 1780 0116 5B00     		lsls	r3, r3, #1
 1781 0118 1344     		add	r3, r3, r2
 1782 011a 9B00     		lsls	r3, r3, #2
 1783 011c 0344     		add	r3, r3, r0
 1784 011e 0833     		adds	r3, r3, #8
 1785 0120 0A46     		mov	r2, r1	@ movhi
 1786 0122 1A80     		strh	r2, [r3]	@ movhi
 792:.\Generated_Source\PSoC5/USBUART_std.c ****                 USBUART_EP[cur_ep].addr = pEP->addr;
 1787              		.loc 1 792 0
 1788 0124 BA78     		ldrb	r2, [r7, #2]	@ zero_extendqisi2
 1789 0126 BB68     		ldr	r3, [r7, #8]
 1790 0128 9978     		ldrb	r1, [r3, #2]	@ zero_extendqisi2
 1791 012a 4A48     		ldr	r0, .L122+16
 1792 012c 1346     		mov	r3, r2
 1793 012e 5B00     		lsls	r3, r3, #1
 1794 0130 1344     		add	r3, r3, r2
 1795 0132 9B00     		lsls	r3, r3, #2
 1796 0134 0344     		add	r3, r3, r0
 1797 0136 0A46     		mov	r2, r1
ARM GAS  C:\Users\VICTOR~1\AppData\Local\Temp\ccARlXCX.s 			page 48


 1798 0138 1A71     		strb	r2, [r3, #4]
 793:.\Generated_Source\PSoC5/USBUART_std.c ****                 USBUART_EP[cur_ep].attrib = pEP->attributes;
 1799              		.loc 1 793 0
 1800 013a BA78     		ldrb	r2, [r7, #2]	@ zero_extendqisi2
 1801 013c BB68     		ldr	r3, [r7, #8]
 1802 013e D978     		ldrb	r1, [r3, #3]	@ zero_extendqisi2
 1803 0140 4448     		ldr	r0, .L122+16
 1804 0142 1346     		mov	r3, r2
 1805 0144 5B00     		lsls	r3, r3, #1
 1806 0146 1344     		add	r3, r3, r2
 1807 0148 9B00     		lsls	r3, r3, #2
 1808 014a 0344     		add	r3, r3, r0
 1809 014c 0A46     		mov	r2, r1
 1810 014e 1A70     		strb	r2, [r3]
 794:.\Generated_Source\PSoC5/USBUART_std.c **** 
 795:.\Generated_Source\PSoC5/USBUART_std.c ****                 /* Clear the data toggle */
 796:.\Generated_Source\PSoC5/USBUART_std.c ****                 USBUART_EP[cur_ep].epToggle = 0u;
 1811              		.loc 1 796 0
 1812 0150 BA78     		ldrb	r2, [r7, #2]	@ zero_extendqisi2
 1813 0152 4049     		ldr	r1, .L122+16
 1814 0154 1346     		mov	r3, r2
 1815 0156 5B00     		lsls	r3, r3, #1
 1816 0158 1344     		add	r3, r3, r2
 1817 015a 9B00     		lsls	r3, r3, #2
 1818 015c 0B44     		add	r3, r3, r1
 1819 015e 0022     		movs	r2, #0
 1820 0160 DA70     		strb	r2, [r3, #3]
 797:.\Generated_Source\PSoC5/USBUART_std.c **** 
 798:.\Generated_Source\PSoC5/USBUART_std.c ****                 /* Dynamic reconfiguration for mode 3 transfer */
 799:.\Generated_Source\PSoC5/USBUART_std.c ****             #if(USBUART_EP_MM == USBUART__EP_DMAAUTO)
 800:.\Generated_Source\PSoC5/USBUART_std.c ****                 /* In_data_rdy for selected EP should be set to 0 */
 801:.\Generated_Source\PSoC5/USBUART_std.c ****                 * (reg8 *)(USBUART_ARB_EP1_CFG_IND + ri) &= (uint8)~USBUART_ARB_EPX_CFG_IN_DATA_RDY
 802:.\Generated_Source\PSoC5/USBUART_std.c **** 
 803:.\Generated_Source\PSoC5/USBUART_std.c ****                 /* write the EP number for which reconfiguration is required */
 804:.\Generated_Source\PSoC5/USBUART_std.c ****                 USBUART_DYN_RECONFIG_REG = (cur_ep - USBUART_EP1) <<
 805:.\Generated_Source\PSoC5/USBUART_std.c ****                                                     USBUART_DYN_RECONFIG_EP_SHIFT;
 806:.\Generated_Source\PSoC5/USBUART_std.c ****                 /* Set the dyn_config_en bit in dynamic reconfiguration register */
 807:.\Generated_Source\PSoC5/USBUART_std.c ****                 USBUART_DYN_RECONFIG_REG |= USBUART_DYN_RECONFIG_ENABLE;
 808:.\Generated_Source\PSoC5/USBUART_std.c ****                 /* wait for the dyn_config_rdy bit to set by the block,
 809:.\Generated_Source\PSoC5/USBUART_std.c ****                 *  this bit will be set to 1 when block is ready for reconfiguration.
 810:.\Generated_Source\PSoC5/USBUART_std.c ****                 */
 811:.\Generated_Source\PSoC5/USBUART_std.c ****                 while((USBUART_DYN_RECONFIG_REG & USBUART_DYN_RECONFIG_RDY_STS) == 0u)
 812:.\Generated_Source\PSoC5/USBUART_std.c ****                 {
 813:.\Generated_Source\PSoC5/USBUART_std.c ****                     ;
 814:.\Generated_Source\PSoC5/USBUART_std.c ****                 }
 815:.\Generated_Source\PSoC5/USBUART_std.c ****                 /* Once dyn_config_rdy bit is set, FW can change the EP configuration. */
 816:.\Generated_Source\PSoC5/USBUART_std.c ****                 /* Change EP Type with new direction */
 817:.\Generated_Source\PSoC5/USBUART_std.c ****                 if((pEP->addr & USBUART_DIR_IN) == 0u)
 818:.\Generated_Source\PSoC5/USBUART_std.c ****                 {
 819:.\Generated_Source\PSoC5/USBUART_std.c ****                     USBUART_EP_TYPE_REG |= (uint8)(0x01u << (cur_ep - USBUART_EP1));
 820:.\Generated_Source\PSoC5/USBUART_std.c ****                 }
 821:.\Generated_Source\PSoC5/USBUART_std.c ****                 else
 822:.\Generated_Source\PSoC5/USBUART_std.c ****                 {
 823:.\Generated_Source\PSoC5/USBUART_std.c ****                     USBUART_EP_TYPE_REG &= (uint8)~(uint8)(0x01u << (cur_ep - USBUART_EP1));
 824:.\Generated_Source\PSoC5/USBUART_std.c ****                 }
 825:.\Generated_Source\PSoC5/USBUART_std.c ****                 /* dynamic reconfiguration enable bit cleared, pointers and control/status
 826:.\Generated_Source\PSoC5/USBUART_std.c ****                 *  signals for the selected EP is cleared/re-initialized on negative edge
ARM GAS  C:\Users\VICTOR~1\AppData\Local\Temp\ccARlXCX.s 			page 49


 827:.\Generated_Source\PSoC5/USBUART_std.c ****                 *  of dynamic reconfiguration enable bit).
 828:.\Generated_Source\PSoC5/USBUART_std.c ****                 */
 829:.\Generated_Source\PSoC5/USBUART_std.c ****                 USBUART_DYN_RECONFIG_REG &= (uint8)~USBUART_DYN_RECONFIG_ENABLE;
 830:.\Generated_Source\PSoC5/USBUART_std.c ****                 /* The main loop has to re-enable DMA and OUT endpoint*/
 831:.\Generated_Source\PSoC5/USBUART_std.c ****             #else
 832:.\Generated_Source\PSoC5/USBUART_std.c ****                 CY_SET_REG8((reg8 *)(USBUART_SIE_EP1_CNT0_IND + ri),
 1821              		.loc 1 832 0
 1822 0162 7A78     		ldrb	r2, [r7, #1]	@ zero_extendqisi2
 1823 0164 3D4B     		ldr	r3, .L122+24
 1824 0166 1344     		add	r3, r3, r2
 1825 0168 1946     		mov	r1, r3
 1826 016a BA78     		ldrb	r2, [r7, #2]	@ zero_extendqisi2
 1827 016c 3948     		ldr	r0, .L122+16
 1828 016e 1346     		mov	r3, r2
 1829 0170 5B00     		lsls	r3, r3, #1
 1830 0172 1344     		add	r3, r3, r2
 1831 0174 9B00     		lsls	r3, r3, #2
 1832 0176 0344     		add	r3, r3, r0
 1833 0178 0833     		adds	r3, r3, #8
 1834 017a 1B88     		ldrh	r3, [r3]	@ movhi
 1835 017c 9BB2     		uxth	r3, r3
 1836 017e 1B0A     		lsrs	r3, r3, #8
 1837 0180 9BB2     		uxth	r3, r3
 1838 0182 DBB2     		uxtb	r3, r3
 1839 0184 0B70     		strb	r3, [r1]
 833:.\Generated_Source\PSoC5/USBUART_std.c ****                                                                 USBUART_EP[cur_ep].bufferSize >> 8u
 834:.\Generated_Source\PSoC5/USBUART_std.c ****                 CY_SET_REG8((reg8 *)(USBUART_SIE_EP1_CNT1_IND + ri),
 1840              		.loc 1 834 0
 1841 0186 7A78     		ldrb	r2, [r7, #1]	@ zero_extendqisi2
 1842 0188 354B     		ldr	r3, .L122+28
 1843 018a 1344     		add	r3, r3, r2
 1844 018c 1946     		mov	r1, r3
 1845 018e BA78     		ldrb	r2, [r7, #2]	@ zero_extendqisi2
 1846 0190 3048     		ldr	r0, .L122+16
 1847 0192 1346     		mov	r3, r2
 1848 0194 5B00     		lsls	r3, r3, #1
 1849 0196 1344     		add	r3, r3, r2
 1850 0198 9B00     		lsls	r3, r3, #2
 1851 019a 0344     		add	r3, r3, r0
 1852 019c 0833     		adds	r3, r3, #8
 1853 019e 1B88     		ldrh	r3, [r3]	@ movhi
 1854 01a0 9BB2     		uxth	r3, r3
 1855 01a2 DBB2     		uxtb	r3, r3
 1856 01a4 0B70     		strb	r3, [r1]
 835:.\Generated_Source\PSoC5/USBUART_std.c ****                                                                 USBUART_EP[cur_ep].bufferSize & 0xF
 836:.\Generated_Source\PSoC5/USBUART_std.c ****                 CY_SET_REG8((reg8 *)(USBUART_ARB_RW1_RA_IND + ri),
 1857              		.loc 1 836 0
 1858 01a6 7A78     		ldrb	r2, [r7, #1]	@ zero_extendqisi2
 1859 01a8 2E4B     		ldr	r3, .L122+32
 1860 01aa 1344     		add	r3, r3, r2
 1861 01ac 1946     		mov	r1, r3
 1862 01ae BA78     		ldrb	r2, [r7, #2]	@ zero_extendqisi2
 1863 01b0 2848     		ldr	r0, .L122+16
 1864 01b2 1346     		mov	r3, r2
 1865 01b4 5B00     		lsls	r3, r3, #1
 1866 01b6 1344     		add	r3, r3, r2
 1867 01b8 9B00     		lsls	r3, r3, #2
ARM GAS  C:\Users\VICTOR~1\AppData\Local\Temp\ccARlXCX.s 			page 50


 1868 01ba 0344     		add	r3, r3, r0
 1869 01bc DB88     		ldrh	r3, [r3, #6]	@ movhi
 1870 01be 9BB2     		uxth	r3, r3
 1871 01c0 DBB2     		uxtb	r3, r3
 1872 01c2 0B70     		strb	r3, [r1]
 837:.\Generated_Source\PSoC5/USBUART_std.c ****                                                                 USBUART_EP[cur_ep].buffOffset & 0xF
 838:.\Generated_Source\PSoC5/USBUART_std.c ****                 CY_SET_REG8((reg8 *)(USBUART_ARB_RW1_RA_MSB_IND + ri),
 1873              		.loc 1 838 0
 1874 01c4 7A78     		ldrb	r2, [r7, #1]	@ zero_extendqisi2
 1875 01c6 284B     		ldr	r3, .L122+36
 1876 01c8 1344     		add	r3, r3, r2
 1877 01ca 1946     		mov	r1, r3
 1878 01cc BA78     		ldrb	r2, [r7, #2]	@ zero_extendqisi2
 1879 01ce 2148     		ldr	r0, .L122+16
 1880 01d0 1346     		mov	r3, r2
 1881 01d2 5B00     		lsls	r3, r3, #1
 1882 01d4 1344     		add	r3, r3, r2
 1883 01d6 9B00     		lsls	r3, r3, #2
 1884 01d8 0344     		add	r3, r3, r0
 1885 01da DB88     		ldrh	r3, [r3, #6]	@ movhi
 1886 01dc 9BB2     		uxth	r3, r3
 1887 01de 1B0A     		lsrs	r3, r3, #8
 1888 01e0 9BB2     		uxth	r3, r3
 1889 01e2 DBB2     		uxtb	r3, r3
 1890 01e4 0B70     		strb	r3, [r1]
 839:.\Generated_Source\PSoC5/USBUART_std.c ****                                                                 USBUART_EP[cur_ep].buffOffset >> 8u
 840:.\Generated_Source\PSoC5/USBUART_std.c ****                 CY_SET_REG8((reg8 *)(USBUART_ARB_RW1_WA_IND + ri),
 1891              		.loc 1 840 0
 1892 01e6 7A78     		ldrb	r2, [r7, #1]	@ zero_extendqisi2
 1893 01e8 204B     		ldr	r3, .L122+40
 1894 01ea 1344     		add	r3, r3, r2
 1895 01ec 1946     		mov	r1, r3
 1896 01ee BA78     		ldrb	r2, [r7, #2]	@ zero_extendqisi2
 1897 01f0 1848     		ldr	r0, .L122+16
 1898 01f2 1346     		mov	r3, r2
 1899 01f4 5B00     		lsls	r3, r3, #1
 1900 01f6 1344     		add	r3, r3, r2
 1901 01f8 9B00     		lsls	r3, r3, #2
 1902 01fa 0344     		add	r3, r3, r0
 1903 01fc DB88     		ldrh	r3, [r3, #6]	@ movhi
 1904 01fe 9BB2     		uxth	r3, r3
 1905 0200 DBB2     		uxtb	r3, r3
 1906 0202 0B70     		strb	r3, [r1]
 841:.\Generated_Source\PSoC5/USBUART_std.c ****                                                                 USBUART_EP[cur_ep].buffOffset & 0xF
 842:.\Generated_Source\PSoC5/USBUART_std.c ****                 CY_SET_REG8((reg8 *)(USBUART_ARB_RW1_WA_MSB_IND + ri),
 1907              		.loc 1 842 0
 1908 0204 7A78     		ldrb	r2, [r7, #1]	@ zero_extendqisi2
 1909 0206 1A4B     		ldr	r3, .L122+44
 1910 0208 1344     		add	r3, r3, r2
 1911 020a 1946     		mov	r1, r3
 1912 020c BA78     		ldrb	r2, [r7, #2]	@ zero_extendqisi2
 1913 020e 1148     		ldr	r0, .L122+16
 1914 0210 1346     		mov	r3, r2
 1915 0212 5B00     		lsls	r3, r3, #1
 1916 0214 1344     		add	r3, r3, r2
 1917 0216 9B00     		lsls	r3, r3, #2
 1918 0218 0344     		add	r3, r3, r0
ARM GAS  C:\Users\VICTOR~1\AppData\Local\Temp\ccARlXCX.s 			page 51


 1919 021a DB88     		ldrh	r3, [r3, #6]	@ movhi
 1920 021c 9BB2     		uxth	r3, r3
 1921 021e 1B0A     		lsrs	r3, r3, #8
 1922 0220 9BB2     		uxth	r3, r3
 1923 0222 DBB2     		uxtb	r3, r3
 1924 0224 0B70     		strb	r3, [r1]
 1925              	.L114:
 843:.\Generated_Source\PSoC5/USBUART_std.c ****                                                                 USBUART_EP[cur_ep].buffOffset >> 8u
 844:.\Generated_Source\PSoC5/USBUART_std.c ****             #endif /*  USBUART_EP_MM == USBUART__EP_DMAAUTO */
 845:.\Generated_Source\PSoC5/USBUART_std.c ****             }
 846:.\Generated_Source\PSoC5/USBUART_std.c ****             /* Get next EP element */
 847:.\Generated_Source\PSoC5/USBUART_std.c ****             pEP = &pEP[1u];
 1926              		.loc 1 847 0
 1927 0226 BB68     		ldr	r3, [r7, #8]
 1928 0228 0833     		adds	r3, r3, #8
 1929 022a BB60     		str	r3, [r7, #8]
 764:.\Generated_Source\PSoC5/USBUART_std.c ****         for (i = 0u; i < ep; i++)
 1930              		.loc 1 764 0
 1931 022c FB7B     		ldrb	r3, [r7, #15]	@ zero_extendqisi2
 1932 022e 0133     		adds	r3, r3, #1
 1933 0230 FB73     		strb	r3, [r7, #15]
 1934              	.L113:
 764:.\Generated_Source\PSoC5/USBUART_std.c ****         for (i = 0u; i < ep; i++)
 1935              		.loc 1 764 0 is_stmt 0 discriminator 1
 1936 0232 FA7B     		ldrb	r2, [r7, #15]	@ zero_extendqisi2
 1937 0234 FB78     		ldrb	r3, [r7, #3]	@ zero_extendqisi2
 1938 0236 9A42     		cmp	r2, r3
 1939 0238 FFF400AF 		bcc	.L121
 1940              	.L111:
 848:.\Generated_Source\PSoC5/USBUART_std.c ****         }
 849:.\Generated_Source\PSoC5/USBUART_std.c ****     }   /* USBUART_configuration > 0 */
 850:.\Generated_Source\PSoC5/USBUART_std.c **** }
 1941              		.loc 1 850 0 is_stmt 1
 1942 023c 1037     		adds	r7, r7, #16
 1943 023e BD46     		mov	sp, r7
 1944              		@ sp needed
 1945 0240 80BD     		pop	{r7, pc}
 1946              	.L123:
 1947 0242 00BF     		.align	2
 1948              	.L122:
 1949 0244 00000000 		.word	USBUART_configuration
 1950 0248 00000000 		.word	USBUART_interfaceSetting
 1951 024c 00000000 		.word	USBUART_interfaceSetting_last
 1952 0250 04600040 		.word	1073766404
 1953 0254 00000000 		.word	USBUART_EP
 1954 0258 0E600040 		.word	1073766414
 1955 025c 0C600040 		.word	1073766412
 1956 0260 0D600040 		.word	1073766413
 1957 0264 86600040 		.word	1073766534
 1958 0268 87600040 		.word	1073766535
 1959 026c 84600040 		.word	1073766532
 1960 0270 85600040 		.word	1073766533
 1961              		.cfi_endproc
 1962              	.LFE4:
 1963              		.size	USBUART_ConfigAltChanged, .-USBUART_ConfigAltChanged
 1964              		.section	.text.USBUART_GetConfigTablePtr,"ax",%progbits
 1965              		.align	2
ARM GAS  C:\Users\VICTOR~1\AppData\Local\Temp\ccARlXCX.s 			page 52


 1966              		.global	USBUART_GetConfigTablePtr
 1967              		.thumb
 1968              		.thumb_func
 1969              		.type	USBUART_GetConfigTablePtr, %function
 1970              	USBUART_GetConfigTablePtr:
 1971              	.LFB5:
 851:.\Generated_Source\PSoC5/USBUART_std.c **** 
 852:.\Generated_Source\PSoC5/USBUART_std.c **** 
 853:.\Generated_Source\PSoC5/USBUART_std.c **** /*******************************************************************************
 854:.\Generated_Source\PSoC5/USBUART_std.c **** * Function Name: USBUART_GetConfigTablePtr
 855:.\Generated_Source\PSoC5/USBUART_std.c **** ********************************************************************************
 856:.\Generated_Source\PSoC5/USBUART_std.c **** *
 857:.\Generated_Source\PSoC5/USBUART_std.c **** * Summary:
 858:.\Generated_Source\PSoC5/USBUART_std.c **** *  This routine returns a pointer a configuration table entry
 859:.\Generated_Source\PSoC5/USBUART_std.c **** *
 860:.\Generated_Source\PSoC5/USBUART_std.c **** * Parameters:
 861:.\Generated_Source\PSoC5/USBUART_std.c **** *  confIndex:  Configuration Index
 862:.\Generated_Source\PSoC5/USBUART_std.c **** *
 863:.\Generated_Source\PSoC5/USBUART_std.c **** * Return:
 864:.\Generated_Source\PSoC5/USBUART_std.c **** *  Device Descriptor pointer or NULL when descriptor isn't exists.
 865:.\Generated_Source\PSoC5/USBUART_std.c **** *
 866:.\Generated_Source\PSoC5/USBUART_std.c **** *******************************************************************************/
 867:.\Generated_Source\PSoC5/USBUART_std.c **** const T_USBUART_LUT CYCODE *USBUART_GetConfigTablePtr(uint8 confIndex)
 868:.\Generated_Source\PSoC5/USBUART_std.c ****                                                         
 869:.\Generated_Source\PSoC5/USBUART_std.c **** {
 1972              		.loc 1 869 0
 1973              		.cfi_startproc
 1974              		@ args = 0, pretend = 0, frame = 16
 1975              		@ frame_needed = 1, uses_anonymous_args = 0
 1976              		@ link register save eliminated.
 1977 0000 80B4     		push	{r7}
 1978              		.cfi_def_cfa_offset 4
 1979              		.cfi_offset 7, -4
 1980 0002 85B0     		sub	sp, sp, #20
 1981              		.cfi_def_cfa_offset 24
 1982 0004 00AF     		add	r7, sp, #0
 1983              		.cfi_def_cfa_register 7
 1984 0006 0346     		mov	r3, r0
 1985 0008 FB71     		strb	r3, [r7, #7]
 870:.\Generated_Source\PSoC5/USBUART_std.c ****     /* Device Table */
 871:.\Generated_Source\PSoC5/USBUART_std.c ****     const T_USBUART_LUT CYCODE *pTmp;
 872:.\Generated_Source\PSoC5/USBUART_std.c **** 
 873:.\Generated_Source\PSoC5/USBUART_std.c ****     pTmp = (const T_USBUART_LUT CYCODE *) USBUART_TABLE[USBUART_device].p_list;
 1986              		.loc 1 873 0
 1987 000a 104B     		ldr	r3, .L128
 1988 000c 1B78     		ldrb	r3, [r3]
 1989 000e DBB2     		uxtb	r3, r3
 1990 0010 0F4A     		ldr	r2, .L128+4
 1991 0012 DB00     		lsls	r3, r3, #3
 1992 0014 1344     		add	r3, r3, r2
 1993 0016 5B68     		ldr	r3, [r3, #4]
 1994 0018 FB60     		str	r3, [r7, #12]
 874:.\Generated_Source\PSoC5/USBUART_std.c **** 
 875:.\Generated_Source\PSoC5/USBUART_std.c ****     /* The first entry points to the Device Descriptor,
 876:.\Generated_Source\PSoC5/USBUART_std.c ****     *  the rest configuration entries.
 877:.\Generated_Source\PSoC5/USBUART_std.c ****     *  Set pointer to the first Configuration Descriptor
 878:.\Generated_Source\PSoC5/USBUART_std.c ****     */
ARM GAS  C:\Users\VICTOR~1\AppData\Local\Temp\ccARlXCX.s 			page 53


 879:.\Generated_Source\PSoC5/USBUART_std.c ****     pTmp = &pTmp[1u];
 1995              		.loc 1 879 0
 1996 001a FB68     		ldr	r3, [r7, #12]
 1997 001c 0833     		adds	r3, r3, #8
 1998 001e FB60     		str	r3, [r7, #12]
 880:.\Generated_Source\PSoC5/USBUART_std.c ****     /* For this table, c is the number of configuration descriptors  */
 881:.\Generated_Source\PSoC5/USBUART_std.c ****     if(confIndex >= pTmp->c)   /* Verify that required configuration descriptor exists */
 1999              		.loc 1 881 0
 2000 0020 FB68     		ldr	r3, [r7, #12]
 2001 0022 1B78     		ldrb	r3, [r3]	@ zero_extendqisi2
 2002 0024 FA79     		ldrb	r2, [r7, #7]	@ zero_extendqisi2
 2003 0026 9A42     		cmp	r2, r3
 2004 0028 02D3     		bcc	.L125
 882:.\Generated_Source\PSoC5/USBUART_std.c ****     {
 883:.\Generated_Source\PSoC5/USBUART_std.c ****         pTmp = (const T_USBUART_LUT CYCODE *) NULL;
 2005              		.loc 1 883 0
 2006 002a 0023     		movs	r3, #0
 2007 002c FB60     		str	r3, [r7, #12]
 2008 002e 05E0     		b	.L126
 2009              	.L125:
 884:.\Generated_Source\PSoC5/USBUART_std.c ****     }
 885:.\Generated_Source\PSoC5/USBUART_std.c ****     else
 886:.\Generated_Source\PSoC5/USBUART_std.c ****     {
 887:.\Generated_Source\PSoC5/USBUART_std.c ****         pTmp = (const T_USBUART_LUT CYCODE *) pTmp[confIndex].p_list;
 2010              		.loc 1 887 0
 2011 0030 FB79     		ldrb	r3, [r7, #7]	@ zero_extendqisi2
 2012 0032 DB00     		lsls	r3, r3, #3
 2013 0034 FA68     		ldr	r2, [r7, #12]
 2014 0036 1344     		add	r3, r3, r2
 2015 0038 5B68     		ldr	r3, [r3, #4]
 2016 003a FB60     		str	r3, [r7, #12]
 2017              	.L126:
 888:.\Generated_Source\PSoC5/USBUART_std.c ****     }
 889:.\Generated_Source\PSoC5/USBUART_std.c ****     
 890:.\Generated_Source\PSoC5/USBUART_std.c ****     return( pTmp );
 2018              		.loc 1 890 0
 2019 003c FB68     		ldr	r3, [r7, #12]
 891:.\Generated_Source\PSoC5/USBUART_std.c **** }
 2020              		.loc 1 891 0
 2021 003e 1846     		mov	r0, r3
 2022 0040 1437     		adds	r7, r7, #20
 2023 0042 BD46     		mov	sp, r7
 2024              		@ sp needed
 2025 0044 5DF8047B 		ldr	r7, [sp], #4
 2026 0048 7047     		bx	lr
 2027              	.L129:
 2028 004a 00BF     		.align	2
 2029              	.L128:
 2030 004c 00000000 		.word	USBUART_device
 2031 0050 00000000 		.word	USBUART_TABLE
 2032              		.cfi_endproc
 2033              	.LFE5:
 2034              		.size	USBUART_GetConfigTablePtr, .-USBUART_GetConfigTablePtr
 2035              		.section	.text.USBUART_GetDeviceTablePtr,"ax",%progbits
 2036              		.align	2
 2037              		.global	USBUART_GetDeviceTablePtr
 2038              		.thumb
ARM GAS  C:\Users\VICTOR~1\AppData\Local\Temp\ccARlXCX.s 			page 54


 2039              		.thumb_func
 2040              		.type	USBUART_GetDeviceTablePtr, %function
 2041              	USBUART_GetDeviceTablePtr:
 2042              	.LFB6:
 892:.\Generated_Source\PSoC5/USBUART_std.c **** 
 893:.\Generated_Source\PSoC5/USBUART_std.c **** 
 894:.\Generated_Source\PSoC5/USBUART_std.c **** /*******************************************************************************
 895:.\Generated_Source\PSoC5/USBUART_std.c **** * Function Name: USBUART_GetDeviceTablePtr
 896:.\Generated_Source\PSoC5/USBUART_std.c **** ********************************************************************************
 897:.\Generated_Source\PSoC5/USBUART_std.c **** *
 898:.\Generated_Source\PSoC5/USBUART_std.c **** * Summary:
 899:.\Generated_Source\PSoC5/USBUART_std.c **** *  This routine returns a pointer to the Device table
 900:.\Generated_Source\PSoC5/USBUART_std.c **** *
 901:.\Generated_Source\PSoC5/USBUART_std.c **** * Parameters:
 902:.\Generated_Source\PSoC5/USBUART_std.c **** *  None.
 903:.\Generated_Source\PSoC5/USBUART_std.c **** *
 904:.\Generated_Source\PSoC5/USBUART_std.c **** * Return:
 905:.\Generated_Source\PSoC5/USBUART_std.c **** *  Device Table pointer
 906:.\Generated_Source\PSoC5/USBUART_std.c **** *
 907:.\Generated_Source\PSoC5/USBUART_std.c **** *******************************************************************************/
 908:.\Generated_Source\PSoC5/USBUART_std.c **** const T_USBUART_LUT CYCODE *USBUART_GetDeviceTablePtr(void)
 909:.\Generated_Source\PSoC5/USBUART_std.c ****                                                             
 910:.\Generated_Source\PSoC5/USBUART_std.c **** {
 2043              		.loc 1 910 0
 2044              		.cfi_startproc
 2045              		@ args = 0, pretend = 0, frame = 0
 2046              		@ frame_needed = 1, uses_anonymous_args = 0
 2047              		@ link register save eliminated.
 2048 0000 80B4     		push	{r7}
 2049              		.cfi_def_cfa_offset 4
 2050              		.cfi_offset 7, -4
 2051 0002 00AF     		add	r7, sp, #0
 2052              		.cfi_def_cfa_register 7
 911:.\Generated_Source\PSoC5/USBUART_std.c ****     /* Device Table */
 912:.\Generated_Source\PSoC5/USBUART_std.c ****     return( (const T_USBUART_LUT CYCODE *) USBUART_TABLE[USBUART_device].p_list );
 2053              		.loc 1 912 0
 2054 0004 054B     		ldr	r3, .L132
 2055 0006 1B78     		ldrb	r3, [r3]
 2056 0008 DBB2     		uxtb	r3, r3
 2057 000a 054A     		ldr	r2, .L132+4
 2058 000c DB00     		lsls	r3, r3, #3
 2059 000e 1344     		add	r3, r3, r2
 2060 0010 5B68     		ldr	r3, [r3, #4]
 913:.\Generated_Source\PSoC5/USBUART_std.c **** }
 2061              		.loc 1 913 0
 2062 0012 1846     		mov	r0, r3
 2063 0014 BD46     		mov	sp, r7
 2064              		@ sp needed
 2065 0016 5DF8047B 		ldr	r7, [sp], #4
 2066 001a 7047     		bx	lr
 2067              	.L133:
 2068              		.align	2
 2069              	.L132:
 2070 001c 00000000 		.word	USBUART_device
 2071 0020 00000000 		.word	USBUART_TABLE
 2072              		.cfi_endproc
 2073              	.LFE6:
ARM GAS  C:\Users\VICTOR~1\AppData\Local\Temp\ccARlXCX.s 			page 55


 2074              		.size	USBUART_GetDeviceTablePtr, .-USBUART_GetDeviceTablePtr
 2075              		.section	.text.USBUART_GetInterfaceClassTablePtr,"ax",%progbits
 2076              		.align	2
 2077              		.global	USBUART_GetInterfaceClassTablePtr
 2078              		.thumb
 2079              		.thumb_func
 2080              		.type	USBUART_GetInterfaceClassTablePtr, %function
 2081              	USBUART_GetInterfaceClassTablePtr:
 2082              	.LFB7:
 914:.\Generated_Source\PSoC5/USBUART_std.c **** 
 915:.\Generated_Source\PSoC5/USBUART_std.c **** 
 916:.\Generated_Source\PSoC5/USBUART_std.c **** /*******************************************************************************
 917:.\Generated_Source\PSoC5/USBUART_std.c **** * Function Name: USB_GetInterfaceClassTablePtr
 918:.\Generated_Source\PSoC5/USBUART_std.c **** ********************************************************************************
 919:.\Generated_Source\PSoC5/USBUART_std.c **** *
 920:.\Generated_Source\PSoC5/USBUART_std.c **** * Summary:
 921:.\Generated_Source\PSoC5/USBUART_std.c **** *  This routine returns Interface Class table pointer, which contains
 922:.\Generated_Source\PSoC5/USBUART_std.c **** *  the relation between interface number and interface class.
 923:.\Generated_Source\PSoC5/USBUART_std.c **** *
 924:.\Generated_Source\PSoC5/USBUART_std.c **** * Parameters:
 925:.\Generated_Source\PSoC5/USBUART_std.c **** *  None.
 926:.\Generated_Source\PSoC5/USBUART_std.c **** *
 927:.\Generated_Source\PSoC5/USBUART_std.c **** * Return:
 928:.\Generated_Source\PSoC5/USBUART_std.c **** *  Interface Class table pointer.
 929:.\Generated_Source\PSoC5/USBUART_std.c **** *
 930:.\Generated_Source\PSoC5/USBUART_std.c **** *******************************************************************************/
 931:.\Generated_Source\PSoC5/USBUART_std.c **** const uint8 CYCODE *USBUART_GetInterfaceClassTablePtr(void)
 932:.\Generated_Source\PSoC5/USBUART_std.c ****                                                         
 933:.\Generated_Source\PSoC5/USBUART_std.c **** {
 2083              		.loc 1 933 0
 2084              		.cfi_startproc
 2085              		@ args = 0, pretend = 0, frame = 16
 2086              		@ frame_needed = 1, uses_anonymous_args = 0
 2087 0000 80B5     		push	{r7, lr}
 2088              		.cfi_def_cfa_offset 8
 2089              		.cfi_offset 7, -8
 2090              		.cfi_offset 14, -4
 2091 0002 84B0     		sub	sp, sp, #16
 2092              		.cfi_def_cfa_offset 24
 2093 0004 00AF     		add	r7, sp, #0
 2094              		.cfi_def_cfa_register 7
 934:.\Generated_Source\PSoC5/USBUART_std.c ****     const T_USBUART_LUT CYCODE *pTmp;
 935:.\Generated_Source\PSoC5/USBUART_std.c ****     const uint8 CYCODE *pInterfaceClass;
 936:.\Generated_Source\PSoC5/USBUART_std.c ****     uint8 currentInterfacesNum;
 937:.\Generated_Source\PSoC5/USBUART_std.c **** 
 938:.\Generated_Source\PSoC5/USBUART_std.c ****     pTmp = USBUART_GetConfigTablePtr(USBUART_configuration - 1u);
 2095              		.loc 1 938 0
 2096 0006 104B     		ldr	r3, .L138
 2097 0008 1B78     		ldrb	r3, [r3]
 2098 000a DBB2     		uxtb	r3, r3
 2099 000c 013B     		subs	r3, r3, #1
 2100 000e DBB2     		uxtb	r3, r3
 2101 0010 1846     		mov	r0, r3
 2102 0012 FFF7FEFF 		bl	USBUART_GetConfigTablePtr
 2103 0016 B860     		str	r0, [r7, #8]
 939:.\Generated_Source\PSoC5/USBUART_std.c ****     if( pTmp != NULL )
 2104              		.loc 1 939 0
ARM GAS  C:\Users\VICTOR~1\AppData\Local\Temp\ccARlXCX.s 			page 56


 2105 0018 BB68     		ldr	r3, [r7, #8]
 2106 001a 002B     		cmp	r3, #0
 2107 001c 0DD0     		beq	.L135
 940:.\Generated_Source\PSoC5/USBUART_std.c ****     {
 941:.\Generated_Source\PSoC5/USBUART_std.c ****         currentInterfacesNum  = ((const uint8 *) pTmp->p_list)[USBUART_CONFIG_DESCR_NUM_INTERFACES]
 2108              		.loc 1 941 0
 2109 001e BB68     		ldr	r3, [r7, #8]
 2110 0020 5B68     		ldr	r3, [r3, #4]
 2111 0022 1B79     		ldrb	r3, [r3, #4]
 2112 0024 FB71     		strb	r3, [r7, #7]
 942:.\Generated_Source\PSoC5/USBUART_std.c ****         /* Third entry in the LUT starts the Interface Table pointers */
 943:.\Generated_Source\PSoC5/USBUART_std.c ****         /* The INTERFACE_CLASS table is located after all interfaces */
 944:.\Generated_Source\PSoC5/USBUART_std.c ****         pTmp = &pTmp[currentInterfacesNum + 2u];
 2113              		.loc 1 944 0
 2114 0026 FB79     		ldrb	r3, [r7, #7]	@ zero_extendqisi2
 2115 0028 0233     		adds	r3, r3, #2
 2116 002a DB00     		lsls	r3, r3, #3
 2117 002c BA68     		ldr	r2, [r7, #8]
 2118 002e 1344     		add	r3, r3, r2
 2119 0030 BB60     		str	r3, [r7, #8]
 945:.\Generated_Source\PSoC5/USBUART_std.c ****         pInterfaceClass = (const uint8 CYCODE *) pTmp->p_list;
 2120              		.loc 1 945 0
 2121 0032 BB68     		ldr	r3, [r7, #8]
 2122 0034 5B68     		ldr	r3, [r3, #4]
 2123 0036 FB60     		str	r3, [r7, #12]
 2124 0038 01E0     		b	.L136
 2125              	.L135:
 946:.\Generated_Source\PSoC5/USBUART_std.c ****     }
 947:.\Generated_Source\PSoC5/USBUART_std.c ****     else
 948:.\Generated_Source\PSoC5/USBUART_std.c ****     {
 949:.\Generated_Source\PSoC5/USBUART_std.c ****         pInterfaceClass = (const uint8 CYCODE *) NULL;
 2126              		.loc 1 949 0
 2127 003a 0023     		movs	r3, #0
 2128 003c FB60     		str	r3, [r7, #12]
 2129              	.L136:
 950:.\Generated_Source\PSoC5/USBUART_std.c ****     }
 951:.\Generated_Source\PSoC5/USBUART_std.c ****     
 952:.\Generated_Source\PSoC5/USBUART_std.c ****     return( pInterfaceClass );
 2130              		.loc 1 952 0
 2131 003e FB68     		ldr	r3, [r7, #12]
 953:.\Generated_Source\PSoC5/USBUART_std.c **** }
 2132              		.loc 1 953 0
 2133 0040 1846     		mov	r0, r3
 2134 0042 1037     		adds	r7, r7, #16
 2135 0044 BD46     		mov	sp, r7
 2136              		@ sp needed
 2137 0046 80BD     		pop	{r7, pc}
 2138              	.L139:
 2139              		.align	2
 2140              	.L138:
 2141 0048 00000000 		.word	USBUART_configuration
 2142              		.cfi_endproc
 2143              	.LFE7:
 2144              		.size	USBUART_GetInterfaceClassTablePtr, .-USBUART_GetInterfaceClassTablePtr
 2145              		.section	.text.USBUART_TerminateEP,"ax",%progbits
 2146              		.align	2
 2147              		.global	USBUART_TerminateEP
ARM GAS  C:\Users\VICTOR~1\AppData\Local\Temp\ccARlXCX.s 			page 57


 2148              		.thumb
 2149              		.thumb_func
 2150              		.type	USBUART_TerminateEP, %function
 2151              	USBUART_TerminateEP:
 2152              	.LFB8:
 954:.\Generated_Source\PSoC5/USBUART_std.c **** 
 955:.\Generated_Source\PSoC5/USBUART_std.c **** 
 956:.\Generated_Source\PSoC5/USBUART_std.c **** /*******************************************************************************
 957:.\Generated_Source\PSoC5/USBUART_std.c **** * Function Name: USBUART_TerminateEP
 958:.\Generated_Source\PSoC5/USBUART_std.c **** ********************************************************************************
 959:.\Generated_Source\PSoC5/USBUART_std.c **** *
 960:.\Generated_Source\PSoC5/USBUART_std.c **** * Summary:
 961:.\Generated_Source\PSoC5/USBUART_std.c **** *  This function terminates the specified USBFS endpoint.
 962:.\Generated_Source\PSoC5/USBUART_std.c **** *  This function should be used before endpoint reconfiguration.
 963:.\Generated_Source\PSoC5/USBUART_std.c **** *
 964:.\Generated_Source\PSoC5/USBUART_std.c **** * Parameters:
 965:.\Generated_Source\PSoC5/USBUART_std.c **** *  Endpoint number.
 966:.\Generated_Source\PSoC5/USBUART_std.c **** *
 967:.\Generated_Source\PSoC5/USBUART_std.c **** * Return:
 968:.\Generated_Source\PSoC5/USBUART_std.c **** *  None.
 969:.\Generated_Source\PSoC5/USBUART_std.c **** *
 970:.\Generated_Source\PSoC5/USBUART_std.c **** * Reentrant:
 971:.\Generated_Source\PSoC5/USBUART_std.c **** *  No.
 972:.\Generated_Source\PSoC5/USBUART_std.c **** *
 973:.\Generated_Source\PSoC5/USBUART_std.c **** *******************************************************************************/
 974:.\Generated_Source\PSoC5/USBUART_std.c **** void USBUART_TerminateEP(uint8 ep) 
 975:.\Generated_Source\PSoC5/USBUART_std.c **** {
 2153              		.loc 1 975 0
 2154              		.cfi_startproc
 2155              		@ args = 0, pretend = 0, frame = 16
 2156              		@ frame_needed = 1, uses_anonymous_args = 0
 2157              		@ link register save eliminated.
 2158 0000 80B4     		push	{r7}
 2159              		.cfi_def_cfa_offset 4
 2160              		.cfi_offset 7, -4
 2161 0002 85B0     		sub	sp, sp, #20
 2162              		.cfi_def_cfa_offset 24
 2163 0004 00AF     		add	r7, sp, #0
 2164              		.cfi_def_cfa_register 7
 2165 0006 0346     		mov	r3, r0
 2166 0008 FB71     		strb	r3, [r7, #7]
 976:.\Generated_Source\PSoC5/USBUART_std.c ****     uint8 ri;
 977:.\Generated_Source\PSoC5/USBUART_std.c **** 
 978:.\Generated_Source\PSoC5/USBUART_std.c ****     ep &= USBUART_DIR_UNUSED;
 2167              		.loc 1 978 0
 2168 000a FB79     		ldrb	r3, [r7, #7]
 2169 000c 03F07F03 		and	r3, r3, #127
 2170 0010 FB71     		strb	r3, [r7, #7]
 979:.\Generated_Source\PSoC5/USBUART_std.c ****     ri = ((ep - USBUART_EP1) << USBUART_EPX_CNTX_ADDR_SHIFT);
 2171              		.loc 1 979 0
 2172 0012 FB79     		ldrb	r3, [r7, #7]
 2173 0014 013B     		subs	r3, r3, #1
 2174 0016 DBB2     		uxtb	r3, r3
 2175 0018 1B01     		lsls	r3, r3, #4
 2176 001a FB73     		strb	r3, [r7, #15]
 980:.\Generated_Source\PSoC5/USBUART_std.c **** 
 981:.\Generated_Source\PSoC5/USBUART_std.c ****     if ((ep > USBUART_EP0) && (ep < USBUART_MAX_EP))
ARM GAS  C:\Users\VICTOR~1\AppData\Local\Temp\ccARlXCX.s 			page 58


 2177              		.loc 1 981 0
 2178 001c FB79     		ldrb	r3, [r7, #7]	@ zero_extendqisi2
 2179 001e 002B     		cmp	r3, #0
 2180 0020 41D0     		beq	.L140
 2181              		.loc 1 981 0 is_stmt 0 discriminator 1
 2182 0022 FB79     		ldrb	r3, [r7, #7]	@ zero_extendqisi2
 2183 0024 082B     		cmp	r3, #8
 2184 0026 3ED8     		bhi	.L140
 982:.\Generated_Source\PSoC5/USBUART_std.c ****     {
 983:.\Generated_Source\PSoC5/USBUART_std.c ****         /* Set the endpoint Halt */
 984:.\Generated_Source\PSoC5/USBUART_std.c ****         USBUART_EP[ep].hwEpState |= (USBUART_ENDPOINT_STATUS_HALT);
 2185              		.loc 1 984 0 is_stmt 1
 2186 0028 FA79     		ldrb	r2, [r7, #7]	@ zero_extendqisi2
 2187 002a F979     		ldrb	r1, [r7, #7]	@ zero_extendqisi2
 2188 002c 2048     		ldr	r0, .L143
 2189 002e 0B46     		mov	r3, r1
 2190 0030 5B00     		lsls	r3, r3, #1
 2191 0032 0B44     		add	r3, r3, r1
 2192 0034 9B00     		lsls	r3, r3, #2
 2193 0036 0344     		add	r3, r3, r0
 2194 0038 9B78     		ldrb	r3, [r3, #2]
 2195 003a DBB2     		uxtb	r3, r3
 2196 003c 43F00103 		orr	r3, r3, #1
 2197 0040 D9B2     		uxtb	r1, r3
 2198 0042 1B48     		ldr	r0, .L143
 2199 0044 1346     		mov	r3, r2
 2200 0046 5B00     		lsls	r3, r3, #1
 2201 0048 1344     		add	r3, r3, r2
 2202 004a 9B00     		lsls	r3, r3, #2
 2203 004c 0344     		add	r3, r3, r0
 2204 004e 0A46     		mov	r2, r1
 2205 0050 9A70     		strb	r2, [r3, #2]
 985:.\Generated_Source\PSoC5/USBUART_std.c **** 
 986:.\Generated_Source\PSoC5/USBUART_std.c ****         /* Clear the data toggle */
 987:.\Generated_Source\PSoC5/USBUART_std.c ****         USBUART_EP[ep].epToggle = 0u;
 2206              		.loc 1 987 0
 2207 0052 FA79     		ldrb	r2, [r7, #7]	@ zero_extendqisi2
 2208 0054 1649     		ldr	r1, .L143
 2209 0056 1346     		mov	r3, r2
 2210 0058 5B00     		lsls	r3, r3, #1
 2211 005a 1344     		add	r3, r3, r2
 2212 005c 9B00     		lsls	r3, r3, #2
 2213 005e 0B44     		add	r3, r3, r1
 2214 0060 0022     		movs	r2, #0
 2215 0062 DA70     		strb	r2, [r3, #3]
 988:.\Generated_Source\PSoC5/USBUART_std.c ****         USBUART_EP[ep].apiEpState = USBUART_NO_EVENT_ALLOWED;
 2216              		.loc 1 988 0
 2217 0064 FA79     		ldrb	r2, [r7, #7]	@ zero_extendqisi2
 2218 0066 1249     		ldr	r1, .L143
 2219 0068 1346     		mov	r3, r2
 2220 006a 5B00     		lsls	r3, r3, #1
 2221 006c 1344     		add	r3, r3, r2
 2222 006e 9B00     		lsls	r3, r3, #2
 2223 0070 0B44     		add	r3, r3, r1
 2224 0072 0222     		movs	r2, #2
 2225 0074 5A70     		strb	r2, [r3, #1]
 989:.\Generated_Source\PSoC5/USBUART_std.c **** 
ARM GAS  C:\Users\VICTOR~1\AppData\Local\Temp\ccARlXCX.s 			page 59


 990:.\Generated_Source\PSoC5/USBUART_std.c ****         if ((USBUART_EP[ep].addr & USBUART_DIR_IN) != 0u)
 2226              		.loc 1 990 0
 2227 0076 FA79     		ldrb	r2, [r7, #7]	@ zero_extendqisi2
 2228 0078 0D49     		ldr	r1, .L143
 2229 007a 1346     		mov	r3, r2
 2230 007c 5B00     		lsls	r3, r3, #1
 2231 007e 1344     		add	r3, r3, r2
 2232 0080 9B00     		lsls	r3, r3, #2
 2233 0082 0B44     		add	r3, r3, r1
 2234 0084 1B79     		ldrb	r3, [r3, #4]
 2235 0086 DBB2     		uxtb	r3, r3
 2236 0088 DBB2     		uxtb	r3, r3
 2237 008a 5BB2     		sxtb	r3, r3
 2238 008c 002B     		cmp	r3, #0
 2239 008e 05DA     		bge	.L142
 991:.\Generated_Source\PSoC5/USBUART_std.c ****         {
 992:.\Generated_Source\PSoC5/USBUART_std.c ****             /* IN Endpoint */
 993:.\Generated_Source\PSoC5/USBUART_std.c ****             CY_SET_REG8((reg8 *)(USBUART_SIE_EP1_CR0_IND + ri), USBUART_MODE_NAK_IN);
 2240              		.loc 1 993 0
 2241 0090 FA7B     		ldrb	r2, [r7, #15]	@ zero_extendqisi2
 2242 0092 084B     		ldr	r3, .L143+4
 2243 0094 1344     		add	r3, r3, r2
 2244 0096 0C22     		movs	r2, #12
 2245 0098 1A70     		strb	r2, [r3]
 2246 009a 04E0     		b	.L140
 2247              	.L142:
 994:.\Generated_Source\PSoC5/USBUART_std.c ****         }
 995:.\Generated_Source\PSoC5/USBUART_std.c ****         else
 996:.\Generated_Source\PSoC5/USBUART_std.c ****         {
 997:.\Generated_Source\PSoC5/USBUART_std.c ****             /* OUT Endpoint */
 998:.\Generated_Source\PSoC5/USBUART_std.c ****             CY_SET_REG8((reg8 *)(USBUART_SIE_EP1_CR0_IND + ri), USBUART_MODE_NAK_OUT);
 2248              		.loc 1 998 0
 2249 009c FA7B     		ldrb	r2, [r7, #15]	@ zero_extendqisi2
 2250 009e 054B     		ldr	r3, .L143+4
 2251 00a0 1344     		add	r3, r3, r2
 2252 00a2 0822     		movs	r2, #8
 2253 00a4 1A70     		strb	r2, [r3]
 2254              	.L140:
 999:.\Generated_Source\PSoC5/USBUART_std.c ****         }
1000:.\Generated_Source\PSoC5/USBUART_std.c ****     }
1001:.\Generated_Source\PSoC5/USBUART_std.c **** }
 2255              		.loc 1 1001 0
 2256 00a6 1437     		adds	r7, r7, #20
 2257 00a8 BD46     		mov	sp, r7
 2258              		@ sp needed
 2259 00aa 5DF8047B 		ldr	r7, [sp], #4
 2260 00ae 7047     		bx	lr
 2261              	.L144:
 2262              		.align	2
 2263              	.L143:
 2264 00b0 00000000 		.word	USBUART_EP
 2265 00b4 0E600040 		.word	1073766414
 2266              		.cfi_endproc
 2267              	.LFE8:
 2268              		.size	USBUART_TerminateEP, .-USBUART_TerminateEP
 2269              		.section	.text.USBUART_SetEndpointHalt,"ax",%progbits
 2270              		.align	2
ARM GAS  C:\Users\VICTOR~1\AppData\Local\Temp\ccARlXCX.s 			page 60


 2271              		.global	USBUART_SetEndpointHalt
 2272              		.thumb
 2273              		.thumb_func
 2274              		.type	USBUART_SetEndpointHalt, %function
 2275              	USBUART_SetEndpointHalt:
 2276              	.LFB9:
1002:.\Generated_Source\PSoC5/USBUART_std.c **** 
1003:.\Generated_Source\PSoC5/USBUART_std.c **** 
1004:.\Generated_Source\PSoC5/USBUART_std.c **** /*******************************************************************************
1005:.\Generated_Source\PSoC5/USBUART_std.c **** * Function Name: USBUART_SetEndpointHalt
1006:.\Generated_Source\PSoC5/USBUART_std.c **** ********************************************************************************
1007:.\Generated_Source\PSoC5/USBUART_std.c **** *
1008:.\Generated_Source\PSoC5/USBUART_std.c **** * Summary:
1009:.\Generated_Source\PSoC5/USBUART_std.c **** *  This routine handles set endpoint halt.
1010:.\Generated_Source\PSoC5/USBUART_std.c **** *
1011:.\Generated_Source\PSoC5/USBUART_std.c **** * Parameters:
1012:.\Generated_Source\PSoC5/USBUART_std.c **** *  None.
1013:.\Generated_Source\PSoC5/USBUART_std.c **** *
1014:.\Generated_Source\PSoC5/USBUART_std.c **** * Return:
1015:.\Generated_Source\PSoC5/USBUART_std.c **** *  requestHandled.
1016:.\Generated_Source\PSoC5/USBUART_std.c **** *
1017:.\Generated_Source\PSoC5/USBUART_std.c **** * Reentrant:
1018:.\Generated_Source\PSoC5/USBUART_std.c **** *  No.
1019:.\Generated_Source\PSoC5/USBUART_std.c **** *
1020:.\Generated_Source\PSoC5/USBUART_std.c **** *******************************************************************************/
1021:.\Generated_Source\PSoC5/USBUART_std.c **** uint8 USBUART_SetEndpointHalt(void) 
1022:.\Generated_Source\PSoC5/USBUART_std.c **** {
 2277              		.loc 1 1022 0
 2278              		.cfi_startproc
 2279              		@ args = 0, pretend = 0, frame = 8
 2280              		@ frame_needed = 1, uses_anonymous_args = 0
 2281 0000 80B5     		push	{r7, lr}
 2282              		.cfi_def_cfa_offset 8
 2283              		.cfi_offset 7, -8
 2284              		.cfi_offset 14, -4
 2285 0002 82B0     		sub	sp, sp, #8
 2286              		.cfi_def_cfa_offset 16
 2287 0004 00AF     		add	r7, sp, #0
 2288              		.cfi_def_cfa_register 7
1023:.\Generated_Source\PSoC5/USBUART_std.c ****     uint8 ep;
1024:.\Generated_Source\PSoC5/USBUART_std.c ****     uint8 ri;
1025:.\Generated_Source\PSoC5/USBUART_std.c ****     uint8 requestHandled = USBUART_FALSE;
 2289              		.loc 1 1025 0
 2290 0006 0023     		movs	r3, #0
 2291 0008 FB71     		strb	r3, [r7, #7]
1026:.\Generated_Source\PSoC5/USBUART_std.c **** 
1027:.\Generated_Source\PSoC5/USBUART_std.c ****     /* Set endpoint halt */
1028:.\Generated_Source\PSoC5/USBUART_std.c ****     ep = CY_GET_REG8(USBUART_wIndexLo) & USBUART_DIR_UNUSED;
 2292              		.loc 1 1028 0
 2293 000a 324B     		ldr	r3, .L150
 2294 000c 1B78     		ldrb	r3, [r3]
 2295 000e DBB2     		uxtb	r3, r3
 2296 0010 03F07F03 		and	r3, r3, #127
 2297 0014 BB71     		strb	r3, [r7, #6]
1029:.\Generated_Source\PSoC5/USBUART_std.c ****     ri = ((ep - USBUART_EP1) << USBUART_EPX_CNTX_ADDR_SHIFT);
 2298              		.loc 1 1029 0
 2299 0016 BB79     		ldrb	r3, [r7, #6]
ARM GAS  C:\Users\VICTOR~1\AppData\Local\Temp\ccARlXCX.s 			page 61


 2300 0018 013B     		subs	r3, r3, #1
 2301 001a DBB2     		uxtb	r3, r3
 2302 001c 1B01     		lsls	r3, r3, #4
 2303 001e 7B71     		strb	r3, [r7, #5]
1030:.\Generated_Source\PSoC5/USBUART_std.c **** 
1031:.\Generated_Source\PSoC5/USBUART_std.c ****     if ((ep > USBUART_EP0) && (ep < USBUART_MAX_EP))
 2304              		.loc 1 1031 0
 2305 0020 BB79     		ldrb	r3, [r7, #6]	@ zero_extendqisi2
 2306 0022 002B     		cmp	r3, #0
 2307 0024 51D0     		beq	.L146
 2308              		.loc 1 1031 0 is_stmt 0 discriminator 1
 2309 0026 BB79     		ldrb	r3, [r7, #6]	@ zero_extendqisi2
 2310 0028 082B     		cmp	r3, #8
 2311 002a 4ED8     		bhi	.L146
1032:.\Generated_Source\PSoC5/USBUART_std.c ****     {
1033:.\Generated_Source\PSoC5/USBUART_std.c ****         /* Set the endpoint Halt */
1034:.\Generated_Source\PSoC5/USBUART_std.c ****         USBUART_EP[ep].hwEpState |= (USBUART_ENDPOINT_STATUS_HALT);
 2312              		.loc 1 1034 0 is_stmt 1
 2313 002c BA79     		ldrb	r2, [r7, #6]	@ zero_extendqisi2
 2314 002e B979     		ldrb	r1, [r7, #6]	@ zero_extendqisi2
 2315 0030 2948     		ldr	r0, .L150+4
 2316 0032 0B46     		mov	r3, r1
 2317 0034 5B00     		lsls	r3, r3, #1
 2318 0036 0B44     		add	r3, r3, r1
 2319 0038 9B00     		lsls	r3, r3, #2
 2320 003a 0344     		add	r3, r3, r0
 2321 003c 9B78     		ldrb	r3, [r3, #2]
 2322 003e DBB2     		uxtb	r3, r3
 2323 0040 43F00103 		orr	r3, r3, #1
 2324 0044 D9B2     		uxtb	r1, r3
 2325 0046 2448     		ldr	r0, .L150+4
 2326 0048 1346     		mov	r3, r2
 2327 004a 5B00     		lsls	r3, r3, #1
 2328 004c 1344     		add	r3, r3, r2
 2329 004e 9B00     		lsls	r3, r3, #2
 2330 0050 0344     		add	r3, r3, r0
 2331 0052 0A46     		mov	r2, r1
 2332 0054 9A70     		strb	r2, [r3, #2]
1035:.\Generated_Source\PSoC5/USBUART_std.c **** 
1036:.\Generated_Source\PSoC5/USBUART_std.c ****         /* Clear the data toggle */
1037:.\Generated_Source\PSoC5/USBUART_std.c ****         USBUART_EP[ep].epToggle = 0u;
 2333              		.loc 1 1037 0
 2334 0056 BA79     		ldrb	r2, [r7, #6]	@ zero_extendqisi2
 2335 0058 1F49     		ldr	r1, .L150+4
 2336 005a 1346     		mov	r3, r2
 2337 005c 5B00     		lsls	r3, r3, #1
 2338 005e 1344     		add	r3, r3, r2
 2339 0060 9B00     		lsls	r3, r3, #2
 2340 0062 0B44     		add	r3, r3, r1
 2341 0064 0022     		movs	r2, #0
 2342 0066 DA70     		strb	r2, [r3, #3]
1038:.\Generated_Source\PSoC5/USBUART_std.c ****         USBUART_EP[ep].apiEpState |= USBUART_NO_EVENT_ALLOWED;
 2343              		.loc 1 1038 0
 2344 0068 BA79     		ldrb	r2, [r7, #6]	@ zero_extendqisi2
 2345 006a B979     		ldrb	r1, [r7, #6]	@ zero_extendqisi2
 2346 006c 1A48     		ldr	r0, .L150+4
 2347 006e 0B46     		mov	r3, r1
ARM GAS  C:\Users\VICTOR~1\AppData\Local\Temp\ccARlXCX.s 			page 62


 2348 0070 5B00     		lsls	r3, r3, #1
 2349 0072 0B44     		add	r3, r3, r1
 2350 0074 9B00     		lsls	r3, r3, #2
 2351 0076 0344     		add	r3, r3, r0
 2352 0078 5B78     		ldrb	r3, [r3, #1]
 2353 007a DBB2     		uxtb	r3, r3
 2354 007c 43F00203 		orr	r3, r3, #2
 2355 0080 D9B2     		uxtb	r1, r3
 2356 0082 1548     		ldr	r0, .L150+4
 2357 0084 1346     		mov	r3, r2
 2358 0086 5B00     		lsls	r3, r3, #1
 2359 0088 1344     		add	r3, r3, r2
 2360 008a 9B00     		lsls	r3, r3, #2
 2361 008c 0344     		add	r3, r3, r0
 2362 008e 0A46     		mov	r2, r1
 2363 0090 5A70     		strb	r2, [r3, #1]
1039:.\Generated_Source\PSoC5/USBUART_std.c **** 
1040:.\Generated_Source\PSoC5/USBUART_std.c ****         if ((USBUART_EP[ep].addr & USBUART_DIR_IN) != 0u)
 2364              		.loc 1 1040 0
 2365 0092 BA79     		ldrb	r2, [r7, #6]	@ zero_extendqisi2
 2366 0094 1049     		ldr	r1, .L150+4
 2367 0096 1346     		mov	r3, r2
 2368 0098 5B00     		lsls	r3, r3, #1
 2369 009a 1344     		add	r3, r3, r2
 2370 009c 9B00     		lsls	r3, r3, #2
 2371 009e 0B44     		add	r3, r3, r1
 2372 00a0 1B79     		ldrb	r3, [r3, #4]
 2373 00a2 DBB2     		uxtb	r3, r3
 2374 00a4 DBB2     		uxtb	r3, r3
 2375 00a6 5BB2     		sxtb	r3, r3
 2376 00a8 002B     		cmp	r3, #0
 2377 00aa 05DA     		bge	.L147
1041:.\Generated_Source\PSoC5/USBUART_std.c ****         {
1042:.\Generated_Source\PSoC5/USBUART_std.c ****             /* IN Endpoint */
1043:.\Generated_Source\PSoC5/USBUART_std.c ****             CY_SET_REG8((reg8 *)(USBUART_SIE_EP1_CR0_IND + ri), USBUART_MODE_STALL_DATA_EP |
 2378              		.loc 1 1043 0
 2379 00ac 7A79     		ldrb	r2, [r7, #5]	@ zero_extendqisi2
 2380 00ae 0B4B     		ldr	r3, .L150+8
 2381 00b0 1344     		add	r3, r3, r2
 2382 00b2 8D22     		movs	r2, #141
 2383 00b4 1A70     		strb	r2, [r3]
 2384 00b6 04E0     		b	.L148
 2385              	.L147:
1044:.\Generated_Source\PSoC5/USBUART_std.c ****                                                                USBUART_MODE_ACK_IN);
1045:.\Generated_Source\PSoC5/USBUART_std.c ****         }
1046:.\Generated_Source\PSoC5/USBUART_std.c ****         else
1047:.\Generated_Source\PSoC5/USBUART_std.c ****         {
1048:.\Generated_Source\PSoC5/USBUART_std.c ****             /* OUT Endpoint */
1049:.\Generated_Source\PSoC5/USBUART_std.c ****             CY_SET_REG8((reg8 *)(USBUART_SIE_EP1_CR0_IND + ri), USBUART_MODE_STALL_DATA_EP |
 2386              		.loc 1 1049 0
 2387 00b8 7A79     		ldrb	r2, [r7, #5]	@ zero_extendqisi2
 2388 00ba 084B     		ldr	r3, .L150+8
 2389 00bc 1344     		add	r3, r3, r2
 2390 00be 8922     		movs	r2, #137
 2391 00c0 1A70     		strb	r2, [r3]
 2392              	.L148:
1050:.\Generated_Source\PSoC5/USBUART_std.c ****                                                                USBUART_MODE_ACK_OUT);
ARM GAS  C:\Users\VICTOR~1\AppData\Local\Temp\ccARlXCX.s 			page 63


1051:.\Generated_Source\PSoC5/USBUART_std.c ****         }
1052:.\Generated_Source\PSoC5/USBUART_std.c ****         requestHandled = USBUART_InitNoDataControlTransfer();
 2393              		.loc 1 1052 0
 2394 00c2 FFF7FEFF 		bl	USBUART_InitNoDataControlTransfer
 2395 00c6 0346     		mov	r3, r0
 2396 00c8 FB71     		strb	r3, [r7, #7]
 2397              	.L146:
1053:.\Generated_Source\PSoC5/USBUART_std.c ****     }
1054:.\Generated_Source\PSoC5/USBUART_std.c **** 
1055:.\Generated_Source\PSoC5/USBUART_std.c ****     return(requestHandled);
 2398              		.loc 1 1055 0
 2399 00ca FB79     		ldrb	r3, [r7, #7]	@ zero_extendqisi2
1056:.\Generated_Source\PSoC5/USBUART_std.c **** }
 2400              		.loc 1 1056 0
 2401 00cc 1846     		mov	r0, r3
 2402 00ce 0837     		adds	r7, r7, #8
 2403 00d0 BD46     		mov	sp, r7
 2404              		@ sp needed
 2405 00d2 80BD     		pop	{r7, pc}
 2406              	.L151:
 2407              		.align	2
 2408              	.L150:
 2409 00d4 04600040 		.word	1073766404
 2410 00d8 00000000 		.word	USBUART_EP
 2411 00dc 0E600040 		.word	1073766414
 2412              		.cfi_endproc
 2413              	.LFE9:
 2414              		.size	USBUART_SetEndpointHalt, .-USBUART_SetEndpointHalt
 2415              		.section	.text.USBUART_ClearEndpointHalt,"ax",%progbits
 2416              		.align	2
 2417              		.global	USBUART_ClearEndpointHalt
 2418              		.thumb
 2419              		.thumb_func
 2420              		.type	USBUART_ClearEndpointHalt, %function
 2421              	USBUART_ClearEndpointHalt:
 2422              	.LFB10:
1057:.\Generated_Source\PSoC5/USBUART_std.c **** 
1058:.\Generated_Source\PSoC5/USBUART_std.c **** 
1059:.\Generated_Source\PSoC5/USBUART_std.c **** /*******************************************************************************
1060:.\Generated_Source\PSoC5/USBUART_std.c **** * Function Name: USBUART_ClearEndpointHalt
1061:.\Generated_Source\PSoC5/USBUART_std.c **** ********************************************************************************
1062:.\Generated_Source\PSoC5/USBUART_std.c **** *
1063:.\Generated_Source\PSoC5/USBUART_std.c **** * Summary:
1064:.\Generated_Source\PSoC5/USBUART_std.c **** *  This routine handles clear endpoint halt.
1065:.\Generated_Source\PSoC5/USBUART_std.c **** *
1066:.\Generated_Source\PSoC5/USBUART_std.c **** * Parameters:
1067:.\Generated_Source\PSoC5/USBUART_std.c **** *  None.
1068:.\Generated_Source\PSoC5/USBUART_std.c **** *
1069:.\Generated_Source\PSoC5/USBUART_std.c **** * Return:
1070:.\Generated_Source\PSoC5/USBUART_std.c **** *  requestHandled.
1071:.\Generated_Source\PSoC5/USBUART_std.c **** *
1072:.\Generated_Source\PSoC5/USBUART_std.c **** * Reentrant:
1073:.\Generated_Source\PSoC5/USBUART_std.c **** *  No.
1074:.\Generated_Source\PSoC5/USBUART_std.c **** *
1075:.\Generated_Source\PSoC5/USBUART_std.c **** *******************************************************************************/
1076:.\Generated_Source\PSoC5/USBUART_std.c **** uint8 USBUART_ClearEndpointHalt(void) 
1077:.\Generated_Source\PSoC5/USBUART_std.c **** {
ARM GAS  C:\Users\VICTOR~1\AppData\Local\Temp\ccARlXCX.s 			page 64


 2423              		.loc 1 1077 0
 2424              		.cfi_startproc
 2425              		@ args = 0, pretend = 0, frame = 8
 2426              		@ frame_needed = 1, uses_anonymous_args = 0
 2427 0000 80B5     		push	{r7, lr}
 2428              		.cfi_def_cfa_offset 8
 2429              		.cfi_offset 7, -8
 2430              		.cfi_offset 14, -4
 2431 0002 82B0     		sub	sp, sp, #8
 2432              		.cfi_def_cfa_offset 16
 2433 0004 00AF     		add	r7, sp, #0
 2434              		.cfi_def_cfa_register 7
1078:.\Generated_Source\PSoC5/USBUART_std.c ****     uint8 ep;
1079:.\Generated_Source\PSoC5/USBUART_std.c ****     uint8 ri;
1080:.\Generated_Source\PSoC5/USBUART_std.c ****     uint8 requestHandled = USBUART_FALSE;
 2435              		.loc 1 1080 0
 2436 0006 0023     		movs	r3, #0
 2437 0008 FB71     		strb	r3, [r7, #7]
1081:.\Generated_Source\PSoC5/USBUART_std.c **** 
1082:.\Generated_Source\PSoC5/USBUART_std.c ****     /* Clear endpoint halt */
1083:.\Generated_Source\PSoC5/USBUART_std.c ****     ep = CY_GET_REG8(USBUART_wIndexLo) & USBUART_DIR_UNUSED;
 2438              		.loc 1 1083 0
 2439 000a 4A4B     		ldr	r3, .L160
 2440 000c 1B78     		ldrb	r3, [r3]
 2441 000e DBB2     		uxtb	r3, r3
 2442 0010 03F07F03 		and	r3, r3, #127
 2443 0014 BB71     		strb	r3, [r7, #6]
1084:.\Generated_Source\PSoC5/USBUART_std.c ****     ri = ((ep - USBUART_EP1) << USBUART_EPX_CNTX_ADDR_SHIFT);
 2444              		.loc 1 1084 0
 2445 0016 BB79     		ldrb	r3, [r7, #6]
 2446 0018 013B     		subs	r3, r3, #1
 2447 001a DBB2     		uxtb	r3, r3
 2448 001c 1B01     		lsls	r3, r3, #4
 2449 001e 7B71     		strb	r3, [r7, #5]
1085:.\Generated_Source\PSoC5/USBUART_std.c **** 
1086:.\Generated_Source\PSoC5/USBUART_std.c ****     if ((ep > USBUART_EP0) && (ep < USBUART_MAX_EP))
 2450              		.loc 1 1086 0
 2451 0020 BB79     		ldrb	r3, [r7, #6]	@ zero_extendqisi2
 2452 0022 002B     		cmp	r3, #0
 2453 0024 00F08180 		beq	.L153
 2454              		.loc 1 1086 0 is_stmt 0 discriminator 1
 2455 0028 BB79     		ldrb	r3, [r7, #6]	@ zero_extendqisi2
 2456 002a 082B     		cmp	r3, #8
 2457 002c 7DD8     		bhi	.L153
1087:.\Generated_Source\PSoC5/USBUART_std.c ****     {
1088:.\Generated_Source\PSoC5/USBUART_std.c ****         /* Clear the endpoint Halt */
1089:.\Generated_Source\PSoC5/USBUART_std.c ****         USBUART_EP[ep].hwEpState &= (uint8)~(USBUART_ENDPOINT_STATUS_HALT);
 2458              		.loc 1 1089 0 is_stmt 1
 2459 002e BA79     		ldrb	r2, [r7, #6]	@ zero_extendqisi2
 2460 0030 B979     		ldrb	r1, [r7, #6]	@ zero_extendqisi2
 2461 0032 4148     		ldr	r0, .L160+4
 2462 0034 0B46     		mov	r3, r1
 2463 0036 5B00     		lsls	r3, r3, #1
 2464 0038 0B44     		add	r3, r3, r1
 2465 003a 9B00     		lsls	r3, r3, #2
 2466 003c 0344     		add	r3, r3, r0
 2467 003e 9B78     		ldrb	r3, [r3, #2]
ARM GAS  C:\Users\VICTOR~1\AppData\Local\Temp\ccARlXCX.s 			page 65


 2468 0040 DBB2     		uxtb	r3, r3
 2469 0042 23F00103 		bic	r3, r3, #1
 2470 0046 D9B2     		uxtb	r1, r3
 2471 0048 3B48     		ldr	r0, .L160+4
 2472 004a 1346     		mov	r3, r2
 2473 004c 5B00     		lsls	r3, r3, #1
 2474 004e 1344     		add	r3, r3, r2
 2475 0050 9B00     		lsls	r3, r3, #2
 2476 0052 0344     		add	r3, r3, r0
 2477 0054 0A46     		mov	r2, r1
 2478 0056 9A70     		strb	r2, [r3, #2]
1090:.\Generated_Source\PSoC5/USBUART_std.c **** 
1091:.\Generated_Source\PSoC5/USBUART_std.c ****         /* Clear the data toggle */
1092:.\Generated_Source\PSoC5/USBUART_std.c ****         USBUART_EP[ep].epToggle = 0u;
 2479              		.loc 1 1092 0
 2480 0058 BA79     		ldrb	r2, [r7, #6]	@ zero_extendqisi2
 2481 005a 3749     		ldr	r1, .L160+4
 2482 005c 1346     		mov	r3, r2
 2483 005e 5B00     		lsls	r3, r3, #1
 2484 0060 1344     		add	r3, r3, r2
 2485 0062 9B00     		lsls	r3, r3, #2
 2486 0064 0B44     		add	r3, r3, r1
 2487 0066 0022     		movs	r2, #0
 2488 0068 DA70     		strb	r2, [r3, #3]
1093:.\Generated_Source\PSoC5/USBUART_std.c ****         /* Clear toggle bit for already armed packet */
1094:.\Generated_Source\PSoC5/USBUART_std.c ****         CY_SET_REG8((reg8 *)(USBUART_SIE_EP1_CNT0_IND + ri), CY_GET_REG8(
 2489              		.loc 1 1094 0
 2490 006a 7A79     		ldrb	r2, [r7, #5]	@ zero_extendqisi2
 2491 006c 334B     		ldr	r3, .L160+8
 2492 006e 1344     		add	r3, r3, r2
 2493 0070 1A46     		mov	r2, r3
 2494 0072 7979     		ldrb	r1, [r7, #5]	@ zero_extendqisi2
 2495 0074 314B     		ldr	r3, .L160+8
 2496 0076 0B44     		add	r3, r3, r1
 2497 0078 1B78     		ldrb	r3, [r3]
 2498 007a DBB2     		uxtb	r3, r3
 2499 007c 03F07F03 		and	r3, r3, #127
 2500 0080 DBB2     		uxtb	r3, r3
 2501 0082 1370     		strb	r3, [r2]
1095:.\Generated_Source\PSoC5/USBUART_std.c ****                     (reg8 *)(USBUART_SIE_EP1_CNT0_IND + ri)) & (uint8)~USBUART_EPX_CNT_DATA_TOGGLE)
1096:.\Generated_Source\PSoC5/USBUART_std.c ****         /* Return API State as it was defined before */
1097:.\Generated_Source\PSoC5/USBUART_std.c ****         USBUART_EP[ep].apiEpState &= (uint8)~USBUART_NO_EVENT_ALLOWED;
 2502              		.loc 1 1097 0
 2503 0084 BA79     		ldrb	r2, [r7, #6]	@ zero_extendqisi2
 2504 0086 B979     		ldrb	r1, [r7, #6]	@ zero_extendqisi2
 2505 0088 2B48     		ldr	r0, .L160+4
 2506 008a 0B46     		mov	r3, r1
 2507 008c 5B00     		lsls	r3, r3, #1
 2508 008e 0B44     		add	r3, r3, r1
 2509 0090 9B00     		lsls	r3, r3, #2
 2510 0092 0344     		add	r3, r3, r0
 2511 0094 5B78     		ldrb	r3, [r3, #1]
 2512 0096 DBB2     		uxtb	r3, r3
 2513 0098 23F00203 		bic	r3, r3, #2
 2514 009c D9B2     		uxtb	r1, r3
 2515 009e 2648     		ldr	r0, .L160+4
 2516 00a0 1346     		mov	r3, r2
ARM GAS  C:\Users\VICTOR~1\AppData\Local\Temp\ccARlXCX.s 			page 66


 2517 00a2 5B00     		lsls	r3, r3, #1
 2518 00a4 1344     		add	r3, r3, r2
 2519 00a6 9B00     		lsls	r3, r3, #2
 2520 00a8 0344     		add	r3, r3, r0
 2521 00aa 0A46     		mov	r2, r1
 2522 00ac 5A70     		strb	r2, [r3, #1]
1098:.\Generated_Source\PSoC5/USBUART_std.c **** 
1099:.\Generated_Source\PSoC5/USBUART_std.c ****         if ((USBUART_EP[ep].addr & USBUART_DIR_IN) != 0u)
 2523              		.loc 1 1099 0
 2524 00ae BA79     		ldrb	r2, [r7, #6]	@ zero_extendqisi2
 2525 00b0 2149     		ldr	r1, .L160+4
 2526 00b2 1346     		mov	r3, r2
 2527 00b4 5B00     		lsls	r3, r3, #1
 2528 00b6 1344     		add	r3, r3, r2
 2529 00b8 9B00     		lsls	r3, r3, #2
 2530 00ba 0B44     		add	r3, r3, r1
 2531 00bc 1B79     		ldrb	r3, [r3, #4]
 2532 00be DBB2     		uxtb	r3, r3
 2533 00c0 DBB2     		uxtb	r3, r3
 2534 00c2 5BB2     		sxtb	r3, r3
 2535 00c4 002B     		cmp	r3, #0
 2536 00c6 16DA     		bge	.L154
1100:.\Generated_Source\PSoC5/USBUART_std.c ****         {
1101:.\Generated_Source\PSoC5/USBUART_std.c ****             /* IN Endpoint */
1102:.\Generated_Source\PSoC5/USBUART_std.c ****             if(USBUART_EP[ep].apiEpState == USBUART_IN_BUFFER_EMPTY)
 2537              		.loc 1 1102 0
 2538 00c8 BA79     		ldrb	r2, [r7, #6]	@ zero_extendqisi2
 2539 00ca 1B49     		ldr	r1, .L160+4
 2540 00cc 1346     		mov	r3, r2
 2541 00ce 5B00     		lsls	r3, r3, #1
 2542 00d0 1344     		add	r3, r3, r2
 2543 00d2 9B00     		lsls	r3, r3, #2
 2544 00d4 0B44     		add	r3, r3, r1
 2545 00d6 5B78     		ldrb	r3, [r3, #1]
 2546 00d8 DBB2     		uxtb	r3, r3
 2547 00da 012B     		cmp	r3, #1
 2548 00dc 05D1     		bne	.L155
1103:.\Generated_Source\PSoC5/USBUART_std.c ****             {       /* Wait for next packet from application */
1104:.\Generated_Source\PSoC5/USBUART_std.c ****                 CY_SET_REG8((reg8 *)(USBUART_SIE_EP1_CR0_IND + ri), USBUART_MODE_NAK_IN);
 2549              		.loc 1 1104 0
 2550 00de 7A79     		ldrb	r2, [r7, #5]	@ zero_extendqisi2
 2551 00e0 174B     		ldr	r3, .L160+12
 2552 00e2 1344     		add	r3, r3, r2
 2553 00e4 0C22     		movs	r2, #12
 2554 00e6 1A70     		strb	r2, [r3]
 2555 00e8 1BE0     		b	.L157
 2556              	.L155:
1105:.\Generated_Source\PSoC5/USBUART_std.c ****             }
1106:.\Generated_Source\PSoC5/USBUART_std.c ****             else    /* Continue armed transfer */
1107:.\Generated_Source\PSoC5/USBUART_std.c ****             {
1108:.\Generated_Source\PSoC5/USBUART_std.c ****                 CY_SET_REG8((reg8 *)(USBUART_SIE_EP1_CR0_IND + ri), USBUART_MODE_ACK_IN);
 2557              		.loc 1 1108 0
 2558 00ea 7A79     		ldrb	r2, [r7, #5]	@ zero_extendqisi2
 2559 00ec 144B     		ldr	r3, .L160+12
 2560 00ee 1344     		add	r3, r3, r2
 2561 00f0 0D22     		movs	r2, #13
 2562 00f2 1A70     		strb	r2, [r3]
ARM GAS  C:\Users\VICTOR~1\AppData\Local\Temp\ccARlXCX.s 			page 67


 2563 00f4 15E0     		b	.L157
 2564              	.L154:
1109:.\Generated_Source\PSoC5/USBUART_std.c ****             }
1110:.\Generated_Source\PSoC5/USBUART_std.c ****         }
1111:.\Generated_Source\PSoC5/USBUART_std.c ****         else
1112:.\Generated_Source\PSoC5/USBUART_std.c ****         {
1113:.\Generated_Source\PSoC5/USBUART_std.c ****             /* OUT Endpoint */
1114:.\Generated_Source\PSoC5/USBUART_std.c ****             if(USBUART_EP[ep].apiEpState == USBUART_OUT_BUFFER_FULL)
 2565              		.loc 1 1114 0
 2566 00f6 BA79     		ldrb	r2, [r7, #6]	@ zero_extendqisi2
 2567 00f8 0F49     		ldr	r1, .L160+4
 2568 00fa 1346     		mov	r3, r2
 2569 00fc 5B00     		lsls	r3, r3, #1
 2570 00fe 1344     		add	r3, r3, r2
 2571 0100 9B00     		lsls	r3, r3, #2
 2572 0102 0B44     		add	r3, r3, r1
 2573 0104 5B78     		ldrb	r3, [r3, #1]
 2574 0106 DBB2     		uxtb	r3, r3
 2575 0108 012B     		cmp	r3, #1
 2576 010a 05D1     		bne	.L158
1115:.\Generated_Source\PSoC5/USBUART_std.c ****             {       /* Allow application to read full buffer */
1116:.\Generated_Source\PSoC5/USBUART_std.c ****                 CY_SET_REG8((reg8 *)(USBUART_SIE_EP1_CR0_IND + ri), USBUART_MODE_NAK_OUT);
 2577              		.loc 1 1116 0
 2578 010c 7A79     		ldrb	r2, [r7, #5]	@ zero_extendqisi2
 2579 010e 0C4B     		ldr	r3, .L160+12
 2580 0110 1344     		add	r3, r3, r2
 2581 0112 0822     		movs	r2, #8
 2582 0114 1A70     		strb	r2, [r3]
 2583 0116 04E0     		b	.L157
 2584              	.L158:
1117:.\Generated_Source\PSoC5/USBUART_std.c ****             }
1118:.\Generated_Source\PSoC5/USBUART_std.c ****             else    /* Mark endpoint as empty, so it will be reloaded */
1119:.\Generated_Source\PSoC5/USBUART_std.c ****             {
1120:.\Generated_Source\PSoC5/USBUART_std.c ****                 CY_SET_REG8((reg8 *)(USBUART_SIE_EP1_CR0_IND + ri), USBUART_MODE_ACK_OUT);
 2585              		.loc 1 1120 0
 2586 0118 7A79     		ldrb	r2, [r7, #5]	@ zero_extendqisi2
 2587 011a 094B     		ldr	r3, .L160+12
 2588 011c 1344     		add	r3, r3, r2
 2589 011e 0922     		movs	r2, #9
 2590 0120 1A70     		strb	r2, [r3]
 2591              	.L157:
1121:.\Generated_Source\PSoC5/USBUART_std.c ****             }
1122:.\Generated_Source\PSoC5/USBUART_std.c ****         }
1123:.\Generated_Source\PSoC5/USBUART_std.c ****         requestHandled = USBUART_InitNoDataControlTransfer();
 2592              		.loc 1 1123 0
 2593 0122 FFF7FEFF 		bl	USBUART_InitNoDataControlTransfer
 2594 0126 0346     		mov	r3, r0
 2595 0128 FB71     		strb	r3, [r7, #7]
 2596              	.L153:
1124:.\Generated_Source\PSoC5/USBUART_std.c ****     }
1125:.\Generated_Source\PSoC5/USBUART_std.c **** 
1126:.\Generated_Source\PSoC5/USBUART_std.c ****     return(requestHandled);
 2597              		.loc 1 1126 0
 2598 012a FB79     		ldrb	r3, [r7, #7]	@ zero_extendqisi2
1127:.\Generated_Source\PSoC5/USBUART_std.c **** }
 2599              		.loc 1 1127 0
 2600 012c 1846     		mov	r0, r3
ARM GAS  C:\Users\VICTOR~1\AppData\Local\Temp\ccARlXCX.s 			page 68


 2601 012e 0837     		adds	r7, r7, #8
 2602 0130 BD46     		mov	sp, r7
 2603              		@ sp needed
 2604 0132 80BD     		pop	{r7, pc}
 2605              	.L161:
 2606              		.align	2
 2607              	.L160:
 2608 0134 04600040 		.word	1073766404
 2609 0138 00000000 		.word	USBUART_EP
 2610 013c 0C600040 		.word	1073766412
 2611 0140 0E600040 		.word	1073766414
 2612              		.cfi_endproc
 2613              	.LFE10:
 2614              		.size	USBUART_ClearEndpointHalt, .-USBUART_ClearEndpointHalt
 2615              		.section	.text.USBUART_ValidateAlternateSetting,"ax",%progbits
 2616              		.align	2
 2617              		.global	USBUART_ValidateAlternateSetting
 2618              		.thumb
 2619              		.thumb_func
 2620              		.type	USBUART_ValidateAlternateSetting, %function
 2621              	USBUART_ValidateAlternateSetting:
 2622              	.LFB11:
1128:.\Generated_Source\PSoC5/USBUART_std.c **** 
1129:.\Generated_Source\PSoC5/USBUART_std.c **** 
1130:.\Generated_Source\PSoC5/USBUART_std.c **** /*******************************************************************************
1131:.\Generated_Source\PSoC5/USBUART_std.c **** * Function Name: USBUART_ValidateAlternateSetting
1132:.\Generated_Source\PSoC5/USBUART_std.c **** ********************************************************************************
1133:.\Generated_Source\PSoC5/USBUART_std.c **** *
1134:.\Generated_Source\PSoC5/USBUART_std.c **** * Summary:
1135:.\Generated_Source\PSoC5/USBUART_std.c **** *  Validates (and records) a SET INTERFACE request.
1136:.\Generated_Source\PSoC5/USBUART_std.c **** *
1137:.\Generated_Source\PSoC5/USBUART_std.c **** * Parameters:
1138:.\Generated_Source\PSoC5/USBUART_std.c **** *  None.
1139:.\Generated_Source\PSoC5/USBUART_std.c **** *
1140:.\Generated_Source\PSoC5/USBUART_std.c **** * Return:
1141:.\Generated_Source\PSoC5/USBUART_std.c **** *  requestHandled.
1142:.\Generated_Source\PSoC5/USBUART_std.c **** *
1143:.\Generated_Source\PSoC5/USBUART_std.c **** * Reentrant:
1144:.\Generated_Source\PSoC5/USBUART_std.c **** *  No.
1145:.\Generated_Source\PSoC5/USBUART_std.c **** *
1146:.\Generated_Source\PSoC5/USBUART_std.c **** *******************************************************************************/
1147:.\Generated_Source\PSoC5/USBUART_std.c **** uint8 USBUART_ValidateAlternateSetting(void) 
1148:.\Generated_Source\PSoC5/USBUART_std.c **** {
 2623              		.loc 1 1148 0
 2624              		.cfi_startproc
 2625              		@ args = 0, pretend = 0, frame = 16
 2626              		@ frame_needed = 1, uses_anonymous_args = 0
 2627 0000 80B5     		push	{r7, lr}
 2628              		.cfi_def_cfa_offset 8
 2629              		.cfi_offset 7, -8
 2630              		.cfi_offset 14, -4
 2631 0002 84B0     		sub	sp, sp, #16
 2632              		.cfi_def_cfa_offset 24
 2633 0004 00AF     		add	r7, sp, #0
 2634              		.cfi_def_cfa_register 7
1149:.\Generated_Source\PSoC5/USBUART_std.c ****     uint8 requestHandled = USBUART_TRUE;
 2635              		.loc 1 1149 0
ARM GAS  C:\Users\VICTOR~1\AppData\Local\Temp\ccARlXCX.s 			page 69


 2636 0006 0123     		movs	r3, #1
 2637 0008 FB73     		strb	r3, [r7, #15]
1150:.\Generated_Source\PSoC5/USBUART_std.c ****     uint8 interfaceNum;
1151:.\Generated_Source\PSoC5/USBUART_std.c ****     const T_USBUART_LUT CYCODE *pTmp;
1152:.\Generated_Source\PSoC5/USBUART_std.c ****     uint8 currentInterfacesNum;
1153:.\Generated_Source\PSoC5/USBUART_std.c **** 
1154:.\Generated_Source\PSoC5/USBUART_std.c ****     interfaceNum = CY_GET_REG8(USBUART_wIndexLo);
 2638              		.loc 1 1154 0
 2639 000a 164B     		ldr	r3, .L167
 2640 000c 1B78     		ldrb	r3, [r3]
 2641 000e BB73     		strb	r3, [r7, #14]
1155:.\Generated_Source\PSoC5/USBUART_std.c ****     /* Validate interface setting, stall if invalid. */
1156:.\Generated_Source\PSoC5/USBUART_std.c ****     pTmp = USBUART_GetConfigTablePtr(USBUART_configuration - 1u);
 2642              		.loc 1 1156 0
 2643 0010 154B     		ldr	r3, .L167+4
 2644 0012 1B78     		ldrb	r3, [r3]
 2645 0014 DBB2     		uxtb	r3, r3
 2646 0016 013B     		subs	r3, r3, #1
 2647 0018 DBB2     		uxtb	r3, r3
 2648 001a 1846     		mov	r0, r3
 2649 001c FFF7FEFF 		bl	USBUART_GetConfigTablePtr
 2650 0020 B860     		str	r0, [r7, #8]
1157:.\Generated_Source\PSoC5/USBUART_std.c ****     currentInterfacesNum  = ((const uint8 *) pTmp->p_list)[USBUART_CONFIG_DESCR_NUM_INTERFACES];
 2651              		.loc 1 1157 0
 2652 0022 BB68     		ldr	r3, [r7, #8]
 2653 0024 5B68     		ldr	r3, [r3, #4]
 2654 0026 1B79     		ldrb	r3, [r3, #4]
 2655 0028 FB71     		strb	r3, [r7, #7]
1158:.\Generated_Source\PSoC5/USBUART_std.c **** 
1159:.\Generated_Source\PSoC5/USBUART_std.c ****     if((interfaceNum >= currentInterfacesNum) || (interfaceNum >= USBUART_MAX_INTERFACES_NUMBER))
 2656              		.loc 1 1159 0
 2657 002a BA7B     		ldrb	r2, [r7, #14]	@ zero_extendqisi2
 2658 002c FB79     		ldrb	r3, [r7, #7]	@ zero_extendqisi2
 2659 002e 9A42     		cmp	r2, r3
 2660 0030 02D2     		bcs	.L163
 2661              		.loc 1 1159 0 is_stmt 0 discriminator 1
 2662 0032 BB7B     		ldrb	r3, [r7, #14]	@ zero_extendqisi2
 2663 0034 012B     		cmp	r3, #1
 2664 0036 02D9     		bls	.L164
 2665              	.L163:
1160:.\Generated_Source\PSoC5/USBUART_std.c ****     {   /* Wrong interface number */
1161:.\Generated_Source\PSoC5/USBUART_std.c ****         requestHandled = USBUART_FALSE;
 2666              		.loc 1 1161 0 is_stmt 1
 2667 0038 0023     		movs	r3, #0
 2668 003a FB73     		strb	r3, [r7, #15]
 2669 003c 0CE0     		b	.L165
 2670              	.L164:
1162:.\Generated_Source\PSoC5/USBUART_std.c ****     }
1163:.\Generated_Source\PSoC5/USBUART_std.c ****     else
1164:.\Generated_Source\PSoC5/USBUART_std.c ****     {
1165:.\Generated_Source\PSoC5/USBUART_std.c ****         /* Save current Alt setting to find out the difference in Config() function */
1166:.\Generated_Source\PSoC5/USBUART_std.c ****         USBUART_interfaceSetting_last[interfaceNum] = USBUART_interfaceSetting[interfaceNum];
 2671              		.loc 1 1166 0
 2672 003e BB7B     		ldrb	r3, [r7, #14]	@ zero_extendqisi2
 2673 0040 BA7B     		ldrb	r2, [r7, #14]	@ zero_extendqisi2
 2674 0042 0A49     		ldr	r1, .L167+8
 2675 0044 8A5C     		ldrb	r2, [r1, r2]
ARM GAS  C:\Users\VICTOR~1\AppData\Local\Temp\ccARlXCX.s 			page 70


 2676 0046 D1B2     		uxtb	r1, r2
 2677 0048 094A     		ldr	r2, .L167+12
 2678 004a D154     		strb	r1, [r2, r3]
1167:.\Generated_Source\PSoC5/USBUART_std.c ****         USBUART_interfaceSetting[interfaceNum] = CY_GET_REG8(USBUART_wValueLo);
 2679              		.loc 1 1167 0
 2680 004c BB7B     		ldrb	r3, [r7, #14]	@ zero_extendqisi2
 2681 004e 094A     		ldr	r2, .L167+16
 2682 0050 1278     		ldrb	r2, [r2]
 2683 0052 D1B2     		uxtb	r1, r2
 2684 0054 054A     		ldr	r2, .L167+8
 2685 0056 D154     		strb	r1, [r2, r3]
 2686              	.L165:
1168:.\Generated_Source\PSoC5/USBUART_std.c ****     }
1169:.\Generated_Source\PSoC5/USBUART_std.c **** 
1170:.\Generated_Source\PSoC5/USBUART_std.c ****     return (requestHandled);
 2687              		.loc 1 1170 0
 2688 0058 FB7B     		ldrb	r3, [r7, #15]	@ zero_extendqisi2
1171:.\Generated_Source\PSoC5/USBUART_std.c **** }
 2689              		.loc 1 1171 0
 2690 005a 1846     		mov	r0, r3
 2691 005c 1037     		adds	r7, r7, #16
 2692 005e BD46     		mov	sp, r7
 2693              		@ sp needed
 2694 0060 80BD     		pop	{r7, pc}
 2695              	.L168:
 2696 0062 00BF     		.align	2
 2697              	.L167:
 2698 0064 04600040 		.word	1073766404
 2699 0068 00000000 		.word	USBUART_configuration
 2700 006c 00000000 		.word	USBUART_interfaceSetting
 2701 0070 00000000 		.word	USBUART_interfaceSetting_last
 2702 0074 02600040 		.word	1073766402
 2703              		.cfi_endproc
 2704              	.LFE11:
 2705              		.size	USBUART_ValidateAlternateSetting, .-USBUART_ValidateAlternateSetting
 2706              		.bss
 2707              		.align	2
 2708              	USBUART_tBuffer.5007:
 2709 0000 0000     		.space	2
 2710 0002 0000     		.text
 2711              	.Letext0:
 2712              		.file 2 ".\\Generated_Source\\PSoC5\\cytypes.h"
 2713              		.file 3 ".\\Generated_Source\\PSoC5\\USBUART.h"
 2714              		.file 4 ".\\Generated_Source\\PSoC5\\USBUART_cdc.h"
 2715              		.file 5 ".\\Generated_Source\\PSoC5\\USBUART_pvt.h"
 2716              		.section	.debug_info,"",%progbits
 2717              	.Ldebug_info0:
 2718 0000 B6070000 		.4byte	0x7b6
 2719 0004 0400     		.2byte	0x4
 2720 0006 00000000 		.4byte	.Ldebug_abbrev0
 2721 000a 04       		.byte	0x4
 2722 000b 01       		.uleb128 0x1
 2723 000c B9030000 		.4byte	.LASF89
 2724 0010 01       		.byte	0x1
 2725 0011 3D020000 		.4byte	.LASF90
 2726 0015 DF020000 		.4byte	.LASF91
 2727 0019 00000000 		.4byte	.Ldebug_ranges0+0
ARM GAS  C:\Users\VICTOR~1\AppData\Local\Temp\ccARlXCX.s 			page 71


 2728 001d 00000000 		.4byte	0
 2729 0021 00000000 		.4byte	.Ldebug_line0
 2730 0025 02       		.uleb128 0x2
 2731 0026 01       		.byte	0x1
 2732 0027 06       		.byte	0x6
 2733 0028 AB000000 		.4byte	.LASF0
 2734 002c 02       		.uleb128 0x2
 2735 002d 01       		.byte	0x1
 2736 002e 08       		.byte	0x8
 2737 002f F8040000 		.4byte	.LASF1
 2738 0033 02       		.uleb128 0x2
 2739 0034 02       		.byte	0x2
 2740 0035 05       		.byte	0x5
 2741 0036 06050000 		.4byte	.LASF2
 2742 003a 02       		.uleb128 0x2
 2743 003b 02       		.byte	0x2
 2744 003c 07       		.byte	0x7
 2745 003d 99020000 		.4byte	.LASF3
 2746 0041 02       		.uleb128 0x2
 2747 0042 04       		.byte	0x4
 2748 0043 05       		.byte	0x5
 2749 0044 07010000 		.4byte	.LASF4
 2750 0048 02       		.uleb128 0x2
 2751 0049 04       		.byte	0x4
 2752 004a 07       		.byte	0x7
 2753 004b 2B020000 		.4byte	.LASF5
 2754 004f 02       		.uleb128 0x2
 2755 0050 08       		.byte	0x8
 2756 0051 05       		.byte	0x5
 2757 0052 9D000000 		.4byte	.LASF6
 2758 0056 02       		.uleb128 0x2
 2759 0057 08       		.byte	0x8
 2760 0058 07       		.byte	0x7
 2761 0059 55000000 		.4byte	.LASF7
 2762 005d 03       		.uleb128 0x3
 2763 005e 04       		.byte	0x4
 2764 005f 05       		.byte	0x5
 2765 0060 696E7400 		.ascii	"int\000"
 2766 0064 02       		.uleb128 0x2
 2767 0065 04       		.byte	0x4
 2768 0066 07       		.byte	0x7
 2769 0067 0E020000 		.4byte	.LASF8
 2770 006b 04       		.uleb128 0x4
 2771 006c 38010000 		.4byte	.LASF9
 2772 0070 02       		.byte	0x2
 2773 0071 5B       		.byte	0x5b
 2774 0072 2C000000 		.4byte	0x2c
 2775 0076 04       		.uleb128 0x4
 2776 0077 13000000 		.4byte	.LASF10
 2777 007b 02       		.byte	0x2
 2778 007c 5C       		.byte	0x5c
 2779 007d 3A000000 		.4byte	0x3a
 2780 0081 02       		.uleb128 0x2
 2781 0082 04       		.byte	0x4
 2782 0083 04       		.byte	0x4
 2783 0084 9B040000 		.4byte	.LASF11
 2784 0088 02       		.uleb128 0x2
ARM GAS  C:\Users\VICTOR~1\AppData\Local\Temp\ccARlXCX.s 			page 72


 2785 0089 08       		.byte	0x8
 2786 008a 04       		.byte	0x4
 2787 008b 6E010000 		.4byte	.LASF12
 2788 008f 04       		.uleb128 0x4
 2789 0090 B4050000 		.4byte	.LASF13
 2790 0094 02       		.byte	0x2
 2791 0095 6C       		.byte	0x6c
 2792 0096 9A000000 		.4byte	0x9a
 2793 009a 02       		.uleb128 0x2
 2794 009b 01       		.byte	0x1
 2795 009c 08       		.byte	0x8
 2796 009d 73050000 		.4byte	.LASF14
 2797 00a1 04       		.uleb128 0x4
 2798 00a2 D4040000 		.4byte	.LASF15
 2799 00a6 02       		.byte	0x2
 2800 00a7 F0       		.byte	0xf0
 2801 00a8 AC000000 		.4byte	0xac
 2802 00ac 05       		.uleb128 0x5
 2803 00ad 6B000000 		.4byte	0x6b
 2804 00b1 02       		.uleb128 0x2
 2805 00b2 04       		.byte	0x4
 2806 00b3 07       		.byte	0x7
 2807 00b4 7A030000 		.4byte	.LASF16
 2808 00b8 06       		.uleb128 0x6
 2809 00b9 0C       		.byte	0xc
 2810 00ba 03       		.byte	0x3
 2811 00bb 7A       		.byte	0x7a
 2812 00bc 2D010000 		.4byte	0x12d
 2813 00c0 07       		.uleb128 0x7
 2814 00c1 B2030000 		.4byte	.LASF17
 2815 00c5 03       		.byte	0x3
 2816 00c6 7C       		.byte	0x7c
 2817 00c7 6B000000 		.4byte	0x6b
 2818 00cb 00       		.byte	0
 2819 00cc 07       		.uleb128 0x7
 2820 00cd A1040000 		.4byte	.LASF18
 2821 00d1 03       		.byte	0x3
 2822 00d2 7D       		.byte	0x7d
 2823 00d3 6B000000 		.4byte	0x6b
 2824 00d7 01       		.byte	0x1
 2825 00d8 07       		.uleb128 0x7
 2826 00d9 64030000 		.4byte	.LASF19
 2827 00dd 03       		.byte	0x3
 2828 00de 7E       		.byte	0x7e
 2829 00df 6B000000 		.4byte	0x6b
 2830 00e3 02       		.byte	0x2
 2831 00e4 07       		.uleb128 0x7
 2832 00e5 3E010000 		.4byte	.LASF20
 2833 00e9 03       		.byte	0x3
 2834 00ea 7F       		.byte	0x7f
 2835 00eb 6B000000 		.4byte	0x6b
 2836 00ef 03       		.byte	0x3
 2837 00f0 07       		.uleb128 0x7
 2838 00f1 6C000000 		.4byte	.LASF21
 2839 00f5 03       		.byte	0x3
 2840 00f6 80       		.byte	0x80
 2841 00f7 6B000000 		.4byte	0x6b
ARM GAS  C:\Users\VICTOR~1\AppData\Local\Temp\ccARlXCX.s 			page 73


 2842 00fb 04       		.byte	0x4
 2843 00fc 07       		.uleb128 0x7
 2844 00fd C4010000 		.4byte	.LASF22
 2845 0101 03       		.byte	0x3
 2846 0102 81       		.byte	0x81
 2847 0103 6B000000 		.4byte	0x6b
 2848 0107 05       		.byte	0x5
 2849 0108 07       		.uleb128 0x7
 2850 0109 A9050000 		.4byte	.LASF23
 2851 010d 03       		.byte	0x3
 2852 010e 82       		.byte	0x82
 2853 010f 76000000 		.4byte	0x76
 2854 0113 06       		.byte	0x6
 2855 0114 07       		.uleb128 0x7
 2856 0115 78050000 		.4byte	.LASF24
 2857 0119 03       		.byte	0x3
 2858 011a 83       		.byte	0x83
 2859 011b 76000000 		.4byte	0x76
 2860 011f 08       		.byte	0x8
 2861 0120 07       		.uleb128 0x7
 2862 0121 C3020000 		.4byte	.LASF25
 2863 0125 03       		.byte	0x3
 2864 0126 84       		.byte	0x84
 2865 0127 6B000000 		.4byte	0x6b
 2866 012b 0A       		.byte	0xa
 2867 012c 00       		.byte	0
 2868 012d 04       		.uleb128 0x4
 2869 012e 92050000 		.4byte	.LASF26
 2870 0132 03       		.byte	0x3
 2871 0133 85       		.byte	0x85
 2872 0134 B8000000 		.4byte	0xb8
 2873 0138 06       		.uleb128 0x6
 2874 0139 08       		.byte	0x8
 2875 013a 03       		.byte	0x3
 2876 013b 87       		.byte	0x87
 2877 013c 89010000 		.4byte	0x189
 2878 0140 07       		.uleb128 0x7
 2879 0141 C3020000 		.4byte	.LASF25
 2880 0145 03       		.byte	0x3
 2881 0146 89       		.byte	0x89
 2882 0147 6B000000 		.4byte	0x6b
 2883 014b 00       		.byte	0
 2884 014c 07       		.uleb128 0x7
 2885 014d 68050000 		.4byte	.LASF27
 2886 0151 03       		.byte	0x3
 2887 0152 8A       		.byte	0x8a
 2888 0153 6B000000 		.4byte	0x6b
 2889 0157 01       		.byte	0x1
 2890 0158 07       		.uleb128 0x7
 2891 0159 6C000000 		.4byte	.LASF21
 2892 015d 03       		.byte	0x3
 2893 015e 8B       		.byte	0x8b
 2894 015f 6B000000 		.4byte	0x6b
 2895 0163 02       		.byte	0x2
 2896 0164 07       		.uleb128 0x7
 2897 0165 43050000 		.4byte	.LASF28
 2898 0169 03       		.byte	0x3
ARM GAS  C:\Users\VICTOR~1\AppData\Local\Temp\ccARlXCX.s 			page 74


 2899 016a 8C       		.byte	0x8c
 2900 016b 6B000000 		.4byte	0x6b
 2901 016f 03       		.byte	0x3
 2902 0170 07       		.uleb128 0x7
 2903 0171 78050000 		.4byte	.LASF24
 2904 0175 03       		.byte	0x3
 2905 0176 8D       		.byte	0x8d
 2906 0177 76000000 		.4byte	0x76
 2907 017b 04       		.byte	0x4
 2908 017c 07       		.uleb128 0x7
 2909 017d 1E060000 		.4byte	.LASF29
 2910 0181 03       		.byte	0x3
 2911 0182 8E       		.byte	0x8e
 2912 0183 6B000000 		.4byte	0x6b
 2913 0187 06       		.byte	0x6
 2914 0188 00       		.byte	0
 2915 0189 04       		.uleb128 0x4
 2916 018a BA050000 		.4byte	.LASF30
 2917 018e 03       		.byte	0x3
 2918 018f 8F       		.byte	0x8f
 2919 0190 38010000 		.4byte	0x138
 2920 0194 06       		.uleb128 0x6
 2921 0195 04       		.byte	0x4
 2922 0196 03       		.byte	0x3
 2923 0197 91       		.byte	0x91
 2924 0198 B5010000 		.4byte	0x1b5
 2925 019c 07       		.uleb128 0x7
 2926 019d 01060000 		.4byte	.LASF31
 2927 01a1 03       		.byte	0x3
 2928 01a2 93       		.byte	0x93
 2929 01a3 6B000000 		.4byte	0x6b
 2930 01a7 00       		.byte	0
 2931 01a8 07       		.uleb128 0x7
 2932 01a9 EE050000 		.4byte	.LASF32
 2933 01ad 03       		.byte	0x3
 2934 01ae 94       		.byte	0x94
 2935 01af 76000000 		.4byte	0x76
 2936 01b3 02       		.byte	0x2
 2937 01b4 00       		.byte	0
 2938 01b5 04       		.uleb128 0x4
 2939 01b6 81000000 		.4byte	.LASF33
 2940 01ba 03       		.byte	0x3
 2941 01bb 95       		.byte	0x95
 2942 01bc 94010000 		.4byte	0x194
 2943 01c0 06       		.uleb128 0x6
 2944 01c1 0C       		.byte	0xc
 2945 01c2 03       		.byte	0x3
 2946 01c3 97       		.byte	0x97
 2947 01c4 ED010000 		.4byte	0x1ed
 2948 01c8 07       		.uleb128 0x7
 2949 01c9 0D000000 		.4byte	.LASF34
 2950 01cd 03       		.byte	0x3
 2951 01ce 99       		.byte	0x99
 2952 01cf 76000000 		.4byte	0x76
 2953 01d3 00       		.byte	0
 2954 01d4 07       		.uleb128 0x7
 2955 01d5 BE010000 		.4byte	.LASF35
ARM GAS  C:\Users\VICTOR~1\AppData\Local\Temp\ccARlXCX.s 			page 75


 2956 01d9 03       		.byte	0x3
 2957 01da 9A       		.byte	0x9a
 2958 01db ED010000 		.4byte	0x1ed
 2959 01df 04       		.byte	0x4
 2960 01e0 07       		.uleb128 0x7
 2961 01e1 00000000 		.4byte	.LASF36
 2962 01e5 03       		.byte	0x3
 2963 01e6 9B       		.byte	0x9b
 2964 01e7 F3010000 		.4byte	0x1f3
 2965 01eb 08       		.byte	0x8
 2966 01ec 00       		.byte	0
 2967 01ed 08       		.uleb128 0x8
 2968 01ee 04       		.byte	0x4
 2969 01ef AC000000 		.4byte	0xac
 2970 01f3 08       		.uleb128 0x8
 2971 01f4 04       		.byte	0x4
 2972 01f5 B5010000 		.4byte	0x1b5
 2973 01f9 04       		.uleb128 0x4
 2974 01fa 1E050000 		.4byte	.LASF37
 2975 01fe 03       		.byte	0x3
 2976 01ff 9C       		.byte	0x9c
 2977 0200 C0010000 		.4byte	0x1c0
 2978 0204 06       		.uleb128 0x6
 2979 0205 08       		.byte	0x8
 2980 0206 03       		.byte	0x3
 2981 0207 9F       		.byte	0x9f
 2982 0208 23020000 		.4byte	0x223
 2983 020c 09       		.uleb128 0x9
 2984 020d 6300     		.ascii	"c\000"
 2985 020f 03       		.byte	0x3
 2986 0210 A1       		.byte	0xa1
 2987 0211 6B000000 		.4byte	0x6b
 2988 0215 00       		.byte	0
 2989 0216 07       		.uleb128 0x7
 2990 0217 A1030000 		.4byte	.LASF38
 2991 021b 03       		.byte	0x3
 2992 021c A2       		.byte	0xa2
 2993 021d 23020000 		.4byte	0x223
 2994 0221 04       		.byte	0x4
 2995 0222 00       		.byte	0
 2996 0223 08       		.uleb128 0x8
 2997 0224 04       		.byte	0x4
 2998 0225 29020000 		.4byte	0x229
 2999 0229 0A       		.uleb128 0xa
 3000 022a 04       		.uleb128 0x4
 3001 022b 10050000 		.4byte	.LASF39
 3002 022f 03       		.byte	0x3
 3003 0230 A3       		.byte	0xa3
 3004 0231 04020000 		.4byte	0x204
 3005 0235 0B       		.uleb128 0xb
 3006 0236 64020000 		.4byte	.LASF59
 3007 023a 01       		.byte	0x1
 3008 023b 58       		.byte	0x58
 3009 023c 6B000000 		.4byte	0x6b
 3010 0240 00000000 		.4byte	.LFB0
 3011 0244 A0040000 		.4byte	.LFE0-.LFB0
 3012 0248 01       		.uleb128 0x1
ARM GAS  C:\Users\VICTOR~1\AppData\Local\Temp\ccARlXCX.s 			page 76


 3013 0249 9C       		.byte	0x9c
 3014 024a C2020000 		.4byte	0x2c2
 3015 024e 0C       		.uleb128 0xc
 3016 024f 83050000 		.4byte	.LASF40
 3017 0253 01       		.byte	0x1
 3018 0254 5A       		.byte	0x5a
 3019 0255 6B000000 		.4byte	0x6b
 3020 0259 02       		.uleb128 0x2
 3021 025a 91       		.byte	0x91
 3022 025b 77       		.sleb128 -9
 3023 025c 0C       		.uleb128 0xc
 3024 025d 71000000 		.4byte	.LASF41
 3025 0261 01       		.byte	0x1
 3026 0262 5B       		.byte	0x5b
 3027 0263 6B000000 		.4byte	0x6b
 3028 0267 02       		.uleb128 0x2
 3029 0268 91       		.byte	0x91
 3030 0269 65       		.sleb128 -27
 3031 026a 0C       		.uleb128 0xc
 3032 026b C0040000 		.4byte	.LASF42
 3033 026f 01       		.byte	0x1
 3034 0270 5C       		.byte	0x5c
 3035 0271 6B000000 		.4byte	0x6b
 3036 0275 02       		.uleb128 0x2
 3037 0276 91       		.byte	0x91
 3038 0277 66       		.sleb128 -26
 3039 0278 0C       		.uleb128 0xc
 3040 0279 CF040000 		.4byte	.LASF43
 3041 027d 01       		.byte	0x1
 3042 027e 5E       		.byte	0x5e
 3043 027f ED010000 		.4byte	0x1ed
 3044 0283 02       		.uleb128 0x2
 3045 0284 91       		.byte	0x91
 3046 0285 70       		.sleb128 -16
 3047 0286 0C       		.uleb128 0xc
 3048 0287 F5050000 		.4byte	.LASF44
 3049 028b 01       		.byte	0x1
 3050 028c 60       		.byte	0x60
 3051 028d 6B000000 		.4byte	0x6b
 3052 0291 02       		.uleb128 0x2
 3053 0292 91       		.byte	0x91
 3054 0293 6F       		.sleb128 -17
 3055 0294 0C       		.uleb128 0xc
 3056 0295 6E030000 		.4byte	.LASF45
 3057 0299 01       		.byte	0x1
 3058 029a 61       		.byte	0x61
 3059 029b 6B000000 		.4byte	0x6b
 3060 029f 02       		.uleb128 0x2
 3061 02a0 91       		.byte	0x91
 3062 02a1 67       		.sleb128 -25
 3063 02a2 0C       		.uleb128 0xc
 3064 02a3 1B020000 		.4byte	.LASF46
 3065 02a7 01       		.byte	0x1
 3066 02a8 64       		.byte	0x64
 3067 02a9 D2020000 		.4byte	0x2d2
 3068 02ad 05       		.uleb128 0x5
 3069 02ae 03       		.byte	0x3
ARM GAS  C:\Users\VICTOR~1\AppData\Local\Temp\ccARlXCX.s 			page 77


 3070 02af 00000000 		.4byte	USBUART_tBuffer.5007
 3071 02b3 0C       		.uleb128 0xc
 3072 02b4 9C030000 		.4byte	.LASF47
 3073 02b8 01       		.byte	0x1
 3074 02b9 65       		.byte	0x65
 3075 02ba D7020000 		.4byte	0x2d7
 3076 02be 02       		.uleb128 0x2
 3077 02bf 91       		.byte	0x91
 3078 02c0 68       		.sleb128 -24
 3079 02c1 00       		.byte	0
 3080 02c2 0D       		.uleb128 0xd
 3081 02c3 6B000000 		.4byte	0x6b
 3082 02c7 D2020000 		.4byte	0x2d2
 3083 02cb 0E       		.uleb128 0xe
 3084 02cc B1000000 		.4byte	0xb1
 3085 02d0 01       		.byte	0x1
 3086 02d1 00       		.byte	0
 3087 02d2 05       		.uleb128 0x5
 3088 02d3 C2020000 		.4byte	0x2c2
 3089 02d7 08       		.uleb128 0x8
 3090 02d8 04       		.byte	0x4
 3091 02d9 DD020000 		.4byte	0x2dd
 3092 02dd 0F       		.uleb128 0xf
 3093 02de 2A020000 		.4byte	0x22a
 3094 02e2 10       		.uleb128 0x10
 3095 02e3 26010000 		.4byte	.LASF49
 3096 02e7 01       		.byte	0x1
 3097 02e8 6701     		.2byte	0x167
 3098 02ea 00000000 		.4byte	.LFB1
 3099 02ee 90000000 		.4byte	.LFE1-.LFB1
 3100 02f2 01       		.uleb128 0x1
 3101 02f3 9C       		.byte	0x9c
 3102 02f4 40030000 		.4byte	0x340
 3103 02f8 11       		.uleb128 0x11
 3104 02f9 F2040000 		.4byte	.LASF52
 3105 02fd 01       		.byte	0x1
 3106 02fe 6701     		.2byte	0x167
 3107 0300 40030000 		.4byte	0x340
 3108 0304 02       		.uleb128 0x2
 3109 0305 91       		.byte	0x91
 3110 0306 5C       		.sleb128 -36
 3111 0307 12       		.uleb128 0x12
 3112 0308 6900     		.ascii	"i\000"
 3113 030a 01       		.byte	0x1
 3114 030b 6901     		.2byte	0x169
 3115 030d 6B000000 		.4byte	0x6b
 3116 0311 02       		.uleb128 0x2
 3117 0312 91       		.byte	0x91
 3118 0313 77       		.sleb128 -9
 3119 0314 12       		.uleb128 0x12
 3120 0315 6A00     		.ascii	"j\000"
 3121 0317 01       		.byte	0x1
 3122 0318 6A01     		.2byte	0x16a
 3123 031a 6B000000 		.4byte	0x6b
 3124 031e 02       		.uleb128 0x2
 3125 031f 91       		.byte	0x91
 3126 0320 76       		.sleb128 -10
ARM GAS  C:\Users\VICTOR~1\AppData\Local\Temp\ccARlXCX.s 			page 78


 3127 0321 13       		.uleb128 0x13
 3128 0322 F3010000 		.4byte	.LASF48
 3129 0326 01       		.byte	0x1
 3130 0327 6B01     		.2byte	0x16b
 3131 0329 6B000000 		.4byte	0x6b
 3132 032d 02       		.uleb128 0x2
 3133 032e 91       		.byte	0x91
 3134 032f 75       		.sleb128 -11
 3135 0330 12       		.uleb128 0x12
 3136 0331 68657800 		.ascii	"hex\000"
 3137 0335 01       		.byte	0x1
 3138 0336 6C01     		.2byte	0x16c
 3139 0338 56030000 		.4byte	0x356
 3140 033c 02       		.uleb128 0x2
 3141 033d 91       		.byte	0x91
 3142 033e 64       		.sleb128 -28
 3143 033f 00       		.byte	0
 3144 0340 08       		.uleb128 0x8
 3145 0341 04       		.byte	0x4
 3146 0342 6B000000 		.4byte	0x6b
 3147 0346 0D       		.uleb128 0xd
 3148 0347 8F000000 		.4byte	0x8f
 3149 034b 56030000 		.4byte	0x356
 3150 034f 0E       		.uleb128 0xe
 3151 0350 B1000000 		.4byte	0xb1
 3152 0354 0F       		.byte	0xf
 3153 0355 00       		.byte	0
 3154 0356 0F       		.uleb128 0xf
 3155 0357 46030000 		.4byte	0x346
 3156 035b 10       		.uleb128 0x10
 3157 035c CD020000 		.4byte	.LASF50
 3158 0360 01       		.byte	0x1
 3159 0361 9201     		.2byte	0x192
 3160 0363 00000000 		.4byte	.LFB2
 3161 0367 80010000 		.4byte	.LFE2-.LFB2
 3162 036b 01       		.uleb128 0x1
 3163 036c 9C       		.byte	0x9c
 3164 036d 8D030000 		.4byte	0x38d
 3165 0371 12       		.uleb128 0x12
 3166 0372 657000   		.ascii	"ep\000"
 3167 0375 01       		.byte	0x1
 3168 0376 9401     		.2byte	0x194
 3169 0378 6B000000 		.4byte	0x6b
 3170 037c 02       		.uleb128 0x2
 3171 037d 91       		.byte	0x91
 3172 037e 77       		.sleb128 -9
 3173 037f 12       		.uleb128 0x12
 3174 0380 6900     		.ascii	"i\000"
 3175 0382 01       		.byte	0x1
 3176 0383 9501     		.2byte	0x195
 3177 0385 6B000000 		.4byte	0x6b
 3178 0389 02       		.uleb128 0x2
 3179 038a 91       		.byte	0x91
 3180 038b 76       		.sleb128 -10
 3181 038c 00       		.byte	0
 3182 038d 14       		.uleb128 0x14
 3183 038e D5000000 		.4byte	.LASF51
ARM GAS  C:\Users\VICTOR~1\AppData\Local\Temp\ccARlXCX.s 			page 79


 3184 0392 01       		.byte	0x1
 3185 0393 ED01     		.2byte	0x1ed
 3186 0395 00000000 		.4byte	.LFB3
 3187 0399 44030000 		.4byte	.LFE3-.LFB3
 3188 039d 01       		.uleb128 0x1
 3189 039e 9C       		.byte	0x9c
 3190 039f 28040000 		.4byte	0x428
 3191 03a3 11       		.uleb128 0x11
 3192 03a4 C5000000 		.4byte	.LASF53
 3193 03a8 01       		.byte	0x1
 3194 03a9 ED01     		.2byte	0x1ed
 3195 03ab 6B000000 		.4byte	0x6b
 3196 03af 02       		.uleb128 0x2
 3197 03b0 91       		.byte	0x91
 3198 03b1 5F       		.sleb128 -33
 3199 03b2 12       		.uleb128 0x12
 3200 03b3 657000   		.ascii	"ep\000"
 3201 03b6 01       		.byte	0x1
 3202 03b7 EF01     		.2byte	0x1ef
 3203 03b9 6B000000 		.4byte	0x6b
 3204 03bd 02       		.uleb128 0x2
 3205 03be 91       		.byte	0x91
 3206 03bf 77       		.sleb128 -9
 3207 03c0 13       		.uleb128 0x13
 3208 03c1 FA050000 		.4byte	.LASF54
 3209 03c5 01       		.byte	0x1
 3210 03c6 F001     		.2byte	0x1f0
 3211 03c8 6B000000 		.4byte	0x6b
 3212 03cc 02       		.uleb128 0x2
 3213 03cd 91       		.byte	0x91
 3214 03ce 76       		.sleb128 -10
 3215 03cf 12       		.uleb128 0x12
 3216 03d0 6900     		.ascii	"i\000"
 3217 03d2 01       		.byte	0x1
 3218 03d3 F101     		.2byte	0x1f1
 3219 03d5 6B000000 		.4byte	0x6b
 3220 03d9 02       		.uleb128 0x2
 3221 03da 91       		.byte	0x91
 3222 03db 75       		.sleb128 -11
 3223 03dc 13       		.uleb128 0x13
 3224 03dd CB010000 		.4byte	.LASF55
 3225 03e1 01       		.byte	0x1
 3226 03e2 F201     		.2byte	0x1f2
 3227 03e4 6B000000 		.4byte	0x6b
 3228 03e8 02       		.uleb128 0x2
 3229 03e9 91       		.byte	0x91
 3230 03ea 63       		.sleb128 -29
 3231 03eb 13       		.uleb128 0x13
 3232 03ec AC020000 		.4byte	.LASF56
 3233 03f0 01       		.byte	0x1
 3234 03f1 F301     		.2byte	0x1f3
 3235 03f3 28040000 		.4byte	0x428
 3236 03f7 02       		.uleb128 0x2
 3237 03f8 91       		.byte	0x91
 3238 03f9 64       		.sleb128 -28
 3239 03fa 13       		.uleb128 0x13
 3240 03fb A8030000 		.4byte	.LASF57
ARM GAS  C:\Users\VICTOR~1\AppData\Local\Temp\ccARlXCX.s 			page 80


 3241 03ff 01       		.byte	0x1
 3242 0400 F501     		.2byte	0x1f5
 3243 0402 76000000 		.4byte	0x76
 3244 0406 02       		.uleb128 0x2
 3245 0407 91       		.byte	0x91
 3246 0408 72       		.sleb128 -14
 3247 0409 13       		.uleb128 0x13
 3248 040a 9C030000 		.4byte	.LASF47
 3249 040e 01       		.byte	0x1
 3250 040f F801     		.2byte	0x1f8
 3251 0411 D7020000 		.4byte	0x2d7
 3252 0415 02       		.uleb128 0x2
 3253 0416 91       		.byte	0x91
 3254 0417 68       		.sleb128 -24
 3255 0418 12       		.uleb128 0x12
 3256 0419 70455000 		.ascii	"pEP\000"
 3257 041d 01       		.byte	0x1
 3258 041e F901     		.2byte	0x1f9
 3259 0420 33040000 		.4byte	0x433
 3260 0424 02       		.uleb128 0x2
 3261 0425 91       		.byte	0x91
 3262 0426 6C       		.sleb128 -20
 3263 0427 00       		.byte	0
 3264 0428 08       		.uleb128 0x8
 3265 0429 04       		.byte	0x4
 3266 042a 2E040000 		.4byte	0x42e
 3267 042e 0F       		.uleb128 0xf
 3268 042f 6B000000 		.4byte	0x6b
 3269 0433 08       		.uleb128 0x8
 3270 0434 04       		.byte	0x4
 3271 0435 39040000 		.4byte	0x439
 3272 0439 0F       		.uleb128 0xf
 3273 043a 89010000 		.4byte	0x189
 3274 043e 14       		.uleb128 0x14
 3275 043f 83030000 		.4byte	.LASF58
 3276 0443 01       		.byte	0x1
 3277 0444 E502     		.2byte	0x2e5
 3278 0446 00000000 		.4byte	.LFB4
 3279 044a 74020000 		.4byte	.LFE4-.LFB4
 3280 044e 01       		.uleb128 0x1
 3281 044f 9C       		.byte	0x9c
 3282 0450 BA040000 		.4byte	0x4ba
 3283 0454 12       		.uleb128 0x12
 3284 0455 657000   		.ascii	"ep\000"
 3285 0458 01       		.byte	0x1
 3286 0459 E702     		.2byte	0x2e7
 3287 045b 6B000000 		.4byte	0x6b
 3288 045f 02       		.uleb128 0x2
 3289 0460 91       		.byte	0x91
 3290 0461 6B       		.sleb128 -21
 3291 0462 13       		.uleb128 0x13
 3292 0463 FA050000 		.4byte	.LASF54
 3293 0467 01       		.byte	0x1
 3294 0468 E802     		.2byte	0x2e8
 3295 046a 6B000000 		.4byte	0x6b
 3296 046e 02       		.uleb128 0x2
 3297 046f 91       		.byte	0x91
ARM GAS  C:\Users\VICTOR~1\AppData\Local\Temp\ccARlXCX.s 			page 81


 3298 0470 6A       		.sleb128 -22
 3299 0471 12       		.uleb128 0x12
 3300 0472 6900     		.ascii	"i\000"
 3301 0474 01       		.byte	0x1
 3302 0475 E902     		.2byte	0x2e9
 3303 0477 6B000000 		.4byte	0x6b
 3304 047b 02       		.uleb128 0x2
 3305 047c 91       		.byte	0x91
 3306 047d 77       		.sleb128 -9
 3307 047e 13       		.uleb128 0x13
 3308 047f CB010000 		.4byte	.LASF55
 3309 0483 01       		.byte	0x1
 3310 0484 EA02     		.2byte	0x2ea
 3311 0486 6B000000 		.4byte	0x6b
 3312 048a 02       		.uleb128 0x2
 3313 048b 91       		.byte	0x91
 3314 048c 68       		.sleb128 -24
 3315 048d 12       		.uleb128 0x12
 3316 048e 726900   		.ascii	"ri\000"
 3317 0491 01       		.byte	0x1
 3318 0492 EB02     		.2byte	0x2eb
 3319 0494 6B000000 		.4byte	0x6b
 3320 0498 02       		.uleb128 0x2
 3321 0499 91       		.byte	0x91
 3322 049a 69       		.sleb128 -23
 3323 049b 13       		.uleb128 0x13
 3324 049c 9C030000 		.4byte	.LASF47
 3325 04a0 01       		.byte	0x1
 3326 04a1 ED02     		.2byte	0x2ed
 3327 04a3 D7020000 		.4byte	0x2d7
 3328 04a7 02       		.uleb128 0x2
 3329 04a8 91       		.byte	0x91
 3330 04a9 6C       		.sleb128 -20
 3331 04aa 12       		.uleb128 0x12
 3332 04ab 70455000 		.ascii	"pEP\000"
 3333 04af 01       		.byte	0x1
 3334 04b0 EE02     		.2byte	0x2ee
 3335 04b2 33040000 		.4byte	0x433
 3336 04b6 02       		.uleb128 0x2
 3337 04b7 91       		.byte	0x91
 3338 04b8 70       		.sleb128 -16
 3339 04b9 00       		.byte	0
 3340 04ba 15       		.uleb128 0x15
 3341 04bb A4010000 		.4byte	.LASF60
 3342 04bf 01       		.byte	0x1
 3343 04c0 6303     		.2byte	0x363
 3344 04c2 D7020000 		.4byte	0x2d7
 3345 04c6 00000000 		.4byte	.LFB5
 3346 04ca 54000000 		.4byte	.LFE5-.LFB5
 3347 04ce 01       		.uleb128 0x1
 3348 04cf 9C       		.byte	0x9c
 3349 04d0 F3040000 		.4byte	0x4f3
 3350 04d4 11       		.uleb128 0x11
 3351 04d5 4B000000 		.4byte	.LASF61
 3352 04d9 01       		.byte	0x1
 3353 04da 6303     		.2byte	0x363
 3354 04dc 6B000000 		.4byte	0x6b
ARM GAS  C:\Users\VICTOR~1\AppData\Local\Temp\ccARlXCX.s 			page 82


 3355 04e0 02       		.uleb128 0x2
 3356 04e1 91       		.byte	0x91
 3357 04e2 6F       		.sleb128 -17
 3358 04e3 13       		.uleb128 0x13
 3359 04e4 9C030000 		.4byte	.LASF47
 3360 04e8 01       		.byte	0x1
 3361 04e9 6703     		.2byte	0x367
 3362 04eb D7020000 		.4byte	0x2d7
 3363 04ef 02       		.uleb128 0x2
 3364 04f0 91       		.byte	0x91
 3365 04f1 74       		.sleb128 -12
 3366 04f2 00       		.byte	0
 3367 04f3 16       		.uleb128 0x16
 3368 04f4 7F020000 		.4byte	.LASF92
 3369 04f8 01       		.byte	0x1
 3370 04f9 8C03     		.2byte	0x38c
 3371 04fb D7020000 		.4byte	0x2d7
 3372 04ff 00000000 		.4byte	.LFB6
 3373 0503 24000000 		.4byte	.LFE6-.LFB6
 3374 0507 01       		.uleb128 0x1
 3375 0508 9C       		.byte	0x9c
 3376 0509 17       		.uleb128 0x17
 3377 050a 29000000 		.4byte	.LASF62
 3378 050e 01       		.byte	0x1
 3379 050f A303     		.2byte	0x3a3
 3380 0511 28040000 		.4byte	0x428
 3381 0515 00000000 		.4byte	.LFB7
 3382 0519 4C000000 		.4byte	.LFE7-.LFB7
 3383 051d 01       		.uleb128 0x1
 3384 051e 9C       		.byte	0x9c
 3385 051f 51050000 		.4byte	0x551
 3386 0523 13       		.uleb128 0x13
 3387 0524 9C030000 		.4byte	.LASF47
 3388 0528 01       		.byte	0x1
 3389 0529 A603     		.2byte	0x3a6
 3390 052b D7020000 		.4byte	0x2d7
 3391 052f 02       		.uleb128 0x2
 3392 0530 91       		.byte	0x91
 3393 0531 70       		.sleb128 -16
 3394 0532 13       		.uleb128 0x13
 3395 0533 B3020000 		.4byte	.LASF63
 3396 0537 01       		.byte	0x1
 3397 0538 A703     		.2byte	0x3a7
 3398 053a 28040000 		.4byte	0x428
 3399 053e 02       		.uleb128 0x2
 3400 053f 91       		.byte	0x91
 3401 0540 74       		.sleb128 -12
 3402 0541 13       		.uleb128 0x13
 3403 0542 5E040000 		.4byte	.LASF64
 3404 0546 01       		.byte	0x1
 3405 0547 A803     		.2byte	0x3a8
 3406 0549 6B000000 		.4byte	0x6b
 3407 054d 02       		.uleb128 0x2
 3408 054e 91       		.byte	0x91
 3409 054f 6F       		.sleb128 -17
 3410 0550 00       		.byte	0
 3411 0551 10       		.uleb128 0x10
ARM GAS  C:\Users\VICTOR~1\AppData\Local\Temp\ccARlXCX.s 			page 83


 3412 0552 AC040000 		.4byte	.LASF65
 3413 0556 01       		.byte	0x1
 3414 0557 CE03     		.2byte	0x3ce
 3415 0559 00000000 		.4byte	.LFB8
 3416 055d B8000000 		.4byte	.LFE8-.LFB8
 3417 0561 01       		.uleb128 0x1
 3418 0562 9C       		.byte	0x9c
 3419 0563 84050000 		.4byte	0x584
 3420 0567 18       		.uleb128 0x18
 3421 0568 657000   		.ascii	"ep\000"
 3422 056b 01       		.byte	0x1
 3423 056c CE03     		.2byte	0x3ce
 3424 056e 6B000000 		.4byte	0x6b
 3425 0572 02       		.uleb128 0x2
 3426 0573 91       		.byte	0x91
 3427 0574 6F       		.sleb128 -17
 3428 0575 12       		.uleb128 0x12
 3429 0576 726900   		.ascii	"ri\000"
 3430 0579 01       		.byte	0x1
 3431 057a D003     		.2byte	0x3d0
 3432 057c 6B000000 		.4byte	0x6b
 3433 0580 02       		.uleb128 0x2
 3434 0581 91       		.byte	0x91
 3435 0582 77       		.sleb128 -9
 3436 0583 00       		.byte	0
 3437 0584 17       		.uleb128 0x17
 3438 0585 42060000 		.4byte	.LASF66
 3439 0589 01       		.byte	0x1
 3440 058a FD03     		.2byte	0x3fd
 3441 058c 6B000000 		.4byte	0x6b
 3442 0590 00000000 		.4byte	.LFB9
 3443 0594 E0000000 		.4byte	.LFE9-.LFB9
 3444 0598 01       		.uleb128 0x1
 3445 0599 9C       		.byte	0x9c
 3446 059a CA050000 		.4byte	0x5ca
 3447 059e 12       		.uleb128 0x12
 3448 059f 657000   		.ascii	"ep\000"
 3449 05a2 01       		.byte	0x1
 3450 05a3 FF03     		.2byte	0x3ff
 3451 05a5 6B000000 		.4byte	0x6b
 3452 05a9 02       		.uleb128 0x2
 3453 05aa 91       		.byte	0x91
 3454 05ab 76       		.sleb128 -10
 3455 05ac 12       		.uleb128 0x12
 3456 05ad 726900   		.ascii	"ri\000"
 3457 05b0 01       		.byte	0x1
 3458 05b1 0004     		.2byte	0x400
 3459 05b3 6B000000 		.4byte	0x6b
 3460 05b7 02       		.uleb128 0x2
 3461 05b8 91       		.byte	0x91
 3462 05b9 75       		.sleb128 -11
 3463 05ba 13       		.uleb128 0x13
 3464 05bb 83050000 		.4byte	.LASF40
 3465 05bf 01       		.byte	0x1
 3466 05c0 0104     		.2byte	0x401
 3467 05c2 6B000000 		.4byte	0x6b
 3468 05c6 02       		.uleb128 0x2
ARM GAS  C:\Users\VICTOR~1\AppData\Local\Temp\ccARlXCX.s 			page 84


 3469 05c7 91       		.byte	0x91
 3470 05c8 77       		.sleb128 -9
 3471 05c9 00       		.byte	0
 3472 05ca 17       		.uleb128 0x17
 3473 05cb 4E050000 		.4byte	.LASF67
 3474 05cf 01       		.byte	0x1
 3475 05d0 3404     		.2byte	0x434
 3476 05d2 6B000000 		.4byte	0x6b
 3477 05d6 00000000 		.4byte	.LFB10
 3478 05da 44010000 		.4byte	.LFE10-.LFB10
 3479 05de 01       		.uleb128 0x1
 3480 05df 9C       		.byte	0x9c
 3481 05e0 10060000 		.4byte	0x610
 3482 05e4 12       		.uleb128 0x12
 3483 05e5 657000   		.ascii	"ep\000"
 3484 05e8 01       		.byte	0x1
 3485 05e9 3604     		.2byte	0x436
 3486 05eb 6B000000 		.4byte	0x6b
 3487 05ef 02       		.uleb128 0x2
 3488 05f0 91       		.byte	0x91
 3489 05f1 76       		.sleb128 -10
 3490 05f2 12       		.uleb128 0x12
 3491 05f3 726900   		.ascii	"ri\000"
 3492 05f6 01       		.byte	0x1
 3493 05f7 3704     		.2byte	0x437
 3494 05f9 6B000000 		.4byte	0x6b
 3495 05fd 02       		.uleb128 0x2
 3496 05fe 91       		.byte	0x91
 3497 05ff 75       		.sleb128 -11
 3498 0600 13       		.uleb128 0x13
 3499 0601 83050000 		.4byte	.LASF40
 3500 0605 01       		.byte	0x1
 3501 0606 3804     		.2byte	0x438
 3502 0608 6B000000 		.4byte	0x6b
 3503 060c 02       		.uleb128 0x2
 3504 060d 91       		.byte	0x91
 3505 060e 77       		.sleb128 -9
 3506 060f 00       		.byte	0
 3507 0610 17       		.uleb128 0x17
 3508 0611 D2010000 		.4byte	.LASF68
 3509 0615 01       		.byte	0x1
 3510 0616 7B04     		.2byte	0x47b
 3511 0618 6B000000 		.4byte	0x6b
 3512 061c 00000000 		.4byte	.LFB11
 3513 0620 78000000 		.4byte	.LFE11-.LFB11
 3514 0624 01       		.uleb128 0x1
 3515 0625 9C       		.byte	0x9c
 3516 0626 67060000 		.4byte	0x667
 3517 062a 13       		.uleb128 0x13
 3518 062b 83050000 		.4byte	.LASF40
 3519 062f 01       		.byte	0x1
 3520 0630 7D04     		.2byte	0x47d
 3521 0632 6B000000 		.4byte	0x6b
 3522 0636 02       		.uleb128 0x2
 3523 0637 91       		.byte	0x91
 3524 0638 77       		.sleb128 -9
 3525 0639 13       		.uleb128 0x13
ARM GAS  C:\Users\VICTOR~1\AppData\Local\Temp\ccARlXCX.s 			page 85


 3526 063a 8E040000 		.4byte	.LASF69
 3527 063e 01       		.byte	0x1
 3528 063f 7E04     		.2byte	0x47e
 3529 0641 6B000000 		.4byte	0x6b
 3530 0645 02       		.uleb128 0x2
 3531 0646 91       		.byte	0x91
 3532 0647 76       		.sleb128 -10
 3533 0648 13       		.uleb128 0x13
 3534 0649 9C030000 		.4byte	.LASF47
 3535 064d 01       		.byte	0x1
 3536 064e 7F04     		.2byte	0x47f
 3537 0650 D7020000 		.4byte	0x2d7
 3538 0654 02       		.uleb128 0x2
 3539 0655 91       		.byte	0x91
 3540 0656 70       		.sleb128 -16
 3541 0657 13       		.uleb128 0x13
 3542 0658 5E040000 		.4byte	.LASF64
 3543 065c 01       		.byte	0x1
 3544 065d 8004     		.2byte	0x480
 3545 065f 6B000000 		.4byte	0x6b
 3546 0663 02       		.uleb128 0x2
 3547 0664 91       		.byte	0x91
 3548 0665 6F       		.sleb128 -17
 3549 0666 00       		.byte	0
 3550 0667 19       		.uleb128 0x19
 3551 0668 1A000000 		.4byte	.LASF70
 3552 066c 03       		.byte	0x3
 3553 066d 4C02     		.2byte	0x24c
 3554 066f AC000000 		.4byte	0xac
 3555 0673 19       		.uleb128 0x19
 3556 0674 08060000 		.4byte	.LASF71
 3557 0678 03       		.byte	0x3
 3558 0679 4E02     		.2byte	0x24e
 3559 067b AC000000 		.4byte	0xac
 3560 067f 19       		.uleb128 0x19
 3561 0680 5A060000 		.4byte	.LASF72
 3562 0684 03       		.byte	0x3
 3563 0685 4F02     		.2byte	0x24f
 3564 0687 AC000000 		.4byte	0xac
 3565 068b 19       		.uleb128 0x19
 3566 068c F9010000 		.4byte	.LASF73
 3567 0690 03       		.byte	0x3
 3568 0691 5002     		.2byte	0x250
 3569 0693 AC000000 		.4byte	0xac
 3570 0697 1A       		.uleb128 0x1a
 3571 0698 8D010000 		.4byte	.LASF74
 3572 069c 04       		.byte	0x4
 3573 069d 59       		.byte	0x59
 3574 069e AC000000 		.4byte	0xac
 3575 06a2 1A       		.uleb128 0x1a
 3576 06a3 75010000 		.4byte	.LASF75
 3577 06a7 04       		.byte	0x4
 3578 06a8 5A       		.byte	0x5a
 3579 06a9 AC000000 		.4byte	0xac
 3580 06ad 0D       		.uleb128 0xd
 3581 06ae 6B000000 		.4byte	0x6b
 3582 06b2 BD060000 		.4byte	0x6bd
ARM GAS  C:\Users\VICTOR~1\AppData\Local\Temp\ccARlXCX.s 			page 86


 3583 06b6 0E       		.uleb128 0xe
 3584 06b7 B1000000 		.4byte	0xb1
 3585 06bb 11       		.byte	0x11
 3586 06bc 00       		.byte	0
 3587 06bd 1A       		.uleb128 0x1a
 3588 06be 10010000 		.4byte	.LASF76
 3589 06c2 05       		.byte	0x5
 3590 06c3 1C       		.byte	0x1c
 3591 06c4 C8060000 		.4byte	0x6c8
 3592 06c8 0F       		.uleb128 0xf
 3593 06c9 AD060000 		.4byte	0x6ad
 3594 06cd 0D       		.uleb128 0xd
 3595 06ce 2A020000 		.4byte	0x22a
 3596 06d2 DD060000 		.4byte	0x6dd
 3597 06d6 0E       		.uleb128 0xe
 3598 06d7 B1000000 		.4byte	0xb1
 3599 06db 00       		.byte	0
 3600 06dc 00       		.byte	0
 3601 06dd 1A       		.uleb128 0x1a
 3602 06de B7000000 		.4byte	.LASF77
 3603 06e2 05       		.byte	0x5
 3604 06e3 22       		.byte	0x22
 3605 06e4 E8060000 		.4byte	0x6e8
 3606 06e8 0F       		.uleb128 0xf
 3607 06e9 CD060000 		.4byte	0x6cd
 3608 06ed 0D       		.uleb128 0xd
 3609 06ee 6B000000 		.4byte	0x6b
 3610 06f2 FD060000 		.4byte	0x6fd
 3611 06f6 0E       		.uleb128 0xe
 3612 06f7 B1000000 		.4byte	0xb1
 3613 06fb 9E       		.byte	0x9e
 3614 06fc 00       		.byte	0
 3615 06fd 1A       		.uleb128 0x1a
 3616 06fe 73040000 		.4byte	.LASF78
 3617 0702 05       		.byte	0x5
 3618 0703 24       		.byte	0x24
 3619 0704 08070000 		.4byte	0x708
 3620 0708 0F       		.uleb128 0xf
 3621 0709 ED060000 		.4byte	0x6ed
 3622 070d 1A       		.uleb128 0x1a
 3623 070e EF000000 		.4byte	.LASF79
 3624 0712 05       		.byte	0x5
 3625 0713 27       		.byte	0x27
 3626 0714 18070000 		.4byte	0x718
 3627 0718 0F       		.uleb128 0xf
 3628 0719 AD060000 		.4byte	0x6ad
 3629 071d 0D       		.uleb128 0xd
 3630 071e 6B000000 		.4byte	0x6b
 3631 0722 2D070000 		.4byte	0x72d
 3632 0726 0E       		.uleb128 0xe
 3633 0727 B1000000 		.4byte	0xb1
 3634 072b 21       		.byte	0x21
 3635 072c 00       		.byte	0
 3636 072d 1A       		.uleb128 0x1a
 3637 072e 47010000 		.4byte	.LASF80
 3638 0732 05       		.byte	0x5
 3639 0733 2A       		.byte	0x2a
ARM GAS  C:\Users\VICTOR~1\AppData\Local\Temp\ccARlXCX.s 			page 87


 3640 0734 1D070000 		.4byte	0x71d
 3641 0738 1A       		.uleb128 0x1a
 3642 0739 D6050000 		.4byte	.LASF81
 3643 073d 05       		.byte	0x5
 3644 073e 2D       		.byte	0x2d
 3645 073f AC000000 		.4byte	0xac
 3646 0743 1A       		.uleb128 0x1a
 3647 0744 D9040000 		.4byte	.LASF82
 3648 0748 05       		.byte	0x5
 3649 0749 2E       		.byte	0x2e
 3650 074a 4E070000 		.4byte	0x74e
 3651 074e 05       		.uleb128 0x5
 3652 074f C2020000 		.4byte	0x2c2
 3653 0753 1A       		.uleb128 0x1a
 3654 0754 24060000 		.4byte	.LASF83
 3655 0758 05       		.byte	0x5
 3656 0759 2F       		.byte	0x2f
 3657 075a 5E070000 		.4byte	0x75e
 3658 075e 05       		.uleb128 0x5
 3659 075f C2020000 		.4byte	0x2c2
 3660 0763 1A       		.uleb128 0x1a
 3661 0764 4E030000 		.4byte	.LASF84
 3662 0768 05       		.byte	0x5
 3663 0769 30       		.byte	0x30
 3664 076a AC000000 		.4byte	0xac
 3665 076e 1A       		.uleb128 0x1a
 3666 076f 2B050000 		.4byte	.LASF85
 3667 0773 05       		.byte	0x5
 3668 0774 31       		.byte	0x31
 3669 0775 79070000 		.4byte	0x779
 3670 0779 05       		.uleb128 0x5
 3671 077a C2020000 		.4byte	0x2c2
 3672 077e 1A       		.uleb128 0x1a
 3673 077f 35040000 		.4byte	.LASF86
 3674 0783 05       		.byte	0x5
 3675 0784 32       		.byte	0x32
 3676 0785 28040000 		.4byte	0x428
 3677 0789 0D       		.uleb128 0xd
 3678 078a 2D010000 		.4byte	0x12d
 3679 078e 99070000 		.4byte	0x799
 3680 0792 0E       		.uleb128 0xe
 3681 0793 B1000000 		.4byte	0xb1
 3682 0797 08       		.byte	0x8
 3683 0798 00       		.byte	0
 3684 0799 1A       		.uleb128 0x1a
 3685 079a E4000000 		.4byte	.LASF87
 3686 079e 05       		.byte	0x5
 3687 079f 34       		.byte	0x34
 3688 07a0 A4070000 		.4byte	0x7a4
 3689 07a4 05       		.uleb128 0x5
 3690 07a5 89070000 		.4byte	0x789
 3691 07a9 1A       		.uleb128 0x1a
 3692 07aa 4C040000 		.4byte	.LASF88
 3693 07ae 05       		.byte	0x5
 3694 07af 35       		.byte	0x35
 3695 07b0 B4070000 		.4byte	0x7b4
 3696 07b4 05       		.uleb128 0x5
ARM GAS  C:\Users\VICTOR~1\AppData\Local\Temp\ccARlXCX.s 			page 88


 3697 07b5 F9010000 		.4byte	0x1f9
 3698 07b9 00       		.byte	0
 3699              		.section	.debug_abbrev,"",%progbits
 3700              	.Ldebug_abbrev0:
 3701 0000 01       		.uleb128 0x1
 3702 0001 11       		.uleb128 0x11
 3703 0002 01       		.byte	0x1
 3704 0003 25       		.uleb128 0x25
 3705 0004 0E       		.uleb128 0xe
 3706 0005 13       		.uleb128 0x13
 3707 0006 0B       		.uleb128 0xb
 3708 0007 03       		.uleb128 0x3
 3709 0008 0E       		.uleb128 0xe
 3710 0009 1B       		.uleb128 0x1b
 3711 000a 0E       		.uleb128 0xe
 3712 000b 55       		.uleb128 0x55
 3713 000c 17       		.uleb128 0x17
 3714 000d 11       		.uleb128 0x11
 3715 000e 01       		.uleb128 0x1
 3716 000f 10       		.uleb128 0x10
 3717 0010 17       		.uleb128 0x17
 3718 0011 00       		.byte	0
 3719 0012 00       		.byte	0
 3720 0013 02       		.uleb128 0x2
 3721 0014 24       		.uleb128 0x24
 3722 0015 00       		.byte	0
 3723 0016 0B       		.uleb128 0xb
 3724 0017 0B       		.uleb128 0xb
 3725 0018 3E       		.uleb128 0x3e
 3726 0019 0B       		.uleb128 0xb
 3727 001a 03       		.uleb128 0x3
 3728 001b 0E       		.uleb128 0xe
 3729 001c 00       		.byte	0
 3730 001d 00       		.byte	0
 3731 001e 03       		.uleb128 0x3
 3732 001f 24       		.uleb128 0x24
 3733 0020 00       		.byte	0
 3734 0021 0B       		.uleb128 0xb
 3735 0022 0B       		.uleb128 0xb
 3736 0023 3E       		.uleb128 0x3e
 3737 0024 0B       		.uleb128 0xb
 3738 0025 03       		.uleb128 0x3
 3739 0026 08       		.uleb128 0x8
 3740 0027 00       		.byte	0
 3741 0028 00       		.byte	0
 3742 0029 04       		.uleb128 0x4
 3743 002a 16       		.uleb128 0x16
 3744 002b 00       		.byte	0
 3745 002c 03       		.uleb128 0x3
 3746 002d 0E       		.uleb128 0xe
 3747 002e 3A       		.uleb128 0x3a
 3748 002f 0B       		.uleb128 0xb
 3749 0030 3B       		.uleb128 0x3b
 3750 0031 0B       		.uleb128 0xb
 3751 0032 49       		.uleb128 0x49
 3752 0033 13       		.uleb128 0x13
 3753 0034 00       		.byte	0
ARM GAS  C:\Users\VICTOR~1\AppData\Local\Temp\ccARlXCX.s 			page 89


 3754 0035 00       		.byte	0
 3755 0036 05       		.uleb128 0x5
 3756 0037 35       		.uleb128 0x35
 3757 0038 00       		.byte	0
 3758 0039 49       		.uleb128 0x49
 3759 003a 13       		.uleb128 0x13
 3760 003b 00       		.byte	0
 3761 003c 00       		.byte	0
 3762 003d 06       		.uleb128 0x6
 3763 003e 13       		.uleb128 0x13
 3764 003f 01       		.byte	0x1
 3765 0040 0B       		.uleb128 0xb
 3766 0041 0B       		.uleb128 0xb
 3767 0042 3A       		.uleb128 0x3a
 3768 0043 0B       		.uleb128 0xb
 3769 0044 3B       		.uleb128 0x3b
 3770 0045 0B       		.uleb128 0xb
 3771 0046 01       		.uleb128 0x1
 3772 0047 13       		.uleb128 0x13
 3773 0048 00       		.byte	0
 3774 0049 00       		.byte	0
 3775 004a 07       		.uleb128 0x7
 3776 004b 0D       		.uleb128 0xd
 3777 004c 00       		.byte	0
 3778 004d 03       		.uleb128 0x3
 3779 004e 0E       		.uleb128 0xe
 3780 004f 3A       		.uleb128 0x3a
 3781 0050 0B       		.uleb128 0xb
 3782 0051 3B       		.uleb128 0x3b
 3783 0052 0B       		.uleb128 0xb
 3784 0053 49       		.uleb128 0x49
 3785 0054 13       		.uleb128 0x13
 3786 0055 38       		.uleb128 0x38
 3787 0056 0B       		.uleb128 0xb
 3788 0057 00       		.byte	0
 3789 0058 00       		.byte	0
 3790 0059 08       		.uleb128 0x8
 3791 005a 0F       		.uleb128 0xf
 3792 005b 00       		.byte	0
 3793 005c 0B       		.uleb128 0xb
 3794 005d 0B       		.uleb128 0xb
 3795 005e 49       		.uleb128 0x49
 3796 005f 13       		.uleb128 0x13
 3797 0060 00       		.byte	0
 3798 0061 00       		.byte	0
 3799 0062 09       		.uleb128 0x9
 3800 0063 0D       		.uleb128 0xd
 3801 0064 00       		.byte	0
 3802 0065 03       		.uleb128 0x3
 3803 0066 08       		.uleb128 0x8
 3804 0067 3A       		.uleb128 0x3a
 3805 0068 0B       		.uleb128 0xb
 3806 0069 3B       		.uleb128 0x3b
 3807 006a 0B       		.uleb128 0xb
 3808 006b 49       		.uleb128 0x49
 3809 006c 13       		.uleb128 0x13
 3810 006d 38       		.uleb128 0x38
ARM GAS  C:\Users\VICTOR~1\AppData\Local\Temp\ccARlXCX.s 			page 90


 3811 006e 0B       		.uleb128 0xb
 3812 006f 00       		.byte	0
 3813 0070 00       		.byte	0
 3814 0071 0A       		.uleb128 0xa
 3815 0072 26       		.uleb128 0x26
 3816 0073 00       		.byte	0
 3817 0074 00       		.byte	0
 3818 0075 00       		.byte	0
 3819 0076 0B       		.uleb128 0xb
 3820 0077 2E       		.uleb128 0x2e
 3821 0078 01       		.byte	0x1
 3822 0079 3F       		.uleb128 0x3f
 3823 007a 19       		.uleb128 0x19
 3824 007b 03       		.uleb128 0x3
 3825 007c 0E       		.uleb128 0xe
 3826 007d 3A       		.uleb128 0x3a
 3827 007e 0B       		.uleb128 0xb
 3828 007f 3B       		.uleb128 0x3b
 3829 0080 0B       		.uleb128 0xb
 3830 0081 27       		.uleb128 0x27
 3831 0082 19       		.uleb128 0x19
 3832 0083 49       		.uleb128 0x49
 3833 0084 13       		.uleb128 0x13
 3834 0085 11       		.uleb128 0x11
 3835 0086 01       		.uleb128 0x1
 3836 0087 12       		.uleb128 0x12
 3837 0088 06       		.uleb128 0x6
 3838 0089 40       		.uleb128 0x40
 3839 008a 18       		.uleb128 0x18
 3840 008b 9642     		.uleb128 0x2116
 3841 008d 19       		.uleb128 0x19
 3842 008e 01       		.uleb128 0x1
 3843 008f 13       		.uleb128 0x13
 3844 0090 00       		.byte	0
 3845 0091 00       		.byte	0
 3846 0092 0C       		.uleb128 0xc
 3847 0093 34       		.uleb128 0x34
 3848 0094 00       		.byte	0
 3849 0095 03       		.uleb128 0x3
 3850 0096 0E       		.uleb128 0xe
 3851 0097 3A       		.uleb128 0x3a
 3852 0098 0B       		.uleb128 0xb
 3853 0099 3B       		.uleb128 0x3b
 3854 009a 0B       		.uleb128 0xb
 3855 009b 49       		.uleb128 0x49
 3856 009c 13       		.uleb128 0x13
 3857 009d 02       		.uleb128 0x2
 3858 009e 18       		.uleb128 0x18
 3859 009f 00       		.byte	0
 3860 00a0 00       		.byte	0
 3861 00a1 0D       		.uleb128 0xd
 3862 00a2 01       		.uleb128 0x1
 3863 00a3 01       		.byte	0x1
 3864 00a4 49       		.uleb128 0x49
 3865 00a5 13       		.uleb128 0x13
 3866 00a6 01       		.uleb128 0x1
 3867 00a7 13       		.uleb128 0x13
ARM GAS  C:\Users\VICTOR~1\AppData\Local\Temp\ccARlXCX.s 			page 91


 3868 00a8 00       		.byte	0
 3869 00a9 00       		.byte	0
 3870 00aa 0E       		.uleb128 0xe
 3871 00ab 21       		.uleb128 0x21
 3872 00ac 00       		.byte	0
 3873 00ad 49       		.uleb128 0x49
 3874 00ae 13       		.uleb128 0x13
 3875 00af 2F       		.uleb128 0x2f
 3876 00b0 0B       		.uleb128 0xb
 3877 00b1 00       		.byte	0
 3878 00b2 00       		.byte	0
 3879 00b3 0F       		.uleb128 0xf
 3880 00b4 26       		.uleb128 0x26
 3881 00b5 00       		.byte	0
 3882 00b6 49       		.uleb128 0x49
 3883 00b7 13       		.uleb128 0x13
 3884 00b8 00       		.byte	0
 3885 00b9 00       		.byte	0
 3886 00ba 10       		.uleb128 0x10
 3887 00bb 2E       		.uleb128 0x2e
 3888 00bc 01       		.byte	0x1
 3889 00bd 3F       		.uleb128 0x3f
 3890 00be 19       		.uleb128 0x19
 3891 00bf 03       		.uleb128 0x3
 3892 00c0 0E       		.uleb128 0xe
 3893 00c1 3A       		.uleb128 0x3a
 3894 00c2 0B       		.uleb128 0xb
 3895 00c3 3B       		.uleb128 0x3b
 3896 00c4 05       		.uleb128 0x5
 3897 00c5 27       		.uleb128 0x27
 3898 00c6 19       		.uleb128 0x19
 3899 00c7 11       		.uleb128 0x11
 3900 00c8 01       		.uleb128 0x1
 3901 00c9 12       		.uleb128 0x12
 3902 00ca 06       		.uleb128 0x6
 3903 00cb 40       		.uleb128 0x40
 3904 00cc 18       		.uleb128 0x18
 3905 00cd 9742     		.uleb128 0x2117
 3906 00cf 19       		.uleb128 0x19
 3907 00d0 01       		.uleb128 0x1
 3908 00d1 13       		.uleb128 0x13
 3909 00d2 00       		.byte	0
 3910 00d3 00       		.byte	0
 3911 00d4 11       		.uleb128 0x11
 3912 00d5 05       		.uleb128 0x5
 3913 00d6 00       		.byte	0
 3914 00d7 03       		.uleb128 0x3
 3915 00d8 0E       		.uleb128 0xe
 3916 00d9 3A       		.uleb128 0x3a
 3917 00da 0B       		.uleb128 0xb
 3918 00db 3B       		.uleb128 0x3b
 3919 00dc 05       		.uleb128 0x5
 3920 00dd 49       		.uleb128 0x49
 3921 00de 13       		.uleb128 0x13
 3922 00df 02       		.uleb128 0x2
 3923 00e0 18       		.uleb128 0x18
 3924 00e1 00       		.byte	0
ARM GAS  C:\Users\VICTOR~1\AppData\Local\Temp\ccARlXCX.s 			page 92


 3925 00e2 00       		.byte	0
 3926 00e3 12       		.uleb128 0x12
 3927 00e4 34       		.uleb128 0x34
 3928 00e5 00       		.byte	0
 3929 00e6 03       		.uleb128 0x3
 3930 00e7 08       		.uleb128 0x8
 3931 00e8 3A       		.uleb128 0x3a
 3932 00e9 0B       		.uleb128 0xb
 3933 00ea 3B       		.uleb128 0x3b
 3934 00eb 05       		.uleb128 0x5
 3935 00ec 49       		.uleb128 0x49
 3936 00ed 13       		.uleb128 0x13
 3937 00ee 02       		.uleb128 0x2
 3938 00ef 18       		.uleb128 0x18
 3939 00f0 00       		.byte	0
 3940 00f1 00       		.byte	0
 3941 00f2 13       		.uleb128 0x13
 3942 00f3 34       		.uleb128 0x34
 3943 00f4 00       		.byte	0
 3944 00f5 03       		.uleb128 0x3
 3945 00f6 0E       		.uleb128 0xe
 3946 00f7 3A       		.uleb128 0x3a
 3947 00f8 0B       		.uleb128 0xb
 3948 00f9 3B       		.uleb128 0x3b
 3949 00fa 05       		.uleb128 0x5
 3950 00fb 49       		.uleb128 0x49
 3951 00fc 13       		.uleb128 0x13
 3952 00fd 02       		.uleb128 0x2
 3953 00fe 18       		.uleb128 0x18
 3954 00ff 00       		.byte	0
 3955 0100 00       		.byte	0
 3956 0101 14       		.uleb128 0x14
 3957 0102 2E       		.uleb128 0x2e
 3958 0103 01       		.byte	0x1
 3959 0104 3F       		.uleb128 0x3f
 3960 0105 19       		.uleb128 0x19
 3961 0106 03       		.uleb128 0x3
 3962 0107 0E       		.uleb128 0xe
 3963 0108 3A       		.uleb128 0x3a
 3964 0109 0B       		.uleb128 0xb
 3965 010a 3B       		.uleb128 0x3b
 3966 010b 05       		.uleb128 0x5
 3967 010c 27       		.uleb128 0x27
 3968 010d 19       		.uleb128 0x19
 3969 010e 11       		.uleb128 0x11
 3970 010f 01       		.uleb128 0x1
 3971 0110 12       		.uleb128 0x12
 3972 0111 06       		.uleb128 0x6
 3973 0112 40       		.uleb128 0x40
 3974 0113 18       		.uleb128 0x18
 3975 0114 9642     		.uleb128 0x2116
 3976 0116 19       		.uleb128 0x19
 3977 0117 01       		.uleb128 0x1
 3978 0118 13       		.uleb128 0x13
 3979 0119 00       		.byte	0
 3980 011a 00       		.byte	0
 3981 011b 15       		.uleb128 0x15
ARM GAS  C:\Users\VICTOR~1\AppData\Local\Temp\ccARlXCX.s 			page 93


 3982 011c 2E       		.uleb128 0x2e
 3983 011d 01       		.byte	0x1
 3984 011e 3F       		.uleb128 0x3f
 3985 011f 19       		.uleb128 0x19
 3986 0120 03       		.uleb128 0x3
 3987 0121 0E       		.uleb128 0xe
 3988 0122 3A       		.uleb128 0x3a
 3989 0123 0B       		.uleb128 0xb
 3990 0124 3B       		.uleb128 0x3b
 3991 0125 05       		.uleb128 0x5
 3992 0126 27       		.uleb128 0x27
 3993 0127 19       		.uleb128 0x19
 3994 0128 49       		.uleb128 0x49
 3995 0129 13       		.uleb128 0x13
 3996 012a 11       		.uleb128 0x11
 3997 012b 01       		.uleb128 0x1
 3998 012c 12       		.uleb128 0x12
 3999 012d 06       		.uleb128 0x6
 4000 012e 40       		.uleb128 0x40
 4001 012f 18       		.uleb128 0x18
 4002 0130 9742     		.uleb128 0x2117
 4003 0132 19       		.uleb128 0x19
 4004 0133 01       		.uleb128 0x1
 4005 0134 13       		.uleb128 0x13
 4006 0135 00       		.byte	0
 4007 0136 00       		.byte	0
 4008 0137 16       		.uleb128 0x16
 4009 0138 2E       		.uleb128 0x2e
 4010 0139 00       		.byte	0
 4011 013a 3F       		.uleb128 0x3f
 4012 013b 19       		.uleb128 0x19
 4013 013c 03       		.uleb128 0x3
 4014 013d 0E       		.uleb128 0xe
 4015 013e 3A       		.uleb128 0x3a
 4016 013f 0B       		.uleb128 0xb
 4017 0140 3B       		.uleb128 0x3b
 4018 0141 05       		.uleb128 0x5
 4019 0142 27       		.uleb128 0x27
 4020 0143 19       		.uleb128 0x19
 4021 0144 49       		.uleb128 0x49
 4022 0145 13       		.uleb128 0x13
 4023 0146 11       		.uleb128 0x11
 4024 0147 01       		.uleb128 0x1
 4025 0148 12       		.uleb128 0x12
 4026 0149 06       		.uleb128 0x6
 4027 014a 40       		.uleb128 0x40
 4028 014b 18       		.uleb128 0x18
 4029 014c 9742     		.uleb128 0x2117
 4030 014e 19       		.uleb128 0x19
 4031 014f 00       		.byte	0
 4032 0150 00       		.byte	0
 4033 0151 17       		.uleb128 0x17
 4034 0152 2E       		.uleb128 0x2e
 4035 0153 01       		.byte	0x1
 4036 0154 3F       		.uleb128 0x3f
 4037 0155 19       		.uleb128 0x19
 4038 0156 03       		.uleb128 0x3
ARM GAS  C:\Users\VICTOR~1\AppData\Local\Temp\ccARlXCX.s 			page 94


 4039 0157 0E       		.uleb128 0xe
 4040 0158 3A       		.uleb128 0x3a
 4041 0159 0B       		.uleb128 0xb
 4042 015a 3B       		.uleb128 0x3b
 4043 015b 05       		.uleb128 0x5
 4044 015c 27       		.uleb128 0x27
 4045 015d 19       		.uleb128 0x19
 4046 015e 49       		.uleb128 0x49
 4047 015f 13       		.uleb128 0x13
 4048 0160 11       		.uleb128 0x11
 4049 0161 01       		.uleb128 0x1
 4050 0162 12       		.uleb128 0x12
 4051 0163 06       		.uleb128 0x6
 4052 0164 40       		.uleb128 0x40
 4053 0165 18       		.uleb128 0x18
 4054 0166 9642     		.uleb128 0x2116
 4055 0168 19       		.uleb128 0x19
 4056 0169 01       		.uleb128 0x1
 4057 016a 13       		.uleb128 0x13
 4058 016b 00       		.byte	0
 4059 016c 00       		.byte	0
 4060 016d 18       		.uleb128 0x18
 4061 016e 05       		.uleb128 0x5
 4062 016f 00       		.byte	0
 4063 0170 03       		.uleb128 0x3
 4064 0171 08       		.uleb128 0x8
 4065 0172 3A       		.uleb128 0x3a
 4066 0173 0B       		.uleb128 0xb
 4067 0174 3B       		.uleb128 0x3b
 4068 0175 05       		.uleb128 0x5
 4069 0176 49       		.uleb128 0x49
 4070 0177 13       		.uleb128 0x13
 4071 0178 02       		.uleb128 0x2
 4072 0179 18       		.uleb128 0x18
 4073 017a 00       		.byte	0
 4074 017b 00       		.byte	0
 4075 017c 19       		.uleb128 0x19
 4076 017d 34       		.uleb128 0x34
 4077 017e 00       		.byte	0
 4078 017f 03       		.uleb128 0x3
 4079 0180 0E       		.uleb128 0xe
 4080 0181 3A       		.uleb128 0x3a
 4081 0182 0B       		.uleb128 0xb
 4082 0183 3B       		.uleb128 0x3b
 4083 0184 05       		.uleb128 0x5
 4084 0185 49       		.uleb128 0x49
 4085 0186 13       		.uleb128 0x13
 4086 0187 3F       		.uleb128 0x3f
 4087 0188 19       		.uleb128 0x19
 4088 0189 3C       		.uleb128 0x3c
 4089 018a 19       		.uleb128 0x19
 4090 018b 00       		.byte	0
 4091 018c 00       		.byte	0
 4092 018d 1A       		.uleb128 0x1a
 4093 018e 34       		.uleb128 0x34
 4094 018f 00       		.byte	0
 4095 0190 03       		.uleb128 0x3
ARM GAS  C:\Users\VICTOR~1\AppData\Local\Temp\ccARlXCX.s 			page 95


 4096 0191 0E       		.uleb128 0xe
 4097 0192 3A       		.uleb128 0x3a
 4098 0193 0B       		.uleb128 0xb
 4099 0194 3B       		.uleb128 0x3b
 4100 0195 0B       		.uleb128 0xb
 4101 0196 49       		.uleb128 0x49
 4102 0197 13       		.uleb128 0x13
 4103 0198 3F       		.uleb128 0x3f
 4104 0199 19       		.uleb128 0x19
 4105 019a 3C       		.uleb128 0x3c
 4106 019b 19       		.uleb128 0x19
 4107 019c 00       		.byte	0
 4108 019d 00       		.byte	0
 4109 019e 00       		.byte	0
 4110              		.section	.debug_aranges,"",%progbits
 4111 0000 74000000 		.4byte	0x74
 4112 0004 0200     		.2byte	0x2
 4113 0006 00000000 		.4byte	.Ldebug_info0
 4114 000a 04       		.byte	0x4
 4115 000b 00       		.byte	0
 4116 000c 0000     		.2byte	0
 4117 000e 0000     		.2byte	0
 4118 0010 00000000 		.4byte	.LFB0
 4119 0014 A0040000 		.4byte	.LFE0-.LFB0
 4120 0018 00000000 		.4byte	.LFB1
 4121 001c 90000000 		.4byte	.LFE1-.LFB1
 4122 0020 00000000 		.4byte	.LFB2
 4123 0024 80010000 		.4byte	.LFE2-.LFB2
 4124 0028 00000000 		.4byte	.LFB3
 4125 002c 44030000 		.4byte	.LFE3-.LFB3
 4126 0030 00000000 		.4byte	.LFB4
 4127 0034 74020000 		.4byte	.LFE4-.LFB4
 4128 0038 00000000 		.4byte	.LFB5
 4129 003c 54000000 		.4byte	.LFE5-.LFB5
 4130 0040 00000000 		.4byte	.LFB6
 4131 0044 24000000 		.4byte	.LFE6-.LFB6
 4132 0048 00000000 		.4byte	.LFB7
 4133 004c 4C000000 		.4byte	.LFE7-.LFB7
 4134 0050 00000000 		.4byte	.LFB8
 4135 0054 B8000000 		.4byte	.LFE8-.LFB8
 4136 0058 00000000 		.4byte	.LFB9
 4137 005c E0000000 		.4byte	.LFE9-.LFB9
 4138 0060 00000000 		.4byte	.LFB10
 4139 0064 44010000 		.4byte	.LFE10-.LFB10
 4140 0068 00000000 		.4byte	.LFB11
 4141 006c 78000000 		.4byte	.LFE11-.LFB11
 4142 0070 00000000 		.4byte	0
 4143 0074 00000000 		.4byte	0
 4144              		.section	.debug_ranges,"",%progbits
 4145              	.Ldebug_ranges0:
 4146 0000 00000000 		.4byte	.LFB0
 4147 0004 A0040000 		.4byte	.LFE0
 4148 0008 00000000 		.4byte	.LFB1
 4149 000c 90000000 		.4byte	.LFE1
 4150 0010 00000000 		.4byte	.LFB2
 4151 0014 80010000 		.4byte	.LFE2
 4152 0018 00000000 		.4byte	.LFB3
ARM GAS  C:\Users\VICTOR~1\AppData\Local\Temp\ccARlXCX.s 			page 96


 4153 001c 44030000 		.4byte	.LFE3
 4154 0020 00000000 		.4byte	.LFB4
 4155 0024 74020000 		.4byte	.LFE4
 4156 0028 00000000 		.4byte	.LFB5
 4157 002c 54000000 		.4byte	.LFE5
 4158 0030 00000000 		.4byte	.LFB6
 4159 0034 24000000 		.4byte	.LFE6
 4160 0038 00000000 		.4byte	.LFB7
 4161 003c 4C000000 		.4byte	.LFE7
 4162 0040 00000000 		.4byte	.LFB8
 4163 0044 B8000000 		.4byte	.LFE8
 4164 0048 00000000 		.4byte	.LFB9
 4165 004c E0000000 		.4byte	.LFE9
 4166 0050 00000000 		.4byte	.LFB10
 4167 0054 44010000 		.4byte	.LFE10
 4168 0058 00000000 		.4byte	.LFB11
 4169 005c 78000000 		.4byte	.LFE11
 4170 0060 00000000 		.4byte	0
 4171 0064 00000000 		.4byte	0
 4172              		.section	.debug_line,"",%progbits
 4173              	.Ldebug_line0:
 4174 0000 FE030000 		.section	.debug_str,"MS",%progbits,1
 4174      02007900 
 4174      00000201 
 4174      FB0E0D00 
 4174      01010101 
 4175              	.LASF36:
 4176 0000 70537461 		.ascii	"pStatusBlock\000"
 4176      74757342 
 4176      6C6F636B 
 4176      00
 4177              	.LASF34:
 4178 000d 636F756E 		.ascii	"count\000"
 4178      7400
 4179              	.LASF10:
 4180 0013 75696E74 		.ascii	"uint16\000"
 4180      313600
 4181              	.LASF70:
 4182 001a 55534255 		.ascii	"USBUART_device\000"
 4182      4152545F 
 4182      64657669 
 4182      636500
 4183              	.LASF62:
 4184 0029 55534255 		.ascii	"USBUART_GetInterfaceClassTablePtr\000"
 4184      4152545F 
 4184      47657449 
 4184      6E746572 
 4184      66616365 
 4185              	.LASF61:
 4186 004b 636F6E66 		.ascii	"confIndex\000"
 4186      496E6465 
 4186      7800
 4187              	.LASF7:
 4188 0055 6C6F6E67 		.ascii	"long long unsigned int\000"
 4188      206C6F6E 
 4188      6720756E 
 4188      7369676E 
ARM GAS  C:\Users\VICTOR~1\AppData\Local\Temp\ccARlXCX.s 			page 97


 4188      65642069 
 4189              	.LASF21:
 4190 006c 61646472 		.ascii	"addr\000"
 4190      00
 4191              	.LASF41:
 4192 0071 696E7465 		.ascii	"interfaceNumber\000"
 4192      72666163 
 4192      654E756D 
 4192      62657200 
 4193              	.LASF33:
 4194 0081 545F5553 		.ascii	"T_USBUART_XFER_STATUS_BLOCK\000"
 4194      42554152 
 4194      545F5846 
 4194      45525F53 
 4194      54415455 
 4195              	.LASF6:
 4196 009d 6C6F6E67 		.ascii	"long long int\000"
 4196      206C6F6E 
 4196      6720696E 
 4196      7400
 4197              	.LASF0:
 4198 00ab 7369676E 		.ascii	"signed char\000"
 4198      65642063 
 4198      68617200 
 4199              	.LASF77:
 4200 00b7 55534255 		.ascii	"USBUART_TABLE\000"
 4200      4152545F 
 4200      5441424C 
 4200      4500
 4201              	.LASF53:
 4202 00c5 636C6561 		.ascii	"clearAltSetting\000"
 4202      72416C74 
 4202      53657474 
 4202      696E6700 
 4203              	.LASF51:
 4204 00d5 55534255 		.ascii	"USBUART_Config\000"
 4204      4152545F 
 4204      436F6E66 
 4204      696700
 4205              	.LASF87:
 4206 00e4 55534255 		.ascii	"USBUART_EP\000"
 4206      4152545F 
 4206      455000
 4207              	.LASF79:
 4208 00ef 55534255 		.ascii	"USBUART_MSOS_DESCRIPTOR\000"
 4208      4152545F 
 4208      4D534F53 
 4208      5F444553 
 4208      43524950 
 4209              	.LASF4:
 4210 0107 6C6F6E67 		.ascii	"long int\000"
 4210      20696E74 
 4210      00
 4211              	.LASF76:
 4212 0110 55534255 		.ascii	"USBUART_DEVICE0_DESCR\000"
 4212      4152545F 
 4212      44455649 
ARM GAS  C:\Users\VICTOR~1\AppData\Local\Temp\ccARlXCX.s 			page 98


 4212      4345305F 
 4212      44455343 
 4213              	.LASF49:
 4214 0126 55534255 		.ascii	"USBUART_ReadDieID\000"
 4214      4152545F 
 4214      52656164 
 4214      44696549 
 4214      4400
 4215              	.LASF9:
 4216 0138 75696E74 		.ascii	"uint8\000"
 4216      3800
 4217              	.LASF20:
 4218 013e 6570546F 		.ascii	"epToggle\000"
 4218      67676C65 
 4218      00
 4219              	.LASF80:
 4220 0147 55534255 		.ascii	"USBUART_idSerialNumberStringDescriptor\000"
 4220      4152545F 
 4220      69645365 
 4220      7269616C 
 4220      4E756D62 
 4221              	.LASF12:
 4222 016e 646F7562 		.ascii	"double\000"
 4222      6C6500
 4223              	.LASF75:
 4224 0175 55534255 		.ascii	"USBUART_cdc_data_out_ep\000"
 4224      4152545F 
 4224      6364635F 
 4224      64617461 
 4224      5F6F7574 
 4225              	.LASF74:
 4226 018d 55534255 		.ascii	"USBUART_cdc_data_in_ep\000"
 4226      4152545F 
 4226      6364635F 
 4226      64617461 
 4226      5F696E5F 
 4227              	.LASF60:
 4228 01a4 55534255 		.ascii	"USBUART_GetConfigTablePtr\000"
 4228      4152545F 
 4228      47657443 
 4228      6F6E6669 
 4228      67546162 
 4229              	.LASF35:
 4230 01be 70446174 		.ascii	"pData\000"
 4230      6100
 4231              	.LASF22:
 4232 01c4 65704D6F 		.ascii	"epMode\000"
 4232      646500
 4233              	.LASF55:
 4234 01cb 65705479 		.ascii	"epType\000"
 4234      706500
 4235              	.LASF68:
 4236 01d2 55534255 		.ascii	"USBUART_ValidateAlternateSetting\000"
 4236      4152545F 
 4236      56616C69 
 4236      64617465 
 4236      416C7465 
ARM GAS  C:\Users\VICTOR~1\AppData\Local\Temp\ccARlXCX.s 			page 99


 4237              	.LASF48:
 4238 01f3 76616C75 		.ascii	"value\000"
 4238      6500
 4239              	.LASF73:
 4240 01f9 55534255 		.ascii	"USBUART_deviceStatus\000"
 4240      4152545F 
 4240      64657669 
 4240      63655374 
 4240      61747573 
 4241              	.LASF8:
 4242 020e 756E7369 		.ascii	"unsigned int\000"
 4242      676E6564 
 4242      20696E74 
 4242      00
 4243              	.LASF46:
 4244 021b 55534255 		.ascii	"USBUART_tBuffer\000"
 4244      4152545F 
 4244      74427566 
 4244      66657200 
 4245              	.LASF5:
 4246 022b 6C6F6E67 		.ascii	"long unsigned int\000"
 4246      20756E73 
 4246      69676E65 
 4246      6420696E 
 4246      7400
 4247              	.LASF90:
 4248 023d 2E5C4765 		.ascii	".\\Generated_Source\\PSoC5\\USBUART_std.c\000"
 4248      6E657261 
 4248      7465645F 
 4248      536F7572 
 4248      63655C50 
 4249              	.LASF59:
 4250 0264 55534255 		.ascii	"USBUART_HandleStandardRqst\000"
 4250      4152545F 
 4250      48616E64 
 4250      6C655374 
 4250      616E6461 
 4251              	.LASF92:
 4252 027f 55534255 		.ascii	"USBUART_GetDeviceTablePtr\000"
 4252      4152545F 
 4252      47657444 
 4252      65766963 
 4252      65546162 
 4253              	.LASF3:
 4254 0299 73686F72 		.ascii	"short unsigned int\000"
 4254      7420756E 
 4254      7369676E 
 4254      65642069 
 4254      6E7400
 4255              	.LASF56:
 4256 02ac 70446573 		.ascii	"pDescr\000"
 4256      637200
 4257              	.LASF63:
 4258 02b3 70496E74 		.ascii	"pInterfaceClass\000"
 4258      65726661 
 4258      6365436C 
 4258      61737300 
ARM GAS  C:\Users\VICTOR~1\AppData\Local\Temp\ccARlXCX.s 			page 100


 4259              	.LASF25:
 4260 02c3 696E7465 		.ascii	"interface\000"
 4260      72666163 
 4260      6500
 4261              	.LASF50:
 4262 02cd 55534255 		.ascii	"USBUART_ConfigReg\000"
 4262      4152545F 
 4262      436F6E66 
 4262      69675265 
 4262      6700
 4263              	.LASF91:
 4264 02df 433A5C55 		.ascii	"C:\\Users\\Victor Ruela\\Desktop\\UFMG\\2015-1\\Int"
 4264      73657273 
 4264      5C566963 
 4264      746F7220 
 4264      5275656C 
 4265 030c 65677261 		.ascii	"egracao de Dados\\TP pratico\\TP-TID\\PSoC\\TP_Sens"
 4265      63616F20 
 4265      64652044 
 4265      61646F73 
 4265      5C545020 
 4266 033b 6F725C54 		.ascii	"or\\TP_Sensor.cydsn\000"
 4266      505F5365 
 4266      6E736F72 
 4266      2E637964 
 4266      736E00
 4267              	.LASF84:
 4268 034e 55534255 		.ascii	"USBUART_deviceAddress\000"
 4268      4152545F 
 4268      64657669 
 4268      63654164 
 4268      64726573 
 4269              	.LASF19:
 4270 0364 68774570 		.ascii	"hwEpState\000"
 4270      53746174 
 4270      6500
 4271              	.LASF45:
 4272 036e 64657363 		.ascii	"descrLength\000"
 4272      724C656E 
 4272      67746800 
 4273              	.LASF16:
 4274 037a 73697A65 		.ascii	"sizetype\000"
 4274      74797065 
 4274      00
 4275              	.LASF58:
 4276 0383 55534255 		.ascii	"USBUART_ConfigAltChanged\000"
 4276      4152545F 
 4276      436F6E66 
 4276      6967416C 
 4276      74436861 
 4277              	.LASF47:
 4278 039c 70546D70 		.ascii	"pTmp\000"
 4278      00
 4279              	.LASF38:
 4280 03a1 705F6C69 		.ascii	"p_list\000"
 4280      737400
 4281              	.LASF57:
ARM GAS  C:\Users\VICTOR~1\AppData\Local\Temp\ccARlXCX.s 			page 101


 4282 03a8 62756666 		.ascii	"buffCount\000"
 4282      436F756E 
 4282      7400
 4283              	.LASF17:
 4284 03b2 61747472 		.ascii	"attrib\000"
 4284      696200
 4285              	.LASF89:
 4286 03b9 474E5520 		.ascii	"GNU C 4.8.4 20140526 (release) [ARM/embedded-4_8-br"
 4286      4320342E 
 4286      382E3420 
 4286      32303134 
 4286      30353236 
 4287 03ec 616E6368 		.ascii	"anch revision 211358] -mcpu=cortex-m3 -mthumb -g -O"
 4287      20726576 
 4287      6973696F 
 4287      6E203231 
 4287      31333538 
 4288 041f 30202D66 		.ascii	"0 -ffunction-sections\000"
 4288      66756E63 
 4288      74696F6E 
 4288      2D736563 
 4288      74696F6E 
 4289              	.LASF86:
 4290 0435 55534255 		.ascii	"USBUART_interfaceClass\000"
 4290      4152545F 
 4290      696E7465 
 4290      72666163 
 4290      65436C61 
 4291              	.LASF88:
 4292 044c 55534255 		.ascii	"USBUART_currentTD\000"
 4292      4152545F 
 4292      63757272 
 4292      656E7454 
 4292      4400
 4293              	.LASF64:
 4294 045e 63757272 		.ascii	"currentInterfacesNum\000"
 4294      656E7449 
 4294      6E746572 
 4294      66616365 
 4294      734E756D 
 4295              	.LASF78:
 4296 0473 55534255 		.ascii	"USBUART_STRING_DESCRIPTORS\000"
 4296      4152545F 
 4296      53545249 
 4296      4E475F44 
 4296      45534352 
 4297              	.LASF69:
 4298 048e 696E7465 		.ascii	"interfaceNum\000"
 4298      72666163 
 4298      654E756D 
 4298      00
 4299              	.LASF11:
 4300 049b 666C6F61 		.ascii	"float\000"
 4300      7400
 4301              	.LASF18:
 4302 04a1 61706945 		.ascii	"apiEpState\000"
 4302      70537461 
ARM GAS  C:\Users\VICTOR~1\AppData\Local\Temp\ccARlXCX.s 			page 102


 4302      746500
 4303              	.LASF65:
 4304 04ac 55534255 		.ascii	"USBUART_TerminateEP\000"
 4304      4152545F 
 4304      5465726D 
 4304      696E6174 
 4304      65455000 
 4305              	.LASF42:
 4306 04c0 636F6E66 		.ascii	"configurationN\000"
 4306      69677572 
 4306      6174696F 
 4306      6E4E00
 4307              	.LASF43:
 4308 04cf 70537472 		.ascii	"pStr\000"
 4308      00
 4309              	.LASF15:
 4310 04d4 72656738 		.ascii	"reg8\000"
 4310      00
 4311              	.LASF82:
 4312 04d9 55534255 		.ascii	"USBUART_interfaceSetting\000"
 4312      4152545F 
 4312      696E7465 
 4312      72666163 
 4312      65536574 
 4313              	.LASF52:
 4314 04f2 64657363 		.ascii	"descr\000"
 4314      7200
 4315              	.LASF1:
 4316 04f8 756E7369 		.ascii	"unsigned char\000"
 4316      676E6564 
 4316      20636861 
 4316      7200
 4317              	.LASF2:
 4318 0506 73686F72 		.ascii	"short int\000"
 4318      7420696E 
 4318      7400
 4319              	.LASF39:
 4320 0510 545F5553 		.ascii	"T_USBUART_LUT\000"
 4320      42554152 
 4320      545F4C55 
 4320      5400
 4321              	.LASF37:
 4322 051e 545F5553 		.ascii	"T_USBUART_TD\000"
 4322      42554152 
 4322      545F5444 
 4322      00
 4323              	.LASF85:
 4324 052b 55534255 		.ascii	"USBUART_interfaceStatus\000"
 4324      4152545F 
 4324      696E7465 
 4324      72666163 
 4324      65537461 
 4325              	.LASF28:
 4326 0543 61747472 		.ascii	"attributes\000"
 4326      69627574 
 4326      657300
 4327              	.LASF67:
ARM GAS  C:\Users\VICTOR~1\AppData\Local\Temp\ccARlXCX.s 			page 103


 4328 054e 55534255 		.ascii	"USBUART_ClearEndpointHalt\000"
 4328      4152545F 
 4328      436C6561 
 4328      72456E64 
 4328      706F696E 
 4329              	.LASF27:
 4330 0568 616C7453 		.ascii	"altSetting\000"
 4330      65747469 
 4330      6E6700
 4331              	.LASF14:
 4332 0573 63686172 		.ascii	"char\000"
 4332      00
 4333              	.LASF24:
 4334 0578 62756666 		.ascii	"bufferSize\000"
 4334      65725369 
 4334      7A6500
 4335              	.LASF40:
 4336 0583 72657175 		.ascii	"requestHandled\000"
 4336      65737448 
 4336      616E646C 
 4336      656400
 4337              	.LASF26:
 4338 0592 545F5553 		.ascii	"T_USBUART_EP_CTL_BLOCK\000"
 4338      42554152 
 4338      545F4550 
 4338      5F43544C 
 4338      5F424C4F 
 4339              	.LASF23:
 4340 05a9 62756666 		.ascii	"buffOffset\000"
 4340      4F666673 
 4340      657400
 4341              	.LASF13:
 4342 05b4 63686172 		.ascii	"char8\000"
 4342      3800
 4343              	.LASF30:
 4344 05ba 545F5553 		.ascii	"T_USBUART_EP_SETTINGS_BLOCK\000"
 4344      42554152 
 4344      545F4550 
 4344      5F534554 
 4344      54494E47 
 4345              	.LASF81:
 4346 05d6 55534255 		.ascii	"USBUART_interfaceNumber\000"
 4346      4152545F 
 4346      696E7465 
 4346      72666163 
 4346      654E756D 
 4347              	.LASF32:
 4348 05ee 6C656E67 		.ascii	"length\000"
 4348      746800
 4349              	.LASF44:
 4350 05f5 6E537472 		.ascii	"nStr\000"
 4350      00
 4351              	.LASF54:
 4352 05fa 6375725F 		.ascii	"cur_ep\000"
 4352      657000
 4353              	.LASF31:
 4354 0601 73746174 		.ascii	"status\000"
ARM GAS  C:\Users\VICTOR~1\AppData\Local\Temp\ccARlXCX.s 			page 104


 4354      757300
 4355              	.LASF71:
 4356 0608 55534255 		.ascii	"USBUART_configuration\000"
 4356      4152545F 
 4356      636F6E66 
 4356      69677572 
 4356      6174696F 
 4357              	.LASF29:
 4358 061e 624D6973 		.ascii	"bMisc\000"
 4358      6300
 4359              	.LASF83:
 4360 0624 55534255 		.ascii	"USBUART_interfaceSetting_last\000"
 4360      4152545F 
 4360      696E7465 
 4360      72666163 
 4360      65536574 
 4361              	.LASF66:
 4362 0642 55534255 		.ascii	"USBUART_SetEndpointHalt\000"
 4362      4152545F 
 4362      53657445 
 4362      6E64706F 
 4362      696E7448 
 4363              	.LASF72:
 4364 065a 55534255 		.ascii	"USBUART_configurationChanged\000"
 4364      4152545F 
 4364      636F6E66 
 4364      69677572 
 4364      6174696F 
 4365              		.ident	"GCC: (GNU Tools for ARM Embedded Processors) 4.8.4 20140526 (release) [ARM/embedded-4_8-br
