C51 COMPILER V9.51   MAIN                                                                  04/06/2015 16:45:21 PAGE 1   


C51 COMPILER V9.51, COMPILATION OF MODULE MAIN
OBJECT MODULE PLACED IN .\DP8051_Keil_951\Debug\main.obj
COMPILER INVOKED BY: C:\Program Files (x86)\Cypress\PSoC Creator\3.0\PSoC Creator\import\keil\pk51\9.51\C51\BIN\c51.exe 
                    -.\main.c NOIV LARGE MODDP2 OMF2 VB(1) PR(.\DP8051_Keil_951\Debug\main.lst) CD DB NOIP OT(2,SIZE) INCDIR(.,.\Generated_So
                    -urce\PSoC3) OJ(.\DP8051_Keil_951\Debug\main.obj)

line level    source

   1          /*******************************************************************************
   2          * File: main.c
   3          *
   4          * Version : 1.3
   5          *
   6          * Description:
   7          *   This is a source code for example project of DieTemp
   8          *
   9          ********************************************************************************
  10          * Copyright 2012, Cypress Semiconductor Corporation. All rights reserved.
  11          * This software is owned by Cypress Semiconductor Corporation and is protected
  12          * by and subject to worldwide patent and copyright laws and treaties.
  13          * Therefore, you may use this software only as provided in the license agreement
  14          * accompanying the software package from which you obtained this software.
  15          * CYPRESS AND ITS SUPPLIERS MAKE NO WARRANTY OF ANY KIND, EXPRESS OR IMPLIED,
  16          * WITH REGARD TO THIS SOFTWARE, INCLUDING, BUT NOT LIMITED TO, NONINFRINGEMENT,
  17          * IMPLIED WARRANTIES OF MERCHANTABILITY AND FITNESS FOR A PARTICULAR PURPOSE.
  18          *******************************************************************************/
  19          
  20          #include <device.h>
  21          
  22          /*******************************************************************************
  23          * Function Name: main
  24          ********************************************************************************
  25          *
  26          * Summary:
  27          *  Main function performs following functions:
  28          *   1: Initializes the LCD
  29          *   2: Get the temperature of the Die
  30          *   3: Print the Die Temperature value in LCD
  31          *   4: Print the Status value in the LCD
  32          *
  33          * Parameters:
  34          *  None.
  35          *
  36          * Return:
  37          *  None.
  38          *
  39          *******************************************************************************/
  40          void main()
  41          {
  42   1          cystatus Status;
  43   1          int16 temperature;
  44   1      
  45   1          /* Initializing the LCD */
  46   1          LCD_Char_1_Start();
  47   1      
  48   1          while(1)
  49   1          {
  50   2              /* Providing some delay */
  51   2              CyDelay(50);
  52   2      
  53   2              /* Reading the Die Temperature value */
C51 COMPILER V9.51   MAIN                                                                  04/06/2015 16:45:21 PAGE 2   

  54   2              Status = DieTemp_1_GetTemp(&temperature);
  55   2      
  56   2              /* Displaying the Die Temperature value on the LCD */
  57   2              LCD_Char_1_Position(0u, 0u);
  58   2              LCD_Char_1_PrintString("Temp = ");
  59   2      
  60   2              if (temperature >=0u )
  61   2              {
  62   3                  LCD_Char_1_PrintString("+");
  63   3              }
  64   2              else
  65   2              {
  66   3                  /* If the temperature value is negative, display "-" sign and make value positive */
  67   3                  LCD_Char_1_PrintString("-");
  68   3                  temperature = (uint16)(~temperature + 1u);
  69   3              }
  70   2              
  71   2              LCD_Char_1_PrintNumber((uint16) (temperature));
  72   2              LCD_Char_1_PrintString(" ");
  73   2              
  74   2              LCD_Char_1_PutChar(LCD_Char_1_CUSTOM_7);
  75   2              LCD_Char_1_PrintString("C");
  76   2      
  77   2              /* Displaying the status value on the LCD */
  78   2              LCD_Char_1_Position(1u, 0u);
  79   2              LCD_Char_1_PrintString("Status = ");
  80   2              LCD_Char_1_PrintInt8((uint8) Status);
  81   2          }
  82   1      }
  83          
  84          
  85          /* [] END OF FILE */
C51 COMPILER V9.51   MAIN                                                                  04/06/2015 16:45:21 PAGE 3   

ASSEMBLY LISTING OF GENERATED OBJECT CODE


             ; FUNCTION main (BEGIN)
                                           ; SOURCE LINE # 40
                                           ; SOURCE LINE # 41
                                           ; SOURCE LINE # 46
0000 120000      E     LCALL   LCD_Char_1_Start
0003         ?C0001:
                                           ; SOURCE LINE # 48
                                           ; SOURCE LINE # 49
                                           ; SOURCE LINE # 51
0003 7F32              MOV     R7,#032H
0005 7E00              MOV     R6,#00H
0007 7D00              MOV     R5,#00H
0009 7C00              MOV     R4,#00H
000B 120000      E     LCALL   _?CyDelay
                                           ; SOURCE LINE # 54
000E 7B01              MOV     R3,#01H
0010 7A00        R     MOV     R2,#HIGH temperature
0012 7900        R     MOV     R1,#LOW temperature
0014 120000      E     LCALL   _DieTemp_1_GetTemp
0017 900000      R     MOV     DPTR,#Status
001A EF                MOV     A,R7
001B F0                MOVX    @DPTR,A
                                           ; SOURCE LINE # 57
001C 7D00              MOV     R5,#00H
001E 7F00              MOV     R7,#00H
0020 120000      E     LCALL   _LCD_Char_1_Position
                                           ; SOURCE LINE # 58
0023 7BFF              MOV     R3,#0FFH
0025 7A00        R     MOV     R2,#HIGH ?SC_0
0027 7900        R     MOV     R1,#LOW ?SC_0
0029 120000      E     LCALL   _LCD_Char_1_PrintString
                                           ; SOURCE LINE # 60
002C 900000      R     MOV     DPTR,#temperature
002F E0                MOVX    A,@DPTR
0030 FE                MOV     R6,A
0031 A3                INC     DPTR
0032 E0                MOVX    A,@DPTR
0033 FF                MOV     R7,A
0034 C3                CLR     C
0035 EE                MOV     A,R6
0036 9400              SUBB    A,#00H
0038 400B              JC      ?C0003
                                           ; SOURCE LINE # 61
                                           ; SOURCE LINE # 62
003A 7BFF              MOV     R3,#0FFH
003C 7A00        R     MOV     R2,#HIGH ?SC_8
003E 7900        R     MOV     R1,#LOW ?SC_8
0040 120000      E     LCALL   _LCD_Char_1_PrintString
                                           ; SOURCE LINE # 63
0043 8027              SJMP    ?C0004
0045         ?C0003:
                                           ; SOURCE LINE # 65
                                           ; SOURCE LINE # 67
0045 7BFF              MOV     R3,#0FFH
0047 7A00        R     MOV     R2,#HIGH ?SC_10
0049 7900        R     MOV     R1,#LOW ?SC_10
004B 120000      E     LCALL   _LCD_Char_1_PrintString
                                           ; SOURCE LINE # 68
004E 900000      R     MOV     DPTR,#temperature
C51 COMPILER V9.51   MAIN                                                                  04/06/2015 16:45:21 PAGE 4   

0051 E0                MOVX    A,@DPTR
0052 FE                MOV     R6,A
0053 A3                INC     DPTR
0054 E0                MOVX    A,@DPTR
0055 FF                MOV     R7,A
0056 EF                MOV     A,R7
0057 F4                CPL     A
0058 FF                MOV     R7,A
0059 EE                MOV     A,R6
005A F4                CPL     A
005B FE                MOV     R6,A
005C EF                MOV     A,R7
005D 2401              ADD     A,#01H
005F FF                MOV     R7,A
0060 EE                MOV     A,R6
0061 3400              ADDC    A,#00H
0063 FE                MOV     R6,A
0064 900000      R     MOV     DPTR,#temperature
0067 EE                MOV     A,R6
0068 F0                MOVX    @DPTR,A
0069 A3                INC     DPTR
006A EF                MOV     A,R7
006B F0                MOVX    @DPTR,A
                                           ; SOURCE LINE # 69
006C         ?C0004:
                                           ; SOURCE LINE # 71
006C 900000      R     MOV     DPTR,#temperature
006F E0                MOVX    A,@DPTR
0070 FE                MOV     R6,A
0071 A3                INC     DPTR
0072 E0                MOVX    A,@DPTR
0073 FF                MOV     R7,A
0074 E4                CLR     A
0075 FC                MOV     R4,A
0076 FD                MOV     R5,A
0077 120000      E     LCALL   _LCD_Char_1_PrintU32Number
                                           ; SOURCE LINE # 72
007A 7BFF              MOV     R3,#0FFH
007C 7A00        R     MOV     R2,#HIGH ?SC_12
007E 7900        R     MOV     R1,#LOW ?SC_12
0080 120000      E     LCALL   _LCD_Char_1_PrintString
                                           ; SOURCE LINE # 74
0083 7F07              MOV     R7,#07H
0085 120000      E     LCALL   _LCD_Char_1_PutChar
                                           ; SOURCE LINE # 75
0088 7BFF              MOV     R3,#0FFH
008A 7A00        R     MOV     R2,#HIGH ?SC_14
008C 7900        R     MOV     R1,#LOW ?SC_14
008E 120000      E     LCALL   _LCD_Char_1_PrintString
                                           ; SOURCE LINE # 78
0091 7D00              MOV     R5,#00H
0093 7F01              MOV     R7,#01H
0095 120000      E     LCALL   _LCD_Char_1_Position
                                           ; SOURCE LINE # 79
0098 7BFF              MOV     R3,#0FFH
009A 7A00        R     MOV     R2,#HIGH ?SC_16
009C 7900        R     MOV     R1,#LOW ?SC_16
009E 120000      E     LCALL   _LCD_Char_1_PrintString
                                           ; SOURCE LINE # 80
00A1 900000      R     MOV     DPTR,#Status
00A4 E0                MOVX    A,@DPTR
00A5 FF                MOV     R7,A
C51 COMPILER V9.51   MAIN                                                                  04/06/2015 16:45:21 PAGE 5   

00A6 120000      E     LCALL   _LCD_Char_1_PrintInt8
                                           ; SOURCE LINE # 81
00A9 020000      R     LJMP    ?C0001
00AC 22                RET     
             ; FUNCTION main (END)



MODULE INFORMATION:   STATIC OVERLAYABLE
   CODE SIZE        =    173    ----
   CONSTANT SIZE    =     26    ----
   XDATA SIZE       =   ----       3
   PDATA SIZE       =   ----    ----
   DATA SIZE        =   ----    ----
   IDATA SIZE       =   ----    ----
   BIT SIZE         =   ----    ----
   EDATA SIZE       =   ----    ----
   HDATA SIZE       =   ----    ----
   XDATA CONST SIZE =   ----    ----
   FAR CONST SIZE   =   ----    ----
END OF MODULE INFORMATION.


C51 COMPILATION COMPLETE.  0 WARNING(S),  0 ERROR(S)
